
./vfs/swk.elf:     file format elf64-littleaarch64


Disassembly of section .text:

ffffffff80000000 <early_panic>:
ffffffff80000000:	58000b40 	ldr	x0, ffffffff80000168 <kmain+0xfc>
ffffffff80000004:	d503207f 	wfi
ffffffff80000008:	d503205f 	wfe
ffffffff8000000c:	d503201f 	nop
ffffffff80000010:	17ffffff 	b	ffffffff8000000c <early_panic+0xc>

ffffffff80000014 <panic>:
ffffffff80000014:	a9be7bfd 	stp	x29, x30, [sp, #-32]!
ffffffff80000018:	910003fd 	mov	x29, sp
ffffffff8000001c:	f9000fe0 	str	x0, [sp, #24]
ffffffff80000020:	940003f3 	bl	ffffffff80000fec <clear>
ffffffff80000024:	f9400fe1 	ldr	x1, [sp, #24]
ffffffff80000028:	b00000c0 	adrp	x0, ffffffff80019000 <_exc_lower_32_serror+0xf880>
ffffffff8000002c:	911e2000 	add	x0, x0, #0x788
ffffffff80000030:	940002e0 	bl	ffffffff80000bb0 <tprintf>
ffffffff80000034:	97fffff3 	bl	ffffffff80000000 <early_panic>
ffffffff80000038:	d503201f 	nop
ffffffff8000003c:	a8c27bfd 	ldp	x29, x30, [sp], #32
ffffffff80000040:	d65f03c0 	ret

ffffffff80000044 <set_vbar_el1>:
ffffffff80000044:	d10043ff 	sub	sp, sp, #0x10
ffffffff80000048:	f90007e0 	str	x0, [sp, #8]
ffffffff8000004c:	f94007e0 	ldr	x0, [sp, #8]
ffffffff80000050:	d518c000 	msr	vbar_el1, x0
ffffffff80000054:	d503201f 	nop
ffffffff80000058:	910043ff 	add	sp, sp, #0x10
ffffffff8000005c:	d65f03c0 	ret

ffffffff80000060 <kfault>:
ffffffff80000060:	d503205f 	wfe
ffffffff80000064:	d503201f 	nop
ffffffff80000068:	17ffffff 	b	ffffffff80000064 <kfault+0x4>

ffffffff8000006c <kmain>:
ffffffff8000006c:	a9be7bfd 	stp	x29, x30, [sp, #-32]!
ffffffff80000070:	910003fd 	mov	x29, sp
ffffffff80000074:	f0000140 	adrp	x0, ffffffff8002b000 <combining.0+0xf6f0>
ffffffff80000078:	91382000 	add	x0, x0, #0xe08
ffffffff8000007c:	f9400800 	ldr	x0, [x0, #16]
ffffffff80000080:	f100001f 	cmp	x0, #0x0
ffffffff80000084:	54000040 	b.eq	ffffffff8000008c <kmain+0x20>  // b.none
ffffffff80000088:	97ffffde 	bl	ffffffff80000000 <early_panic>
ffffffff8000008c:	f0000140 	adrp	x0, ffffffff8002b000 <combining.0+0xf6f0>
ffffffff80000090:	91396000 	add	x0, x0, #0xe58
ffffffff80000094:	f9401400 	ldr	x0, [x0, #40]
ffffffff80000098:	f100001f 	cmp	x0, #0x0
ffffffff8000009c:	540000e0 	b.eq	ffffffff800000b8 <kmain+0x4c>  // b.none
ffffffff800000a0:	f0000140 	adrp	x0, ffffffff8002b000 <combining.0+0xf6f0>
ffffffff800000a4:	91396000 	add	x0, x0, #0xe58
ffffffff800000a8:	f9401400 	ldr	x0, [x0, #40]
ffffffff800000ac:	f9400400 	ldr	x0, [x0, #8]
ffffffff800000b0:	f100001f 	cmp	x0, #0x0
ffffffff800000b4:	54000041 	b.ne	ffffffff800000bc <kmain+0x50>  // b.any
ffffffff800000b8:	97ffffd2 	bl	ffffffff80000000 <early_panic>
ffffffff800000bc:	f0000140 	adrp	x0, ffffffff8002b000 <combining.0+0xf6f0>
ffffffff800000c0:	91396000 	add	x0, x0, #0xe58
ffffffff800000c4:	f9401400 	ldr	x0, [x0, #40]
ffffffff800000c8:	f9400800 	ldr	x0, [x0, #16]
ffffffff800000cc:	f9400000 	ldr	x0, [x0]
ffffffff800000d0:	f9000fe0 	str	x0, [sp, #24]
ffffffff800000d4:	f9400fe0 	ldr	x0, [sp, #24]
ffffffff800000d8:	9400028c 	bl	ffffffff80000b08 <terminal_init>
ffffffff800000dc:	f0000140 	adrp	x0, ffffffff8002b000 <combining.0+0xf6f0>
ffffffff800000e0:	913a2000 	add	x0, x0, #0xe88
ffffffff800000e4:	f9401400 	ldr	x0, [x0, #40]
ffffffff800000e8:	f9400401 	ldr	x1, [x0, #8]
ffffffff800000ec:	f0000140 	adrp	x0, ffffffff8002b000 <combining.0+0xf6f0>
ffffffff800000f0:	913a2000 	add	x0, x0, #0xe88
ffffffff800000f4:	f9401400 	ldr	x0, [x0, #40]
ffffffff800000f8:	f9400800 	ldr	x0, [x0, #16]
ffffffff800000fc:	aa0003e2 	mov	x2, x0
ffffffff80000100:	b00000c0 	adrp	x0, ffffffff80019000 <_exc_lower_32_serror+0xf880>
ffffffff80000104:	911e8000 	add	x0, x0, #0x7a0
ffffffff80000108:	940002aa 	bl	ffffffff80000bb0 <tprintf>
ffffffff8000010c:	b00000c0 	adrp	x0, ffffffff80019000 <_exc_lower_32_serror+0xf880>
ffffffff80000110:	911f0000 	add	x0, x0, #0x7c0
ffffffff80000114:	94000017 	bl	ffffffff80000170 <log_info>
ffffffff80000118:	b0000040 	adrp	x0, ffffffff80009000 <_exception_vector>
ffffffff8000011c:	91000000 	add	x0, x0, #0x0
ffffffff80000120:	97ffffc9 	bl	ffffffff80000044 <set_vbar_el1>
ffffffff80000124:	940003c0 	bl	ffffffff80001024 <init_pmm>
ffffffff80000128:	94000588 	bl	ffffffff80001748 <vfs_init>
ffffffff8000012c:	f0000140 	adrp	x0, ffffffff8002b000 <combining.0+0xf6f0>
ffffffff80000130:	913bc000 	add	x0, x0, #0xef0
ffffffff80000134:	f9401400 	ldr	x0, [x0, #40]
ffffffff80000138:	f9400400 	ldr	x0, [x0, #8]
ffffffff8000013c:	f100001f 	cmp	x0, #0x0
ffffffff80000140:	54000081 	b.ne	ffffffff80000150 <kmain+0xe4>  // b.any
ffffffff80000144:	b00000c0 	adrp	x0, ffffffff80019000 <_exc_lower_32_serror+0xf880>
ffffffff80000148:	91200000 	add	x0, x0, #0x800
ffffffff8000014c:	97ffffb2 	bl	ffffffff80000014 <panic>
ffffffff80000150:	b00000c0 	adrp	x0, ffffffff80019000 <_exc_lower_32_serror+0xf880>
ffffffff80000154:	91206000 	add	x0, x0, #0x818
ffffffff80000158:	94000006 	bl	ffffffff80000170 <log_info>
ffffffff8000015c:	d503201f 	nop
ffffffff80000160:	17ffffff 	b	ffffffff8000015c <kmain+0xf0>
ffffffff80000164:	00000000 	udf	#0
ffffffff80000168:	deadbeef 	.word	0xdeadbeef
ffffffff8000016c:	00000000 	.word	0x00000000

ffffffff80000170 <log_info>:
ffffffff80000170:	a9ae7bfd 	stp	x29, x30, [sp, #-288]!
ffffffff80000174:	910003fd 	mov	x29, sp
ffffffff80000178:	f9001fe0 	str	x0, [sp, #56]
ffffffff8000017c:	f90077e1 	str	x1, [sp, #232]
ffffffff80000180:	f9007be2 	str	x2, [sp, #240]
ffffffff80000184:	f9007fe3 	str	x3, [sp, #248]
ffffffff80000188:	f90083e4 	str	x4, [sp, #256]
ffffffff8000018c:	f90087e5 	str	x5, [sp, #264]
ffffffff80000190:	f9008be6 	str	x6, [sp, #272]
ffffffff80000194:	f9008fe7 	str	x7, [sp, #280]
ffffffff80000198:	3d801be0 	str	q0, [sp, #96]
ffffffff8000019c:	3d801fe1 	str	q1, [sp, #112]
ffffffff800001a0:	3d8023e2 	str	q2, [sp, #128]
ffffffff800001a4:	3d8027e3 	str	q3, [sp, #144]
ffffffff800001a8:	3d802be4 	str	q4, [sp, #160]
ffffffff800001ac:	3d802fe5 	str	q5, [sp, #176]
ffffffff800001b0:	3d8033e6 	str	q6, [sp, #192]
ffffffff800001b4:	3d8037e7 	str	q7, [sp, #208]
ffffffff800001b8:	910483e0 	add	x0, sp, #0x120
ffffffff800001bc:	f90023e0 	str	x0, [sp, #64]
ffffffff800001c0:	910483e0 	add	x0, sp, #0x120
ffffffff800001c4:	f90027e0 	str	x0, [sp, #72]
ffffffff800001c8:	910383e0 	add	x0, sp, #0xe0
ffffffff800001cc:	f9002be0 	str	x0, [sp, #80]
ffffffff800001d0:	128006e0 	mov	w0, #0xffffffc8            	// #-56
ffffffff800001d4:	b9005be0 	str	w0, [sp, #88]
ffffffff800001d8:	12800fe0 	mov	w0, #0xffffff80            	// #-128
ffffffff800001dc:	b9005fe0 	str	w0, [sp, #92]
ffffffff800001e0:	910043e0 	add	x0, sp, #0x10
ffffffff800001e4:	910103e1 	add	x1, sp, #0x40
ffffffff800001e8:	ad400420 	ldp	q0, q1, [x1]
ffffffff800001ec:	ad000400 	stp	q0, q1, [x0]
ffffffff800001f0:	910043e0 	add	x0, sp, #0x10
ffffffff800001f4:	aa0003e3 	mov	x3, x0
ffffffff800001f8:	f9401fe2 	ldr	x2, [sp, #56]
ffffffff800001fc:	b00000c0 	adrp	x0, ffffffff80019000 <_exc_lower_32_serror+0xf880>
ffffffff80000200:	91208001 	add	x1, x0, #0x820
ffffffff80000204:	b00000c0 	adrp	x0, ffffffff80019000 <_exc_lower_32_serror+0xf880>
ffffffff80000208:	9120a000 	add	x0, x0, #0x828
ffffffff8000020c:	94000269 	bl	ffffffff80000bb0 <tprintf>
ffffffff80000210:	d503201f 	nop
ffffffff80000214:	a8d27bfd 	ldp	x29, x30, [sp], #288
ffffffff80000218:	d65f03c0 	ret

ffffffff8000021c <log_warn>:
ffffffff8000021c:	a9ae7bfd 	stp	x29, x30, [sp, #-288]!
ffffffff80000220:	910003fd 	mov	x29, sp
ffffffff80000224:	f9001fe0 	str	x0, [sp, #56]
ffffffff80000228:	f90077e1 	str	x1, [sp, #232]
ffffffff8000022c:	f9007be2 	str	x2, [sp, #240]
ffffffff80000230:	f9007fe3 	str	x3, [sp, #248]
ffffffff80000234:	f90083e4 	str	x4, [sp, #256]
ffffffff80000238:	f90087e5 	str	x5, [sp, #264]
ffffffff8000023c:	f9008be6 	str	x6, [sp, #272]
ffffffff80000240:	f9008fe7 	str	x7, [sp, #280]
ffffffff80000244:	3d801be0 	str	q0, [sp, #96]
ffffffff80000248:	3d801fe1 	str	q1, [sp, #112]
ffffffff8000024c:	3d8023e2 	str	q2, [sp, #128]
ffffffff80000250:	3d8027e3 	str	q3, [sp, #144]
ffffffff80000254:	3d802be4 	str	q4, [sp, #160]
ffffffff80000258:	3d802fe5 	str	q5, [sp, #176]
ffffffff8000025c:	3d8033e6 	str	q6, [sp, #192]
ffffffff80000260:	3d8037e7 	str	q7, [sp, #208]
ffffffff80000264:	910483e0 	add	x0, sp, #0x120
ffffffff80000268:	f90023e0 	str	x0, [sp, #64]
ffffffff8000026c:	910483e0 	add	x0, sp, #0x120
ffffffff80000270:	f90027e0 	str	x0, [sp, #72]
ffffffff80000274:	910383e0 	add	x0, sp, #0xe0
ffffffff80000278:	f9002be0 	str	x0, [sp, #80]
ffffffff8000027c:	128006e0 	mov	w0, #0xffffffc8            	// #-56
ffffffff80000280:	b9005be0 	str	w0, [sp, #88]
ffffffff80000284:	12800fe0 	mov	w0, #0xffffff80            	// #-128
ffffffff80000288:	b9005fe0 	str	w0, [sp, #92]
ffffffff8000028c:	910043e0 	add	x0, sp, #0x10
ffffffff80000290:	910103e1 	add	x1, sp, #0x40
ffffffff80000294:	ad400420 	ldp	q0, q1, [x1]
ffffffff80000298:	ad000400 	stp	q0, q1, [x0]
ffffffff8000029c:	910043e0 	add	x0, sp, #0x10
ffffffff800002a0:	aa0003e3 	mov	x3, x0
ffffffff800002a4:	f9401fe2 	ldr	x2, [sp, #56]
ffffffff800002a8:	b00000c0 	adrp	x0, ffffffff80019000 <_exc_lower_32_serror+0xf880>
ffffffff800002ac:	9120c001 	add	x1, x0, #0x830
ffffffff800002b0:	b00000c0 	adrp	x0, ffffffff80019000 <_exc_lower_32_serror+0xf880>
ffffffff800002b4:	9120a000 	add	x0, x0, #0x828
ffffffff800002b8:	9400023e 	bl	ffffffff80000bb0 <tprintf>
ffffffff800002bc:	d503201f 	nop
ffffffff800002c0:	a8d27bfd 	ldp	x29, x30, [sp], #288
ffffffff800002c4:	d65f03c0 	ret

ffffffff800002c8 <log_erro>:
ffffffff800002c8:	a9ae7bfd 	stp	x29, x30, [sp, #-288]!
ffffffff800002cc:	910003fd 	mov	x29, sp
ffffffff800002d0:	f9001fe0 	str	x0, [sp, #56]
ffffffff800002d4:	f90077e1 	str	x1, [sp, #232]
ffffffff800002d8:	f9007be2 	str	x2, [sp, #240]
ffffffff800002dc:	f9007fe3 	str	x3, [sp, #248]
ffffffff800002e0:	f90083e4 	str	x4, [sp, #256]
ffffffff800002e4:	f90087e5 	str	x5, [sp, #264]
ffffffff800002e8:	f9008be6 	str	x6, [sp, #272]
ffffffff800002ec:	f9008fe7 	str	x7, [sp, #280]
ffffffff800002f0:	3d801be0 	str	q0, [sp, #96]
ffffffff800002f4:	3d801fe1 	str	q1, [sp, #112]
ffffffff800002f8:	3d8023e2 	str	q2, [sp, #128]
ffffffff800002fc:	3d8027e3 	str	q3, [sp, #144]
ffffffff80000300:	3d802be4 	str	q4, [sp, #160]
ffffffff80000304:	3d802fe5 	str	q5, [sp, #176]
ffffffff80000308:	3d8033e6 	str	q6, [sp, #192]
ffffffff8000030c:	3d8037e7 	str	q7, [sp, #208]
ffffffff80000310:	910483e0 	add	x0, sp, #0x120
ffffffff80000314:	f90023e0 	str	x0, [sp, #64]
ffffffff80000318:	910483e0 	add	x0, sp, #0x120
ffffffff8000031c:	f90027e0 	str	x0, [sp, #72]
ffffffff80000320:	910383e0 	add	x0, sp, #0xe0
ffffffff80000324:	f9002be0 	str	x0, [sp, #80]
ffffffff80000328:	128006e0 	mov	w0, #0xffffffc8            	// #-56
ffffffff8000032c:	b9005be0 	str	w0, [sp, #88]
ffffffff80000330:	12800fe0 	mov	w0, #0xffffff80            	// #-128
ffffffff80000334:	b9005fe0 	str	w0, [sp, #92]
ffffffff80000338:	910043e0 	add	x0, sp, #0x10
ffffffff8000033c:	910103e1 	add	x1, sp, #0x40
ffffffff80000340:	ad400420 	ldp	q0, q1, [x1]
ffffffff80000344:	ad000400 	stp	q0, q1, [x0]
ffffffff80000348:	910043e0 	add	x0, sp, #0x10
ffffffff8000034c:	aa0003e3 	mov	x3, x0
ffffffff80000350:	f9401fe2 	ldr	x2, [sp, #56]
ffffffff80000354:	b00000c0 	adrp	x0, ffffffff80019000 <_exc_lower_32_serror+0xf880>
ffffffff80000358:	9120e001 	add	x1, x0, #0x838
ffffffff8000035c:	b00000c0 	adrp	x0, ffffffff80019000 <_exc_lower_32_serror+0xf880>
ffffffff80000360:	9120a000 	add	x0, x0, #0x828
ffffffff80000364:	94000213 	bl	ffffffff80000bb0 <tprintf>
ffffffff80000368:	d503201f 	nop
ffffffff8000036c:	a8d27bfd 	ldp	x29, x30, [sp], #288
ffffffff80000370:	d65f03c0 	ret

ffffffff80000374 <memcpy>:
ffffffff80000374:	d10103ff 	sub	sp, sp, #0x40
ffffffff80000378:	f9000fe0 	str	x0, [sp, #24]
ffffffff8000037c:	f9000be1 	str	x1, [sp, #16]
ffffffff80000380:	f90007e2 	str	x2, [sp, #8]
ffffffff80000384:	f9400fe0 	ldr	x0, [sp, #24]
ffffffff80000388:	f9001be0 	str	x0, [sp, #48]
ffffffff8000038c:	f9400be0 	ldr	x0, [sp, #16]
ffffffff80000390:	f90017e0 	str	x0, [sp, #40]
ffffffff80000394:	f9001fff 	str	xzr, [sp, #56]
ffffffff80000398:	1400000c 	b	ffffffff800003c8 <memcpy+0x54>
ffffffff8000039c:	f94017e1 	ldr	x1, [sp, #40]
ffffffff800003a0:	f9401fe0 	ldr	x0, [sp, #56]
ffffffff800003a4:	8b000021 	add	x1, x1, x0
ffffffff800003a8:	f9401be2 	ldr	x2, [sp, #48]
ffffffff800003ac:	f9401fe0 	ldr	x0, [sp, #56]
ffffffff800003b0:	8b000040 	add	x0, x2, x0
ffffffff800003b4:	39400021 	ldrb	w1, [x1]
ffffffff800003b8:	39000001 	strb	w1, [x0]
ffffffff800003bc:	f9401fe0 	ldr	x0, [sp, #56]
ffffffff800003c0:	91000400 	add	x0, x0, #0x1
ffffffff800003c4:	f9001fe0 	str	x0, [sp, #56]
ffffffff800003c8:	f9401fe1 	ldr	x1, [sp, #56]
ffffffff800003cc:	f94007e0 	ldr	x0, [sp, #8]
ffffffff800003d0:	eb00003f 	cmp	x1, x0
ffffffff800003d4:	54fffe43 	b.cc	ffffffff8000039c <memcpy+0x28>  // b.lo, b.ul, b.last
ffffffff800003d8:	f9400fe0 	ldr	x0, [sp, #24]
ffffffff800003dc:	910103ff 	add	sp, sp, #0x40
ffffffff800003e0:	d65f03c0 	ret

ffffffff800003e4 <memset>:
ffffffff800003e4:	d100c3ff 	sub	sp, sp, #0x30
ffffffff800003e8:	f9000fe0 	str	x0, [sp, #24]
ffffffff800003ec:	b90017e1 	str	w1, [sp, #20]
ffffffff800003f0:	f90007e2 	str	x2, [sp, #8]
ffffffff800003f4:	f9400fe0 	ldr	x0, [sp, #24]
ffffffff800003f8:	f90013e0 	str	x0, [sp, #32]
ffffffff800003fc:	f90017ff 	str	xzr, [sp, #40]
ffffffff80000400:	1400000a 	b	ffffffff80000428 <memset+0x44>
ffffffff80000404:	f94013e1 	ldr	x1, [sp, #32]
ffffffff80000408:	f94017e0 	ldr	x0, [sp, #40]
ffffffff8000040c:	8b000020 	add	x0, x1, x0
ffffffff80000410:	b94017e1 	ldr	w1, [sp, #20]
ffffffff80000414:	12001c21 	and	w1, w1, #0xff
ffffffff80000418:	39000001 	strb	w1, [x0]
ffffffff8000041c:	f94017e0 	ldr	x0, [sp, #40]
ffffffff80000420:	91000400 	add	x0, x0, #0x1
ffffffff80000424:	f90017e0 	str	x0, [sp, #40]
ffffffff80000428:	f94017e1 	ldr	x1, [sp, #40]
ffffffff8000042c:	f94007e0 	ldr	x0, [sp, #8]
ffffffff80000430:	eb00003f 	cmp	x1, x0
ffffffff80000434:	54fffe83 	b.cc	ffffffff80000404 <memset+0x20>  // b.lo, b.ul, b.last
ffffffff80000438:	f9400fe0 	ldr	x0, [sp, #24]
ffffffff8000043c:	9100c3ff 	add	sp, sp, #0x30
ffffffff80000440:	d65f03c0 	ret

ffffffff80000444 <memmove>:
ffffffff80000444:	d10103ff 	sub	sp, sp, #0x40
ffffffff80000448:	f9000fe0 	str	x0, [sp, #24]
ffffffff8000044c:	f9000be1 	str	x1, [sp, #16]
ffffffff80000450:	f90007e2 	str	x2, [sp, #8]
ffffffff80000454:	f9400fe0 	ldr	x0, [sp, #24]
ffffffff80000458:	f90017e0 	str	x0, [sp, #40]
ffffffff8000045c:	f9400be0 	ldr	x0, [sp, #16]
ffffffff80000460:	f90013e0 	str	x0, [sp, #32]
ffffffff80000464:	f9400be1 	ldr	x1, [sp, #16]
ffffffff80000468:	f9400fe0 	ldr	x0, [sp, #24]
ffffffff8000046c:	eb00003f 	cmp	x1, x0
ffffffff80000470:	54000269 	b.ls	ffffffff800004bc <memmove+0x78>  // b.plast
ffffffff80000474:	f9001fff 	str	xzr, [sp, #56]
ffffffff80000478:	1400000c 	b	ffffffff800004a8 <memmove+0x64>
ffffffff8000047c:	f94013e1 	ldr	x1, [sp, #32]
ffffffff80000480:	f9401fe0 	ldr	x0, [sp, #56]
ffffffff80000484:	8b000021 	add	x1, x1, x0
ffffffff80000488:	f94017e2 	ldr	x2, [sp, #40]
ffffffff8000048c:	f9401fe0 	ldr	x0, [sp, #56]
ffffffff80000490:	8b000040 	add	x0, x2, x0
ffffffff80000494:	39400021 	ldrb	w1, [x1]
ffffffff80000498:	39000001 	strb	w1, [x0]
ffffffff8000049c:	f9401fe0 	ldr	x0, [sp, #56]
ffffffff800004a0:	91000400 	add	x0, x0, #0x1
ffffffff800004a4:	f9001fe0 	str	x0, [sp, #56]
ffffffff800004a8:	f9401fe1 	ldr	x1, [sp, #56]
ffffffff800004ac:	f94007e0 	ldr	x0, [sp, #8]
ffffffff800004b0:	eb00003f 	cmp	x1, x0
ffffffff800004b4:	54fffe43 	b.cc	ffffffff8000047c <memmove+0x38>  // b.lo, b.ul, b.last
ffffffff800004b8:	14000018 	b	ffffffff80000518 <memmove+0xd4>
ffffffff800004bc:	f9400be1 	ldr	x1, [sp, #16]
ffffffff800004c0:	f9400fe0 	ldr	x0, [sp, #24]
ffffffff800004c4:	eb00003f 	cmp	x1, x0
ffffffff800004c8:	54000282 	b.cs	ffffffff80000518 <memmove+0xd4>  // b.hs, b.nlast
ffffffff800004cc:	f94007e0 	ldr	x0, [sp, #8]
ffffffff800004d0:	f9001be0 	str	x0, [sp, #48]
ffffffff800004d4:	1400000e 	b	ffffffff8000050c <memmove+0xc8>
ffffffff800004d8:	f9401be0 	ldr	x0, [sp, #48]
ffffffff800004dc:	d1000400 	sub	x0, x0, #0x1
ffffffff800004e0:	f94013e1 	ldr	x1, [sp, #32]
ffffffff800004e4:	8b000021 	add	x1, x1, x0
ffffffff800004e8:	f9401be0 	ldr	x0, [sp, #48]
ffffffff800004ec:	d1000400 	sub	x0, x0, #0x1
ffffffff800004f0:	f94017e2 	ldr	x2, [sp, #40]
ffffffff800004f4:	8b000040 	add	x0, x2, x0
ffffffff800004f8:	39400021 	ldrb	w1, [x1]
ffffffff800004fc:	39000001 	strb	w1, [x0]
ffffffff80000500:	f9401be0 	ldr	x0, [sp, #48]
ffffffff80000504:	d1000400 	sub	x0, x0, #0x1
ffffffff80000508:	f9001be0 	str	x0, [sp, #48]
ffffffff8000050c:	f9401be0 	ldr	x0, [sp, #48]
ffffffff80000510:	f100001f 	cmp	x0, #0x0
ffffffff80000514:	54fffe21 	b.ne	ffffffff800004d8 <memmove+0x94>  // b.any
ffffffff80000518:	f9400fe0 	ldr	x0, [sp, #24]
ffffffff8000051c:	910103ff 	add	sp, sp, #0x40
ffffffff80000520:	d65f03c0 	ret

ffffffff80000524 <memcmp>:
ffffffff80000524:	d10103ff 	sub	sp, sp, #0x40
ffffffff80000528:	f9000fe0 	str	x0, [sp, #24]
ffffffff8000052c:	f9000be1 	str	x1, [sp, #16]
ffffffff80000530:	f90007e2 	str	x2, [sp, #8]
ffffffff80000534:	f9400fe0 	ldr	x0, [sp, #24]
ffffffff80000538:	f9001be0 	str	x0, [sp, #48]
ffffffff8000053c:	f9400be0 	ldr	x0, [sp, #16]
ffffffff80000540:	f90017e0 	str	x0, [sp, #40]
ffffffff80000544:	f9001fff 	str	xzr, [sp, #56]
ffffffff80000548:	1400001c 	b	ffffffff800005b8 <memcmp+0x94>
ffffffff8000054c:	f9401be1 	ldr	x1, [sp, #48]
ffffffff80000550:	f9401fe0 	ldr	x0, [sp, #56]
ffffffff80000554:	8b000020 	add	x0, x1, x0
ffffffff80000558:	39400001 	ldrb	w1, [x0]
ffffffff8000055c:	f94017e2 	ldr	x2, [sp, #40]
ffffffff80000560:	f9401fe0 	ldr	x0, [sp, #56]
ffffffff80000564:	8b000040 	add	x0, x2, x0
ffffffff80000568:	39400000 	ldrb	w0, [x0]
ffffffff8000056c:	6b00003f 	cmp	w1, w0
ffffffff80000570:	540001e0 	b.eq	ffffffff800005ac <memcmp+0x88>  // b.none
ffffffff80000574:	f9401be1 	ldr	x1, [sp, #48]
ffffffff80000578:	f9401fe0 	ldr	x0, [sp, #56]
ffffffff8000057c:	8b000020 	add	x0, x1, x0
ffffffff80000580:	39400001 	ldrb	w1, [x0]
ffffffff80000584:	f94017e2 	ldr	x2, [sp, #40]
ffffffff80000588:	f9401fe0 	ldr	x0, [sp, #56]
ffffffff8000058c:	8b000040 	add	x0, x2, x0
ffffffff80000590:	39400000 	ldrb	w0, [x0]
ffffffff80000594:	6b00003f 	cmp	w1, w0
ffffffff80000598:	54000062 	b.cs	ffffffff800005a4 <memcmp+0x80>  // b.hs, b.nlast
ffffffff8000059c:	12800000 	mov	w0, #0xffffffff            	// #-1
ffffffff800005a0:	1400000b 	b	ffffffff800005cc <memcmp+0xa8>
ffffffff800005a4:	52800020 	mov	w0, #0x1                   	// #1
ffffffff800005a8:	14000009 	b	ffffffff800005cc <memcmp+0xa8>
ffffffff800005ac:	f9401fe0 	ldr	x0, [sp, #56]
ffffffff800005b0:	91000400 	add	x0, x0, #0x1
ffffffff800005b4:	f9001fe0 	str	x0, [sp, #56]
ffffffff800005b8:	f9401fe1 	ldr	x1, [sp, #56]
ffffffff800005bc:	f94007e0 	ldr	x0, [sp, #8]
ffffffff800005c0:	eb00003f 	cmp	x1, x0
ffffffff800005c4:	54fffc43 	b.cc	ffffffff8000054c <memcmp+0x28>  // b.lo, b.ul, b.last
ffffffff800005c8:	52800000 	mov	w0, #0x0                   	// #0
ffffffff800005cc:	910103ff 	add	sp, sp, #0x40
ffffffff800005d0:	d65f03c0 	ret

ffffffff800005d4 <strchr>:
ffffffff800005d4:	d10043ff 	sub	sp, sp, #0x10
ffffffff800005d8:	f90007e0 	str	x0, [sp, #8]
ffffffff800005dc:	b90007e1 	str	w1, [sp, #4]
ffffffff800005e0:	14000004 	b	ffffffff800005f0 <strchr+0x1c>
ffffffff800005e4:	f94007e0 	ldr	x0, [sp, #8]
ffffffff800005e8:	91000400 	add	x0, x0, #0x1
ffffffff800005ec:	f90007e0 	str	x0, [sp, #8]
ffffffff800005f0:	f94007e0 	ldr	x0, [sp, #8]
ffffffff800005f4:	39400000 	ldrb	w0, [x0]
ffffffff800005f8:	7100001f 	cmp	w0, #0x0
ffffffff800005fc:	540000e0 	b.eq	ffffffff80000618 <strchr+0x44>  // b.none
ffffffff80000600:	f94007e0 	ldr	x0, [sp, #8]
ffffffff80000604:	39400000 	ldrb	w0, [x0]
ffffffff80000608:	2a0003e1 	mov	w1, w0
ffffffff8000060c:	b94007e0 	ldr	w0, [sp, #4]
ffffffff80000610:	6b01001f 	cmp	w0, w1
ffffffff80000614:	54fffe81 	b.ne	ffffffff800005e4 <strchr+0x10>  // b.any
ffffffff80000618:	f94007e0 	ldr	x0, [sp, #8]
ffffffff8000061c:	39400000 	ldrb	w0, [x0]
ffffffff80000620:	2a0003e1 	mov	w1, w0
ffffffff80000624:	b94007e0 	ldr	w0, [sp, #4]
ffffffff80000628:	6b01001f 	cmp	w0, w1
ffffffff8000062c:	54000081 	b.ne	ffffffff8000063c <strchr+0x68>  // b.any
ffffffff80000630:	f94007e0 	ldr	x0, [sp, #8]
ffffffff80000634:	91000400 	add	x0, x0, #0x1
ffffffff80000638:	14000002 	b	ffffffff80000640 <strchr+0x6c>
ffffffff8000063c:	d2800000 	mov	x0, #0x0                   	// #0
ffffffff80000640:	910043ff 	add	sp, sp, #0x10
ffffffff80000644:	d65f03c0 	ret

ffffffff80000648 <strcpy>:
ffffffff80000648:	d10043ff 	sub	sp, sp, #0x10
ffffffff8000064c:	f90007e0 	str	x0, [sp, #8]
ffffffff80000650:	f90003e1 	str	x1, [sp]
ffffffff80000654:	1400000b 	b	ffffffff80000680 <strcpy+0x38>
ffffffff80000658:	f94003e0 	ldr	x0, [sp]
ffffffff8000065c:	39400001 	ldrb	w1, [x0]
ffffffff80000660:	f94007e0 	ldr	x0, [sp, #8]
ffffffff80000664:	39000001 	strb	w1, [x0]
ffffffff80000668:	f94007e0 	ldr	x0, [sp, #8]
ffffffff8000066c:	91000400 	add	x0, x0, #0x1
ffffffff80000670:	f90007e0 	str	x0, [sp, #8]
ffffffff80000674:	f94003e0 	ldr	x0, [sp]
ffffffff80000678:	91000400 	add	x0, x0, #0x1
ffffffff8000067c:	f90003e0 	str	x0, [sp]
ffffffff80000680:	f94003e0 	ldr	x0, [sp]
ffffffff80000684:	39400000 	ldrb	w0, [x0]
ffffffff80000688:	7100001f 	cmp	w0, #0x0
ffffffff8000068c:	54fffe61 	b.ne	ffffffff80000658 <strcpy+0x10>  // b.any
ffffffff80000690:	f94007e0 	ldr	x0, [sp, #8]
ffffffff80000694:	3900001f 	strb	wzr, [x0]
ffffffff80000698:	f94007e0 	ldr	x0, [sp, #8]
ffffffff8000069c:	910043ff 	add	sp, sp, #0x10
ffffffff800006a0:	d65f03c0 	ret

ffffffff800006a4 <strtol>:
ffffffff800006a4:	d100c3ff 	sub	sp, sp, #0x30
ffffffff800006a8:	f9000fe0 	str	x0, [sp, #24]
ffffffff800006ac:	f9000be1 	str	x1, [sp, #16]
ffffffff800006b0:	b9000fe2 	str	w2, [sp, #12]
ffffffff800006b4:	f90017ff 	str	xzr, [sp, #40]
ffffffff800006b8:	52800020 	mov	w0, #0x1                   	// #1
ffffffff800006bc:	b90027e0 	str	w0, [sp, #36]
ffffffff800006c0:	14000004 	b	ffffffff800006d0 <strtol+0x2c>
ffffffff800006c4:	f9400fe0 	ldr	x0, [sp, #24]
ffffffff800006c8:	91000400 	add	x0, x0, #0x1
ffffffff800006cc:	f9000fe0 	str	x0, [sp, #24]
ffffffff800006d0:	f9400fe0 	ldr	x0, [sp, #24]
ffffffff800006d4:	39400000 	ldrb	w0, [x0]
ffffffff800006d8:	7100801f 	cmp	w0, #0x20
ffffffff800006dc:	54ffff40 	b.eq	ffffffff800006c4 <strtol+0x20>  // b.none
ffffffff800006e0:	f9400fe0 	ldr	x0, [sp, #24]
ffffffff800006e4:	39400000 	ldrb	w0, [x0]
ffffffff800006e8:	7100b41f 	cmp	w0, #0x2d
ffffffff800006ec:	540000e1 	b.ne	ffffffff80000708 <strtol+0x64>  // b.any
ffffffff800006f0:	12800000 	mov	w0, #0xffffffff            	// #-1
ffffffff800006f4:	b90027e0 	str	w0, [sp, #36]
ffffffff800006f8:	f9400fe0 	ldr	x0, [sp, #24]
ffffffff800006fc:	91000400 	add	x0, x0, #0x1
ffffffff80000700:	f9000fe0 	str	x0, [sp, #24]
ffffffff80000704:	14000008 	b	ffffffff80000724 <strtol+0x80>
ffffffff80000708:	f9400fe0 	ldr	x0, [sp, #24]
ffffffff8000070c:	39400000 	ldrb	w0, [x0]
ffffffff80000710:	7100ac1f 	cmp	w0, #0x2b
ffffffff80000714:	54000081 	b.ne	ffffffff80000724 <strtol+0x80>  // b.any
ffffffff80000718:	f9400fe0 	ldr	x0, [sp, #24]
ffffffff8000071c:	91000400 	add	x0, x0, #0x1
ffffffff80000720:	f9000fe0 	str	x0, [sp, #24]
ffffffff80000724:	b9400fe0 	ldr	w0, [sp, #12]
ffffffff80000728:	7100001f 	cmp	w0, #0x0
ffffffff8000072c:	540009e1 	b.ne	ffffffff80000868 <strtol+0x1c4>  // b.any
ffffffff80000730:	f9400fe0 	ldr	x0, [sp, #24]
ffffffff80000734:	39400000 	ldrb	w0, [x0]
ffffffff80000738:	7100c01f 	cmp	w0, #0x30
ffffffff8000073c:	540002a1 	b.ne	ffffffff80000790 <strtol+0xec>  // b.any
ffffffff80000740:	f9400fe0 	ldr	x0, [sp, #24]
ffffffff80000744:	91000400 	add	x0, x0, #0x1
ffffffff80000748:	f9000fe0 	str	x0, [sp, #24]
ffffffff8000074c:	f9400fe0 	ldr	x0, [sp, #24]
ffffffff80000750:	39400000 	ldrb	w0, [x0]
ffffffff80000754:	7101e01f 	cmp	w0, #0x78
ffffffff80000758:	540000a0 	b.eq	ffffffff8000076c <strtol+0xc8>  // b.none
ffffffff8000075c:	f9400fe0 	ldr	x0, [sp, #24]
ffffffff80000760:	39400000 	ldrb	w0, [x0]
ffffffff80000764:	7101601f 	cmp	w0, #0x58
ffffffff80000768:	540000e1 	b.ne	ffffffff80000784 <strtol+0xe0>  // b.any
ffffffff8000076c:	52800200 	mov	w0, #0x10                  	// #16
ffffffff80000770:	b9000fe0 	str	w0, [sp, #12]
ffffffff80000774:	f9400fe0 	ldr	x0, [sp, #24]
ffffffff80000778:	91000400 	add	x0, x0, #0x1
ffffffff8000077c:	f9000fe0 	str	x0, [sp, #24]
ffffffff80000780:	14000006 	b	ffffffff80000798 <strtol+0xf4>
ffffffff80000784:	52800100 	mov	w0, #0x8                   	// #8
ffffffff80000788:	b9000fe0 	str	w0, [sp, #12]
ffffffff8000078c:	14000037 	b	ffffffff80000868 <strtol+0x1c4>
ffffffff80000790:	52800140 	mov	w0, #0xa                   	// #10
ffffffff80000794:	b9000fe0 	str	w0, [sp, #12]
ffffffff80000798:	14000034 	b	ffffffff80000868 <strtol+0x1c4>
ffffffff8000079c:	f9400fe0 	ldr	x0, [sp, #24]
ffffffff800007a0:	39400000 	ldrb	w0, [x0]
ffffffff800007a4:	7100bc1f 	cmp	w0, #0x2f
ffffffff800007a8:	54000149 	b.ls	ffffffff800007d0 <strtol+0x12c>  // b.plast
ffffffff800007ac:	f9400fe0 	ldr	x0, [sp, #24]
ffffffff800007b0:	39400000 	ldrb	w0, [x0]
ffffffff800007b4:	7100e41f 	cmp	w0, #0x39
ffffffff800007b8:	540000c8 	b.hi	ffffffff800007d0 <strtol+0x12c>  // b.pmore
ffffffff800007bc:	f9400fe0 	ldr	x0, [sp, #24]
ffffffff800007c0:	39400000 	ldrb	w0, [x0]
ffffffff800007c4:	5100c000 	sub	w0, w0, #0x30
ffffffff800007c8:	b90023e0 	str	w0, [sp, #32]
ffffffff800007cc:	1400001a 	b	ffffffff80000834 <strtol+0x190>
ffffffff800007d0:	f9400fe0 	ldr	x0, [sp, #24]
ffffffff800007d4:	39400000 	ldrb	w0, [x0]
ffffffff800007d8:	7101801f 	cmp	w0, #0x60
ffffffff800007dc:	54000149 	b.ls	ffffffff80000804 <strtol+0x160>  // b.plast
ffffffff800007e0:	f9400fe0 	ldr	x0, [sp, #24]
ffffffff800007e4:	39400000 	ldrb	w0, [x0]
ffffffff800007e8:	7101981f 	cmp	w0, #0x66
ffffffff800007ec:	540000c8 	b.hi	ffffffff80000804 <strtol+0x160>  // b.pmore
ffffffff800007f0:	f9400fe0 	ldr	x0, [sp, #24]
ffffffff800007f4:	39400000 	ldrb	w0, [x0]
ffffffff800007f8:	51015c00 	sub	w0, w0, #0x57
ffffffff800007fc:	b90023e0 	str	w0, [sp, #32]
ffffffff80000800:	1400000d 	b	ffffffff80000834 <strtol+0x190>
ffffffff80000804:	f9400fe0 	ldr	x0, [sp, #24]
ffffffff80000808:	39400000 	ldrb	w0, [x0]
ffffffff8000080c:	7101001f 	cmp	w0, #0x40
ffffffff80000810:	54000389 	b.ls	ffffffff80000880 <strtol+0x1dc>  // b.plast
ffffffff80000814:	f9400fe0 	ldr	x0, [sp, #24]
ffffffff80000818:	39400000 	ldrb	w0, [x0]
ffffffff8000081c:	7101181f 	cmp	w0, #0x46
ffffffff80000820:	54000308 	b.hi	ffffffff80000880 <strtol+0x1dc>  // b.pmore
ffffffff80000824:	f9400fe0 	ldr	x0, [sp, #24]
ffffffff80000828:	39400000 	ldrb	w0, [x0]
ffffffff8000082c:	5100dc00 	sub	w0, w0, #0x37
ffffffff80000830:	b90023e0 	str	w0, [sp, #32]
ffffffff80000834:	b94023e1 	ldr	w1, [sp, #32]
ffffffff80000838:	b9400fe0 	ldr	w0, [sp, #12]
ffffffff8000083c:	6b00003f 	cmp	w1, w0
ffffffff80000840:	540001ea 	b.ge	ffffffff8000087c <strtol+0x1d8>  // b.tcont
ffffffff80000844:	b9800fe1 	ldrsw	x1, [sp, #12]
ffffffff80000848:	f94017e0 	ldr	x0, [sp, #40]
ffffffff8000084c:	9b007c21 	mul	x1, x1, x0
ffffffff80000850:	b98023e0 	ldrsw	x0, [sp, #32]
ffffffff80000854:	8b000020 	add	x0, x1, x0
ffffffff80000858:	f90017e0 	str	x0, [sp, #40]
ffffffff8000085c:	f9400fe0 	ldr	x0, [sp, #24]
ffffffff80000860:	91000400 	add	x0, x0, #0x1
ffffffff80000864:	f9000fe0 	str	x0, [sp, #24]
ffffffff80000868:	f9400fe0 	ldr	x0, [sp, #24]
ffffffff8000086c:	39400000 	ldrb	w0, [x0]
ffffffff80000870:	7100001f 	cmp	w0, #0x0
ffffffff80000874:	54fff941 	b.ne	ffffffff8000079c <strtol+0xf8>  // b.any
ffffffff80000878:	14000002 	b	ffffffff80000880 <strtol+0x1dc>
ffffffff8000087c:	d503201f 	nop
ffffffff80000880:	f9400be0 	ldr	x0, [sp, #16]
ffffffff80000884:	f100001f 	cmp	x0, #0x0
ffffffff80000888:	54000080 	b.eq	ffffffff80000898 <strtol+0x1f4>  // b.none
ffffffff8000088c:	f9400be0 	ldr	x0, [sp, #16]
ffffffff80000890:	f9400fe1 	ldr	x1, [sp, #24]
ffffffff80000894:	f9000001 	str	x1, [x0]
ffffffff80000898:	b98027e1 	ldrsw	x1, [sp, #36]
ffffffff8000089c:	f94017e0 	ldr	x0, [sp, #40]
ffffffff800008a0:	9b007c20 	mul	x0, x1, x0
ffffffff800008a4:	9100c3ff 	add	sp, sp, #0x30
ffffffff800008a8:	d65f03c0 	ret

ffffffff800008ac <flanterm_fb_simple_init>:
ffffffff800008ac:	d10283ff 	sub	sp, sp, #0xa0
ffffffff800008b0:	a9067bfd 	stp	x29, x30, [sp, #96]
ffffffff800008b4:	910183fd 	add	x29, sp, #0x60
ffffffff800008b8:	f90047e0 	str	x0, [sp, #136]
ffffffff800008bc:	f90043e1 	str	x1, [sp, #128]
ffffffff800008c0:	f9003fe2 	str	x2, [sp, #120]
ffffffff800008c4:	f9003be3 	str	x3, [sp, #112]
ffffffff800008c8:	d2800020 	mov	x0, #0x1                   	// #1
ffffffff800008cc:	f9004fe0 	str	x0, [sp, #152]
ffffffff800008d0:	d2800020 	mov	x0, #0x1                   	// #1
ffffffff800008d4:	f9004be0 	str	x0, [sp, #144]
ffffffff800008d8:	f94043e0 	ldr	x0, [sp, #128]
ffffffff800008dc:	f127fc1f 	cmp	x0, #0x9ff
ffffffff800008e0:	54000109 	b.ls	ffffffff80000900 <flanterm_fb_simple_init+0x54>  // b.plast
ffffffff800008e4:	f9403fe0 	ldr	x0, [sp, #120]
ffffffff800008e8:	f1167c1f 	cmp	x0, #0x59f
ffffffff800008ec:	540000a9 	b.ls	ffffffff80000900 <flanterm_fb_simple_init+0x54>  // b.plast
ffffffff800008f0:	d2800040 	mov	x0, #0x2                   	// #2
ffffffff800008f4:	f9004fe0 	str	x0, [sp, #152]
ffffffff800008f8:	d2800040 	mov	x0, #0x2                   	// #2
ffffffff800008fc:	f9004be0 	str	x0, [sp, #144]
ffffffff80000900:	f94043e1 	ldr	x1, [sp, #128]
ffffffff80000904:	d2827fe0 	mov	x0, #0x13ff                	// #5119
ffffffff80000908:	eb00003f 	cmp	x1, x0
ffffffff8000090c:	54000109 	b.ls	ffffffff8000092c <flanterm_fb_simple_init+0x80>  // b.plast
ffffffff80000910:	f9403fe0 	ldr	x0, [sp, #120]
ffffffff80000914:	f12cfc1f 	cmp	x0, #0xb3f
ffffffff80000918:	540000a9 	b.ls	ffffffff8000092c <flanterm_fb_simple_init+0x80>  // b.plast
ffffffff8000091c:	d2800080 	mov	x0, #0x4                   	// #4
ffffffff80000920:	f9004fe0 	str	x0, [sp, #152]
ffffffff80000924:	d2800080 	mov	x0, #0x4                   	// #4
ffffffff80000928:	f9004be0 	str	x0, [sp, #144]
ffffffff8000092c:	f9002fff 	str	xzr, [sp, #88]
ffffffff80000930:	f9404be0 	ldr	x0, [sp, #144]
ffffffff80000934:	f9002be0 	str	x0, [sp, #80]
ffffffff80000938:	f9404fe0 	ldr	x0, [sp, #152]
ffffffff8000093c:	f90027e0 	str	x0, [sp, #72]
ffffffff80000940:	d2800020 	mov	x0, #0x1                   	// #1
ffffffff80000944:	f90023e0 	str	x0, [sp, #64]
ffffffff80000948:	f9001fff 	str	xzr, [sp, #56]
ffffffff8000094c:	f9001bff 	str	xzr, [sp, #48]
ffffffff80000950:	f90017ff 	str	xzr, [sp, #40]
ffffffff80000954:	f90013ff 	str	xzr, [sp, #32]
ffffffff80000958:	f9000fff 	str	xzr, [sp, #24]
ffffffff8000095c:	f9000bff 	str	xzr, [sp, #16]
ffffffff80000960:	f90007ff 	str	xzr, [sp, #8]
ffffffff80000964:	f90003ff 	str	xzr, [sp]
ffffffff80000968:	d2800007 	mov	x7, #0x0                   	// #0
ffffffff8000096c:	d2800006 	mov	x6, #0x0                   	// #0
ffffffff80000970:	f9403be5 	ldr	x5, [sp, #112]
ffffffff80000974:	f9403fe4 	ldr	x4, [sp, #120]
ffffffff80000978:	f94043e3 	ldr	x3, [sp, #128]
ffffffff8000097c:	f94047e2 	ldr	x2, [sp, #136]
ffffffff80000980:	d2800001 	mov	x1, #0x0                   	// #0
ffffffff80000984:	d2800000 	mov	x0, #0x0                   	// #0
ffffffff80000988:	94000df4 	bl	ffffffff80004158 <flanterm_fb_init>
ffffffff8000098c:	a9467bfd 	ldp	x29, x30, [sp, #96]
ffffffff80000990:	910283ff 	add	sp, sp, #0xa0
ffffffff80000994:	d65f03c0 	ret

ffffffff80000998 <strlen>:
ffffffff80000998:	d10083ff 	sub	sp, sp, #0x20
ffffffff8000099c:	f90007e0 	str	x0, [sp, #8]
ffffffff800009a0:	f9000fff 	str	xzr, [sp, #24]
ffffffff800009a4:	14000004 	b	ffffffff800009b4 <strlen+0x1c>
ffffffff800009a8:	f9400fe0 	ldr	x0, [sp, #24]
ffffffff800009ac:	91000400 	add	x0, x0, #0x1
ffffffff800009b0:	f9000fe0 	str	x0, [sp, #24]
ffffffff800009b4:	f9400fe0 	ldr	x0, [sp, #24]
ffffffff800009b8:	f94007e1 	ldr	x1, [sp, #8]
ffffffff800009bc:	8b000020 	add	x0, x1, x0
ffffffff800009c0:	39400000 	ldrb	w0, [x0]
ffffffff800009c4:	7100001f 	cmp	w0, #0x0
ffffffff800009c8:	54ffff01 	b.ne	ffffffff800009a8 <strlen+0x10>  // b.any
ffffffff800009cc:	f9400fe0 	ldr	x0, [sp, #24]
ffffffff800009d0:	910083ff 	add	sp, sp, #0x20
ffffffff800009d4:	d65f03c0 	ret

ffffffff800009d8 <int_to_hex>:
ffffffff800009d8:	d100c3ff 	sub	sp, sp, #0x30
ffffffff800009dc:	f90007e0 	str	x0, [sp, #8]
ffffffff800009e0:	f90003e1 	str	x1, [sp]
ffffffff800009e4:	b00000c0 	adrp	x0, ffffffff80019000 <_exc_lower_32_serror+0xf880>
ffffffff800009e8:	91210000 	add	x0, x0, #0x840
ffffffff800009ec:	910043e2 	add	x2, sp, #0x10
ffffffff800009f0:	aa0003e3 	mov	x3, x0
ffffffff800009f4:	a9400460 	ldp	x0, x1, [x3]
ffffffff800009f8:	a9000440 	stp	x0, x1, [x2]
ffffffff800009fc:	39404060 	ldrb	w0, [x3, #16]
ffffffff80000a00:	39004040 	strb	w0, [x2, #16]
ffffffff80000a04:	b9002fff 	str	wzr, [sp, #44]
ffffffff80000a08:	f94007e0 	ldr	x0, [sp, #8]
ffffffff80000a0c:	92400c01 	and	x1, x0, #0xf
ffffffff80000a10:	b9402fe0 	ldr	w0, [sp, #44]
ffffffff80000a14:	11000402 	add	w2, w0, #0x1
ffffffff80000a18:	b9002fe2 	str	w2, [sp, #44]
ffffffff80000a1c:	93407c00 	sxtw	x0, w0
ffffffff80000a20:	f94003e2 	ldr	x2, [sp]
ffffffff80000a24:	8b000040 	add	x0, x2, x0
ffffffff80000a28:	910043e2 	add	x2, sp, #0x10
ffffffff80000a2c:	38616841 	ldrb	w1, [x2, x1]
ffffffff80000a30:	39000001 	strb	w1, [x0]
ffffffff80000a34:	f94007e0 	ldr	x0, [sp, #8]
ffffffff80000a38:	d344fc00 	lsr	x0, x0, #4
ffffffff80000a3c:	f90007e0 	str	x0, [sp, #8]
ffffffff80000a40:	f94007e0 	ldr	x0, [sp, #8]
ffffffff80000a44:	f100001f 	cmp	x0, #0x0
ffffffff80000a48:	54fffe01 	b.ne	ffffffff80000a08 <int_to_hex+0x30>  // b.any
ffffffff80000a4c:	b9802fe0 	ldrsw	x0, [sp, #44]
ffffffff80000a50:	f94003e1 	ldr	x1, [sp]
ffffffff80000a54:	8b000020 	add	x0, x1, x0
ffffffff80000a58:	3900001f 	strb	wzr, [x0]
ffffffff80000a5c:	b9002bff 	str	wzr, [sp, #40]
ffffffff80000a60:	1400001e 	b	ffffffff80000ad8 <int_to_hex+0x100>
ffffffff80000a64:	b9802be0 	ldrsw	x0, [sp, #40]
ffffffff80000a68:	f94003e1 	ldr	x1, [sp]
ffffffff80000a6c:	8b000020 	add	x0, x1, x0
ffffffff80000a70:	39400000 	ldrb	w0, [x0]
ffffffff80000a74:	39009fe0 	strb	w0, [sp, #39]
ffffffff80000a78:	b9402fe1 	ldr	w1, [sp, #44]
ffffffff80000a7c:	b9402be0 	ldr	w0, [sp, #40]
ffffffff80000a80:	4b000020 	sub	w0, w1, w0
ffffffff80000a84:	93407c00 	sxtw	x0, w0
ffffffff80000a88:	d1000400 	sub	x0, x0, #0x1
ffffffff80000a8c:	f94003e1 	ldr	x1, [sp]
ffffffff80000a90:	8b000021 	add	x1, x1, x0
ffffffff80000a94:	b9802be0 	ldrsw	x0, [sp, #40]
ffffffff80000a98:	f94003e2 	ldr	x2, [sp]
ffffffff80000a9c:	8b000040 	add	x0, x2, x0
ffffffff80000aa0:	39400021 	ldrb	w1, [x1]
ffffffff80000aa4:	39000001 	strb	w1, [x0]
ffffffff80000aa8:	b9402fe1 	ldr	w1, [sp, #44]
ffffffff80000aac:	b9402be0 	ldr	w0, [sp, #40]
ffffffff80000ab0:	4b000020 	sub	w0, w1, w0
ffffffff80000ab4:	93407c00 	sxtw	x0, w0
ffffffff80000ab8:	d1000400 	sub	x0, x0, #0x1
ffffffff80000abc:	f94003e1 	ldr	x1, [sp]
ffffffff80000ac0:	8b000020 	add	x0, x1, x0
ffffffff80000ac4:	39409fe1 	ldrb	w1, [sp, #39]
ffffffff80000ac8:	39000001 	strb	w1, [x0]
ffffffff80000acc:	b9402be0 	ldr	w0, [sp, #40]
ffffffff80000ad0:	11000400 	add	w0, w0, #0x1
ffffffff80000ad4:	b9002be0 	str	w0, [sp, #40]
ffffffff80000ad8:	b9402fe0 	ldr	w0, [sp, #44]
ffffffff80000adc:	531f7c01 	lsr	w1, w0, #31
ffffffff80000ae0:	0b000020 	add	w0, w1, w0
ffffffff80000ae4:	13017c00 	asr	w0, w0, #1
ffffffff80000ae8:	2a0003e1 	mov	w1, w0
ffffffff80000aec:	b9402be0 	ldr	w0, [sp, #40]
ffffffff80000af0:	6b01001f 	cmp	w0, w1
ffffffff80000af4:	54fffb8b 	b.lt	ffffffff80000a64 <int_to_hex+0x8c>  // b.tstop
ffffffff80000af8:	d503201f 	nop
ffffffff80000afc:	d503201f 	nop
ffffffff80000b00:	9100c3ff 	add	sp, sp, #0x30
ffffffff80000b04:	d65f03c0 	ret

ffffffff80000b08 <terminal_init>:
ffffffff80000b08:	a9be7bfd 	stp	x29, x30, [sp, #-32]!
ffffffff80000b0c:	910003fd 	mov	x29, sp
ffffffff80000b10:	f9000fe0 	str	x0, [sp, #24]
ffffffff80000b14:	f9400fe0 	ldr	x0, [sp, #24]
ffffffff80000b18:	f9400004 	ldr	x4, [x0]
ffffffff80000b1c:	f9400fe0 	ldr	x0, [sp, #24]
ffffffff80000b20:	f9400401 	ldr	x1, [x0, #8]
ffffffff80000b24:	f9400fe0 	ldr	x0, [sp, #24]
ffffffff80000b28:	f9400802 	ldr	x2, [x0, #16]
ffffffff80000b2c:	f9400fe0 	ldr	x0, [sp, #24]
ffffffff80000b30:	f9400c00 	ldr	x0, [x0, #24]
ffffffff80000b34:	aa0003e3 	mov	x3, x0
ffffffff80000b38:	aa0403e0 	mov	x0, x4
ffffffff80000b3c:	97ffff5c 	bl	ffffffff800008ac <flanterm_fb_simple_init>
ffffffff80000b40:	aa0003e1 	mov	x1, x0
ffffffff80000b44:	f0000140 	adrp	x0, ffffffff8002b000 <combining.0+0xf6f0>
ffffffff80000b48:	913e6000 	add	x0, x0, #0xf98
ffffffff80000b4c:	f9000001 	str	x1, [x0]
ffffffff80000b50:	f0000140 	adrp	x0, ffffffff8002b000 <combining.0+0xf6f0>
ffffffff80000b54:	913e6000 	add	x0, x0, #0xf98
ffffffff80000b58:	f9400003 	ldr	x3, [x0]
ffffffff80000b5c:	d28002a2 	mov	x2, #0x15                  	// #21
ffffffff80000b60:	b00000c0 	adrp	x0, ffffffff80019000 <_exc_lower_32_serror+0xf880>
ffffffff80000b64:	91216001 	add	x1, x0, #0x858
ffffffff80000b68:	aa0303e0 	mov	x0, x3
ffffffff80000b6c:	94001139 	bl	ffffffff80005050 <flanterm_write>
ffffffff80000b70:	52800000 	mov	w0, #0x0                   	// #0
ffffffff80000b74:	a8c27bfd 	ldp	x29, x30, [sp], #32
ffffffff80000b78:	d65f03c0 	ret

ffffffff80000b7c <print>:
ffffffff80000b7c:	a9be7bfd 	stp	x29, x30, [sp, #-32]!
ffffffff80000b80:	910003fd 	mov	x29, sp
ffffffff80000b84:	f9000fe0 	str	x0, [sp, #24]
ffffffff80000b88:	f9000be1 	str	x1, [sp, #16]
ffffffff80000b8c:	f0000140 	adrp	x0, ffffffff8002b000 <combining.0+0xf6f0>
ffffffff80000b90:	913e6000 	add	x0, x0, #0xf98
ffffffff80000b94:	f9400000 	ldr	x0, [x0]
ffffffff80000b98:	f9400be2 	ldr	x2, [sp, #16]
ffffffff80000b9c:	f9400fe1 	ldr	x1, [sp, #24]
ffffffff80000ba0:	9400112c 	bl	ffffffff80005050 <flanterm_write>
ffffffff80000ba4:	52800020 	mov	w0, #0x1                   	// #1
ffffffff80000ba8:	a8c27bfd 	ldp	x29, x30, [sp], #32
ffffffff80000bac:	d65f03c0 	ret

ffffffff80000bb0 <tprintf>:
ffffffff80000bb0:	a9aa7bfd 	stp	x29, x30, [sp, #-352]!
ffffffff80000bb4:	910003fd 	mov	x29, sp
ffffffff80000bb8:	f9000fe0 	str	x0, [sp, #24]
ffffffff80000bbc:	f90097e1 	str	x1, [sp, #296]
ffffffff80000bc0:	f9009be2 	str	x2, [sp, #304]
ffffffff80000bc4:	f9009fe3 	str	x3, [sp, #312]
ffffffff80000bc8:	f900a3e4 	str	x4, [sp, #320]
ffffffff80000bcc:	f900a7e5 	str	x5, [sp, #328]
ffffffff80000bd0:	f900abe6 	str	x6, [sp, #336]
ffffffff80000bd4:	f900afe7 	str	x7, [sp, #344]
ffffffff80000bd8:	3d802be0 	str	q0, [sp, #160]
ffffffff80000bdc:	3d802fe1 	str	q1, [sp, #176]
ffffffff80000be0:	3d8033e2 	str	q2, [sp, #192]
ffffffff80000be4:	3d8037e3 	str	q3, [sp, #208]
ffffffff80000be8:	3d803be4 	str	q4, [sp, #224]
ffffffff80000bec:	3d803fe5 	str	q5, [sp, #240]
ffffffff80000bf0:	3d8043e6 	str	q6, [sp, #256]
ffffffff80000bf4:	3d8047e7 	str	q7, [sp, #272]
ffffffff80000bf8:	910583e0 	add	x0, sp, #0x160
ffffffff80000bfc:	f90023e0 	str	x0, [sp, #64]
ffffffff80000c00:	910583e0 	add	x0, sp, #0x160
ffffffff80000c04:	f90027e0 	str	x0, [sp, #72]
ffffffff80000c08:	910483e0 	add	x0, sp, #0x120
ffffffff80000c0c:	f9002be0 	str	x0, [sp, #80]
ffffffff80000c10:	128006e0 	mov	w0, #0xffffffc8            	// #-56
ffffffff80000c14:	b9005be0 	str	w0, [sp, #88]
ffffffff80000c18:	12800fe0 	mov	w0, #0xffffff80            	// #-128
ffffffff80000c1c:	b9005fe0 	str	w0, [sp, #92]
ffffffff80000c20:	b9009fff 	str	wzr, [sp, #156]
ffffffff80000c24:	140000eb 	b	ffffffff80000fd0 <tprintf+0x420>
ffffffff80000c28:	12b00001 	mov	w1, #0x7fffffff            	// #2147483647
ffffffff80000c2c:	b9409fe0 	ldr	w0, [sp, #156]
ffffffff80000c30:	4b000020 	sub	w0, w1, w0
ffffffff80000c34:	93407c00 	sxtw	x0, w0
ffffffff80000c38:	f90047e0 	str	x0, [sp, #136]
ffffffff80000c3c:	f9400fe0 	ldr	x0, [sp, #24]
ffffffff80000c40:	39400000 	ldrb	w0, [x0]
ffffffff80000c44:	7100941f 	cmp	w0, #0x25
ffffffff80000c48:	540000c1 	b.ne	ffffffff80000c60 <tprintf+0xb0>  // b.any
ffffffff80000c4c:	f9400fe0 	ldr	x0, [sp, #24]
ffffffff80000c50:	91000400 	add	x0, x0, #0x1
ffffffff80000c54:	39400000 	ldrb	w0, [x0]
ffffffff80000c58:	7100941f 	cmp	w0, #0x25
ffffffff80000c5c:	54000621 	b.ne	ffffffff80000d20 <tprintf+0x170>  // b.any
ffffffff80000c60:	f9400fe0 	ldr	x0, [sp, #24]
ffffffff80000c64:	39400000 	ldrb	w0, [x0]
ffffffff80000c68:	7100941f 	cmp	w0, #0x25
ffffffff80000c6c:	54000081 	b.ne	ffffffff80000c7c <tprintf+0xcc>  // b.any
ffffffff80000c70:	f9400fe0 	ldr	x0, [sp, #24]
ffffffff80000c74:	91000400 	add	x0, x0, #0x1
ffffffff80000c78:	f9000fe0 	str	x0, [sp, #24]
ffffffff80000c7c:	d2800020 	mov	x0, #0x1                   	// #1
ffffffff80000c80:	f9004be0 	str	x0, [sp, #144]
ffffffff80000c84:	14000004 	b	ffffffff80000c94 <tprintf+0xe4>
ffffffff80000c88:	f9404be0 	ldr	x0, [sp, #144]
ffffffff80000c8c:	91000400 	add	x0, x0, #0x1
ffffffff80000c90:	f9004be0 	str	x0, [sp, #144]
ffffffff80000c94:	f9400fe1 	ldr	x1, [sp, #24]
ffffffff80000c98:	f9404be0 	ldr	x0, [sp, #144]
ffffffff80000c9c:	8b000020 	add	x0, x1, x0
ffffffff80000ca0:	39400000 	ldrb	w0, [x0]
ffffffff80000ca4:	7100001f 	cmp	w0, #0x0
ffffffff80000ca8:	540000e0 	b.eq	ffffffff80000cc4 <tprintf+0x114>  // b.none
ffffffff80000cac:	f9400fe1 	ldr	x1, [sp, #24]
ffffffff80000cb0:	f9404be0 	ldr	x0, [sp, #144]
ffffffff80000cb4:	8b000020 	add	x0, x1, x0
ffffffff80000cb8:	39400000 	ldrb	w0, [x0]
ffffffff80000cbc:	7100941f 	cmp	w0, #0x25
ffffffff80000cc0:	54fffe41 	b.ne	ffffffff80000c88 <tprintf+0xd8>  // b.any
ffffffff80000cc4:	f94047e1 	ldr	x1, [sp, #136]
ffffffff80000cc8:	f9404be0 	ldr	x0, [sp, #144]
ffffffff80000ccc:	eb00003f 	cmp	x1, x0
ffffffff80000cd0:	54000062 	b.cs	ffffffff80000cdc <tprintf+0x12c>  // b.hs, b.nlast
ffffffff80000cd4:	12800000 	mov	w0, #0xffffffff            	// #-1
ffffffff80000cd8:	140000c3 	b	ffffffff80000fe4 <tprintf+0x434>
ffffffff80000cdc:	f9404be1 	ldr	x1, [sp, #144]
ffffffff80000ce0:	f9400fe0 	ldr	x0, [sp, #24]
ffffffff80000ce4:	97ffffa6 	bl	ffffffff80000b7c <print>
ffffffff80000ce8:	7100001f 	cmp	w0, #0x0
ffffffff80000cec:	54000061 	b.ne	ffffffff80000cf8 <tprintf+0x148>  // b.any
ffffffff80000cf0:	12800000 	mov	w0, #0xffffffff            	// #-1
ffffffff80000cf4:	140000bc 	b	ffffffff80000fe4 <tprintf+0x434>
ffffffff80000cf8:	f9400fe1 	ldr	x1, [sp, #24]
ffffffff80000cfc:	f9404be0 	ldr	x0, [sp, #144]
ffffffff80000d00:	8b000020 	add	x0, x1, x0
ffffffff80000d04:	f9000fe0 	str	x0, [sp, #24]
ffffffff80000d08:	f9404be0 	ldr	x0, [sp, #144]
ffffffff80000d0c:	2a0003e1 	mov	w1, w0
ffffffff80000d10:	b9409fe0 	ldr	w0, [sp, #156]
ffffffff80000d14:	0b000020 	add	w0, w1, w0
ffffffff80000d18:	b9009fe0 	str	w0, [sp, #156]
ffffffff80000d1c:	140000ad 	b	ffffffff80000fd0 <tprintf+0x420>
ffffffff80000d20:	f9400fe0 	ldr	x0, [sp, #24]
ffffffff80000d24:	91000401 	add	x1, x0, #0x1
ffffffff80000d28:	f9000fe1 	str	x1, [sp, #24]
ffffffff80000d2c:	f90043e0 	str	x0, [sp, #128]
ffffffff80000d30:	f9400fe0 	ldr	x0, [sp, #24]
ffffffff80000d34:	39400000 	ldrb	w0, [x0]
ffffffff80000d38:	71018c1f 	cmp	w0, #0x63
ffffffff80000d3c:	54000561 	b.ne	ffffffff80000de8 <tprintf+0x238>  // b.any
ffffffff80000d40:	f9400fe0 	ldr	x0, [sp, #24]
ffffffff80000d44:	91000400 	add	x0, x0, #0x1
ffffffff80000d48:	f9000fe0 	str	x0, [sp, #24]
ffffffff80000d4c:	b9405be1 	ldr	w1, [sp, #88]
ffffffff80000d50:	f94023e0 	ldr	x0, [sp, #64]
ffffffff80000d54:	7100003f 	cmp	w1, #0x0
ffffffff80000d58:	540000ab 	b.lt	ffffffff80000d6c <tprintf+0x1bc>  // b.tstop
ffffffff80000d5c:	91002c01 	add	x1, x0, #0xb
ffffffff80000d60:	927df021 	and	x1, x1, #0xfffffffffffffff8
ffffffff80000d64:	f90023e1 	str	x1, [sp, #64]
ffffffff80000d68:	1400000d 	b	ffffffff80000d9c <tprintf+0x1ec>
ffffffff80000d6c:	11002022 	add	w2, w1, #0x8
ffffffff80000d70:	b9005be2 	str	w2, [sp, #88]
ffffffff80000d74:	b9405be2 	ldr	w2, [sp, #88]
ffffffff80000d78:	7100005f 	cmp	w2, #0x0
ffffffff80000d7c:	540000ad 	b.le	ffffffff80000d90 <tprintf+0x1e0>
ffffffff80000d80:	91002c01 	add	x1, x0, #0xb
ffffffff80000d84:	927df021 	and	x1, x1, #0xfffffffffffffff8
ffffffff80000d88:	f90023e1 	str	x1, [sp, #64]
ffffffff80000d8c:	14000004 	b	ffffffff80000d9c <tprintf+0x1ec>
ffffffff80000d90:	f94027e2 	ldr	x2, [sp, #72]
ffffffff80000d94:	93407c20 	sxtw	x0, w1
ffffffff80000d98:	8b000040 	add	x0, x2, x0
ffffffff80000d9c:	b9400000 	ldr	w0, [x0]
ffffffff80000da0:	12001c00 	and	w0, w0, #0xff
ffffffff80000da4:	3900ffe0 	strb	w0, [sp, #63]
ffffffff80000da8:	f94047e0 	ldr	x0, [sp, #136]
ffffffff80000dac:	f100001f 	cmp	x0, #0x0
ffffffff80000db0:	54000061 	b.ne	ffffffff80000dbc <tprintf+0x20c>  // b.any
ffffffff80000db4:	12800000 	mov	w0, #0xffffffff            	// #-1
ffffffff80000db8:	1400008b 	b	ffffffff80000fe4 <tprintf+0x434>
ffffffff80000dbc:	9100ffe0 	add	x0, sp, #0x3f
ffffffff80000dc0:	d2800021 	mov	x1, #0x1                   	// #1
ffffffff80000dc4:	97ffff6e 	bl	ffffffff80000b7c <print>
ffffffff80000dc8:	7100001f 	cmp	w0, #0x0
ffffffff80000dcc:	54000061 	b.ne	ffffffff80000dd8 <tprintf+0x228>  // b.any
ffffffff80000dd0:	12800000 	mov	w0, #0xffffffff            	// #-1
ffffffff80000dd4:	14000084 	b	ffffffff80000fe4 <tprintf+0x434>
ffffffff80000dd8:	b9409fe0 	ldr	w0, [sp, #156]
ffffffff80000ddc:	11000400 	add	w0, w0, #0x1
ffffffff80000de0:	b9009fe0 	str	w0, [sp, #156]
ffffffff80000de4:	1400007b 	b	ffffffff80000fd0 <tprintf+0x420>
ffffffff80000de8:	f9400fe0 	ldr	x0, [sp, #24]
ffffffff80000dec:	39400000 	ldrb	w0, [x0]
ffffffff80000df0:	7101cc1f 	cmp	w0, #0x73
ffffffff80000df4:	54000601 	b.ne	ffffffff80000eb4 <tprintf+0x304>  // b.any
ffffffff80000df8:	f9400fe0 	ldr	x0, [sp, #24]
ffffffff80000dfc:	91000400 	add	x0, x0, #0x1
ffffffff80000e00:	f9000fe0 	str	x0, [sp, #24]
ffffffff80000e04:	b9405be1 	ldr	w1, [sp, #88]
ffffffff80000e08:	f94023e0 	ldr	x0, [sp, #64]
ffffffff80000e0c:	7100003f 	cmp	w1, #0x0
ffffffff80000e10:	540000ab 	b.lt	ffffffff80000e24 <tprintf+0x274>  // b.tstop
ffffffff80000e14:	91003c01 	add	x1, x0, #0xf
ffffffff80000e18:	927df021 	and	x1, x1, #0xfffffffffffffff8
ffffffff80000e1c:	f90023e1 	str	x1, [sp, #64]
ffffffff80000e20:	1400000d 	b	ffffffff80000e54 <tprintf+0x2a4>
ffffffff80000e24:	11002022 	add	w2, w1, #0x8
ffffffff80000e28:	b9005be2 	str	w2, [sp, #88]
ffffffff80000e2c:	b9405be2 	ldr	w2, [sp, #88]
ffffffff80000e30:	7100005f 	cmp	w2, #0x0
ffffffff80000e34:	540000ad 	b.le	ffffffff80000e48 <tprintf+0x298>
ffffffff80000e38:	91003c01 	add	x1, x0, #0xf
ffffffff80000e3c:	927df021 	and	x1, x1, #0xfffffffffffffff8
ffffffff80000e40:	f90023e1 	str	x1, [sp, #64]
ffffffff80000e44:	14000004 	b	ffffffff80000e54 <tprintf+0x2a4>
ffffffff80000e48:	f94027e2 	ldr	x2, [sp, #72]
ffffffff80000e4c:	93407c20 	sxtw	x0, w1
ffffffff80000e50:	8b000040 	add	x0, x2, x0
ffffffff80000e54:	f9400000 	ldr	x0, [x0]
ffffffff80000e58:	f90037e0 	str	x0, [sp, #104]
ffffffff80000e5c:	f94037e0 	ldr	x0, [sp, #104]
ffffffff80000e60:	97fffece 	bl	ffffffff80000998 <strlen>
ffffffff80000e64:	f90033e0 	str	x0, [sp, #96]
ffffffff80000e68:	f94047e1 	ldr	x1, [sp, #136]
ffffffff80000e6c:	f94033e0 	ldr	x0, [sp, #96]
ffffffff80000e70:	eb00003f 	cmp	x1, x0
ffffffff80000e74:	54000062 	b.cs	ffffffff80000e80 <tprintf+0x2d0>  // b.hs, b.nlast
ffffffff80000e78:	12800000 	mov	w0, #0xffffffff            	// #-1
ffffffff80000e7c:	1400005a 	b	ffffffff80000fe4 <tprintf+0x434>
ffffffff80000e80:	f94033e1 	ldr	x1, [sp, #96]
ffffffff80000e84:	f94037e0 	ldr	x0, [sp, #104]
ffffffff80000e88:	97ffff3d 	bl	ffffffff80000b7c <print>
ffffffff80000e8c:	7100001f 	cmp	w0, #0x0
ffffffff80000e90:	54000061 	b.ne	ffffffff80000e9c <tprintf+0x2ec>  // b.any
ffffffff80000e94:	12800000 	mov	w0, #0xffffffff            	// #-1
ffffffff80000e98:	14000053 	b	ffffffff80000fe4 <tprintf+0x434>
ffffffff80000e9c:	f94033e0 	ldr	x0, [sp, #96]
ffffffff80000ea0:	2a0003e1 	mov	w1, w0
ffffffff80000ea4:	b9409fe0 	ldr	w0, [sp, #156]
ffffffff80000ea8:	0b000020 	add	w0, w1, w0
ffffffff80000eac:	b9009fe0 	str	w0, [sp, #156]
ffffffff80000eb0:	14000048 	b	ffffffff80000fd0 <tprintf+0x420>
ffffffff80000eb4:	f9400fe0 	ldr	x0, [sp, #24]
ffffffff80000eb8:	39400000 	ldrb	w0, [x0]
ffffffff80000ebc:	7101e01f 	cmp	w0, #0x78
ffffffff80000ec0:	54000521 	b.ne	ffffffff80000f64 <tprintf+0x3b4>  // b.any
ffffffff80000ec4:	f9400fe0 	ldr	x0, [sp, #24]
ffffffff80000ec8:	91000400 	add	x0, x0, #0x1
ffffffff80000ecc:	f9000fe0 	str	x0, [sp, #24]
ffffffff80000ed0:	b9405be1 	ldr	w1, [sp, #88]
ffffffff80000ed4:	f94023e0 	ldr	x0, [sp, #64]
ffffffff80000ed8:	7100003f 	cmp	w1, #0x0
ffffffff80000edc:	540000ab 	b.lt	ffffffff80000ef0 <tprintf+0x340>  // b.tstop
ffffffff80000ee0:	91003c01 	add	x1, x0, #0xf
ffffffff80000ee4:	927df021 	and	x1, x1, #0xfffffffffffffff8
ffffffff80000ee8:	f90023e1 	str	x1, [sp, #64]
ffffffff80000eec:	1400000d 	b	ffffffff80000f20 <tprintf+0x370>
ffffffff80000ef0:	11002022 	add	w2, w1, #0x8
ffffffff80000ef4:	b9005be2 	str	w2, [sp, #88]
ffffffff80000ef8:	b9405be2 	ldr	w2, [sp, #88]
ffffffff80000efc:	7100005f 	cmp	w2, #0x0
ffffffff80000f00:	540000ad 	b.le	ffffffff80000f14 <tprintf+0x364>
ffffffff80000f04:	91003c01 	add	x1, x0, #0xf
ffffffff80000f08:	927df021 	and	x1, x1, #0xfffffffffffffff8
ffffffff80000f0c:	f90023e1 	str	x1, [sp, #64]
ffffffff80000f10:	14000004 	b	ffffffff80000f20 <tprintf+0x370>
ffffffff80000f14:	f94027e2 	ldr	x2, [sp, #72]
ffffffff80000f18:	93407c20 	sxtw	x0, w1
ffffffff80000f1c:	8b000040 	add	x0, x2, x0
ffffffff80000f20:	f9400000 	ldr	x0, [x0]
ffffffff80000f24:	b90077e0 	str	w0, [sp, #116]
ffffffff80000f28:	b94077e0 	ldr	w0, [sp, #116]
ffffffff80000f2c:	9100a3e1 	add	x1, sp, #0x28
ffffffff80000f30:	97fffeaa 	bl	ffffffff800009d8 <int_to_hex>
ffffffff80000f34:	9100a3e0 	add	x0, sp, #0x28
ffffffff80000f38:	97fffe98 	bl	ffffffff80000998 <strlen>
ffffffff80000f3c:	aa0003e1 	mov	x1, x0
ffffffff80000f40:	9100a3e0 	add	x0, sp, #0x28
ffffffff80000f44:	97ffff0e 	bl	ffffffff80000b7c <print>
ffffffff80000f48:	9100a3e0 	add	x0, sp, #0x28
ffffffff80000f4c:	97fffe93 	bl	ffffffff80000998 <strlen>
ffffffff80000f50:	2a0003e1 	mov	w1, w0
ffffffff80000f54:	b9409fe0 	ldr	w0, [sp, #156]
ffffffff80000f58:	0b000020 	add	w0, w1, w0
ffffffff80000f5c:	b9009fe0 	str	w0, [sp, #156]
ffffffff80000f60:	1400001c 	b	ffffffff80000fd0 <tprintf+0x420>
ffffffff80000f64:	f94043e0 	ldr	x0, [sp, #128]
ffffffff80000f68:	f9000fe0 	str	x0, [sp, #24]
ffffffff80000f6c:	f9400fe0 	ldr	x0, [sp, #24]
ffffffff80000f70:	97fffe8a 	bl	ffffffff80000998 <strlen>
ffffffff80000f74:	f9003fe0 	str	x0, [sp, #120]
ffffffff80000f78:	f94047e1 	ldr	x1, [sp, #136]
ffffffff80000f7c:	f9403fe0 	ldr	x0, [sp, #120]
ffffffff80000f80:	eb00003f 	cmp	x1, x0
ffffffff80000f84:	54000062 	b.cs	ffffffff80000f90 <tprintf+0x3e0>  // b.hs, b.nlast
ffffffff80000f88:	12800000 	mov	w0, #0xffffffff            	// #-1
ffffffff80000f8c:	14000016 	b	ffffffff80000fe4 <tprintf+0x434>
ffffffff80000f90:	f9403fe1 	ldr	x1, [sp, #120]
ffffffff80000f94:	f9400fe0 	ldr	x0, [sp, #24]
ffffffff80000f98:	97fffef9 	bl	ffffffff80000b7c <print>
ffffffff80000f9c:	7100001f 	cmp	w0, #0x0
ffffffff80000fa0:	54000061 	b.ne	ffffffff80000fac <tprintf+0x3fc>  // b.any
ffffffff80000fa4:	12800000 	mov	w0, #0xffffffff            	// #-1
ffffffff80000fa8:	1400000f 	b	ffffffff80000fe4 <tprintf+0x434>
ffffffff80000fac:	f9403fe0 	ldr	x0, [sp, #120]
ffffffff80000fb0:	2a0003e1 	mov	w1, w0
ffffffff80000fb4:	b9409fe0 	ldr	w0, [sp, #156]
ffffffff80000fb8:	0b000020 	add	w0, w1, w0
ffffffff80000fbc:	b9009fe0 	str	w0, [sp, #156]
ffffffff80000fc0:	f9400fe1 	ldr	x1, [sp, #24]
ffffffff80000fc4:	f9403fe0 	ldr	x0, [sp, #120]
ffffffff80000fc8:	8b000020 	add	x0, x1, x0
ffffffff80000fcc:	f9000fe0 	str	x0, [sp, #24]
ffffffff80000fd0:	f9400fe0 	ldr	x0, [sp, #24]
ffffffff80000fd4:	39400000 	ldrb	w0, [x0]
ffffffff80000fd8:	7100001f 	cmp	w0, #0x0
ffffffff80000fdc:	54ffe261 	b.ne	ffffffff80000c28 <tprintf+0x78>  // b.any
ffffffff80000fe0:	b9409fe0 	ldr	w0, [sp, #156]
ffffffff80000fe4:	a8d67bfd 	ldp	x29, x30, [sp], #352
ffffffff80000fe8:	d65f03c0 	ret

ffffffff80000fec <clear>:
ffffffff80000fec:	a9bf7bfd 	stp	x29, x30, [sp, #-16]!
ffffffff80000ff0:	910003fd 	mov	x29, sp
ffffffff80000ff4:	f0000140 	adrp	x0, ffffffff8002b000 <combining.0+0xf6f0>
ffffffff80000ff8:	913e6000 	add	x0, x0, #0xf98
ffffffff80000ffc:	f9400000 	ldr	x0, [x0]
ffffffff80001000:	f9407c02 	ldr	x2, [x0, #248]
ffffffff80001004:	d0000140 	adrp	x0, ffffffff8002b000 <combining.0+0xf6f0>
ffffffff80001008:	913e6000 	add	x0, x0, #0xf98
ffffffff8000100c:	f9400000 	ldr	x0, [x0]
ffffffff80001010:	52800001 	mov	w1, #0x0                   	// #0
ffffffff80001014:	d63f0040 	blr	x2
ffffffff80001018:	d503201f 	nop
ffffffff8000101c:	a8c17bfd 	ldp	x29, x30, [sp], #16
ffffffff80001020:	d65f03c0 	ret

ffffffff80001024 <init_pmm>:
ffffffff80001024:	a9bc7bfd 	stp	x29, x30, [sp, #-64]!
ffffffff80001028:	910003fd 	mov	x29, sp
ffffffff8000102c:	d0000140 	adrp	x0, ffffffff8002b000 <combining.0+0xf6f0>
ffffffff80001030:	913e8000 	add	x0, x0, #0xfa0
ffffffff80001034:	39400000 	ldrb	w0, [x0]
ffffffff80001038:	9400016d 	bl	ffffffff800015ec <is_locked>
ffffffff8000103c:	12001c00 	and	w0, w0, #0xff
ffffffff80001040:	12000000 	and	w0, w0, #0x1
ffffffff80001044:	7100001f 	cmp	w0, #0x0
ffffffff80001048:	54000121 	b.ne	ffffffff8000106c <init_pmm+0x48>  // b.any
ffffffff8000104c:	d0000140 	adrp	x0, ffffffff8002b000 <combining.0+0xf6f0>
ffffffff80001050:	913ea000 	add	x0, x0, #0xfa8
ffffffff80001054:	39400000 	ldrb	w0, [x0]
ffffffff80001058:	94000165 	bl	ffffffff800015ec <is_locked>
ffffffff8000105c:	12001c00 	and	w0, w0, #0xff
ffffffff80001060:	12000000 	and	w0, w0, #0x1
ffffffff80001064:	7100001f 	cmp	w0, #0x0
ffffffff80001068:	54000060 	b.eq	ffffffff80001074 <init_pmm+0x50>  // b.none
ffffffff8000106c:	12800000 	mov	w0, #0xffffffff            	// #-1
ffffffff80001070:	14000074 	b	ffffffff80001240 <init_pmm+0x21c>
ffffffff80001074:	d0000140 	adrp	x0, ffffffff8002b000 <combining.0+0xf6f0>
ffffffff80001078:	913ea000 	add	x0, x0, #0xfa8
ffffffff8000107c:	39400000 	ldrb	w0, [x0]
ffffffff80001080:	94000144 	bl	ffffffff80001590 <lock>
ffffffff80001084:	d0000140 	adrp	x0, ffffffff8002b000 <combining.0+0xf6f0>
ffffffff80001088:	913e8000 	add	x0, x0, #0xfa0
ffffffff8000108c:	39400000 	ldrb	w0, [x0]
ffffffff80001090:	94000140 	bl	ffffffff80001590 <lock>
ffffffff80001094:	f9001fff 	str	xzr, [sp, #56]
ffffffff80001098:	1400005e 	b	ffffffff80001210 <init_pmm+0x1ec>
ffffffff8000109c:	d0000140 	adrp	x0, ffffffff8002b000 <combining.0+0xf6f0>
ffffffff800010a0:	913cc000 	add	x0, x0, #0xf30
ffffffff800010a4:	f9401400 	ldr	x0, [x0, #40]
ffffffff800010a8:	f9400801 	ldr	x1, [x0, #16]
ffffffff800010ac:	f9401fe0 	ldr	x0, [sp, #56]
ffffffff800010b0:	d37df000 	lsl	x0, x0, #3
ffffffff800010b4:	8b000020 	add	x0, x1, x0
ffffffff800010b8:	f9400000 	ldr	x0, [x0]
ffffffff800010bc:	f90017e0 	str	x0, [sp, #40]
ffffffff800010c0:	f94017e0 	ldr	x0, [sp, #40]
ffffffff800010c4:	f9400800 	ldr	x0, [x0, #16]
ffffffff800010c8:	f100001f 	cmp	x0, #0x0
ffffffff800010cc:	540009a1 	b.ne	ffffffff80001200 <init_pmm+0x1dc>  // b.any
ffffffff800010d0:	f94017e0 	ldr	x0, [sp, #40]
ffffffff800010d4:	f9400000 	ldr	x0, [x0]
ffffffff800010d8:	f9001be0 	str	x0, [sp, #48]
ffffffff800010dc:	f9401be0 	ldr	x0, [sp, #48]
ffffffff800010e0:	f13ffc1f 	cmp	x0, #0xfff
ffffffff800010e4:	54000068 	b.hi	ffffffff800010f0 <init_pmm+0xcc>  // b.pmore
ffffffff800010e8:	d2820000 	mov	x0, #0x1000                	// #4096
ffffffff800010ec:	f9001be0 	str	x0, [sp, #48]
ffffffff800010f0:	f9401be0 	ldr	x0, [sp, #48]
ffffffff800010f4:	92402c00 	and	x0, x0, #0xfff
ffffffff800010f8:	f100001f 	cmp	x0, #0x0
ffffffff800010fc:	540000a0 	b.eq	ffffffff80001110 <init_pmm+0xec>  // b.none
ffffffff80001100:	f9401be0 	ldr	x0, [sp, #48]
ffffffff80001104:	913ffc00 	add	x0, x0, #0xfff
ffffffff80001108:	92402c00 	and	x0, x0, #0xfff
ffffffff8000110c:	f9001be0 	str	x0, [sp, #48]
ffffffff80001110:	f94017e0 	ldr	x0, [sp, #40]
ffffffff80001114:	f9400400 	ldr	x0, [x0, #8]
ffffffff80001118:	f90013e0 	str	x0, [sp, #32]
ffffffff8000111c:	d0000140 	adrp	x0, ffffffff8002b000 <combining.0+0xf6f0>
ffffffff80001120:	913ec000 	add	x0, x0, #0xfb0
ffffffff80001124:	f9400000 	ldr	x0, [x0]
ffffffff80001128:	91000401 	add	x1, x0, #0x1
ffffffff8000112c:	d0000140 	adrp	x0, ffffffff8002b000 <combining.0+0xf6f0>
ffffffff80001130:	913ec000 	add	x0, x0, #0xfb0
ffffffff80001134:	f9000001 	str	x1, [x0]
ffffffff80001138:	d0000140 	adrp	x0, ffffffff8002b000 <combining.0+0xf6f0>
ffffffff8000113c:	913d8000 	add	x0, x0, #0xf60
ffffffff80001140:	f9401400 	ldr	x0, [x0, #40]
ffffffff80001144:	f9400401 	ldr	x1, [x0, #8]
ffffffff80001148:	f9401be0 	ldr	x0, [sp, #48]
ffffffff8000114c:	8b000020 	add	x0, x1, x0
ffffffff80001150:	f9000fe0 	str	x0, [sp, #24]
ffffffff80001154:	f9401be0 	ldr	x0, [sp, #48]
ffffffff80001158:	f9000be0 	str	x0, [sp, #16]
ffffffff8000115c:	d0000140 	adrp	x0, ffffffff8002b000 <combining.0+0xf6f0>
ffffffff80001160:	913f0000 	add	x0, x0, #0xfc0
ffffffff80001164:	f9400000 	ldr	x0, [x0]
ffffffff80001168:	f100001f 	cmp	x0, #0x0
ffffffff8000116c:	54000180 	b.eq	ffffffff8000119c <init_pmm+0x178>  // b.none
ffffffff80001170:	d0000140 	adrp	x0, ffffffff8002b000 <combining.0+0xf6f0>
ffffffff80001174:	913d8000 	add	x0, x0, #0xf60
ffffffff80001178:	f9401400 	ldr	x0, [x0, #40]
ffffffff8000117c:	f9400400 	ldr	x0, [x0, #8]
ffffffff80001180:	d0000141 	adrp	x1, ffffffff8002b000 <combining.0+0xf6f0>
ffffffff80001184:	913f0021 	add	x1, x1, #0xfc0
ffffffff80001188:	f9400021 	ldr	x1, [x1]
ffffffff8000118c:	8b010000 	add	x0, x0, x1
ffffffff80001190:	aa0003e1 	mov	x1, x0
ffffffff80001194:	f9400be0 	ldr	x0, [sp, #16]
ffffffff80001198:	f9000020 	str	x0, [x1]
ffffffff8000119c:	d0000140 	adrp	x0, ffffffff8002b000 <combining.0+0xf6f0>
ffffffff800011a0:	913ee000 	add	x0, x0, #0xfb8
ffffffff800011a4:	f9400000 	ldr	x0, [x0]
ffffffff800011a8:	f100001f 	cmp	x0, #0x0
ffffffff800011ac:	540000a1 	b.ne	ffffffff800011c0 <init_pmm+0x19c>  // b.any
ffffffff800011b0:	d0000140 	adrp	x0, ffffffff8002b000 <combining.0+0xf6f0>
ffffffff800011b4:	913ee000 	add	x0, x0, #0xfb8
ffffffff800011b8:	f9400be1 	ldr	x1, [sp, #16]
ffffffff800011bc:	f9000001 	str	x1, [x0]
ffffffff800011c0:	d0000140 	adrp	x0, ffffffff8002b000 <combining.0+0xf6f0>
ffffffff800011c4:	913f0000 	add	x0, x0, #0xfc0
ffffffff800011c8:	f9400001 	ldr	x1, [x0]
ffffffff800011cc:	f9400fe0 	ldr	x0, [sp, #24]
ffffffff800011d0:	f9000401 	str	x1, [x0, #8]
ffffffff800011d4:	f9400fe0 	ldr	x0, [sp, #24]
ffffffff800011d8:	f900001f 	str	xzr, [x0]
ffffffff800011dc:	f94013e0 	ldr	x0, [sp, #32]
ffffffff800011e0:	d34cfc01 	lsr	x1, x0, #12
ffffffff800011e4:	f9400fe0 	ldr	x0, [sp, #24]
ffffffff800011e8:	f9000801 	str	x1, [x0, #16]
ffffffff800011ec:	d0000140 	adrp	x0, ffffffff8002b000 <combining.0+0xf6f0>
ffffffff800011f0:	913f0000 	add	x0, x0, #0xfc0
ffffffff800011f4:	f9400be1 	ldr	x1, [sp, #16]
ffffffff800011f8:	f9000001 	str	x1, [x0]
ffffffff800011fc:	14000002 	b	ffffffff80001204 <init_pmm+0x1e0>
ffffffff80001200:	d503201f 	nop
ffffffff80001204:	f9401fe0 	ldr	x0, [sp, #56]
ffffffff80001208:	91000400 	add	x0, x0, #0x1
ffffffff8000120c:	f9001fe0 	str	x0, [sp, #56]
ffffffff80001210:	d0000140 	adrp	x0, ffffffff8002b000 <combining.0+0xf6f0>
ffffffff80001214:	913cc000 	add	x0, x0, #0xf30
ffffffff80001218:	f9401400 	ldr	x0, [x0, #40]
ffffffff8000121c:	f9400400 	ldr	x0, [x0, #8]
ffffffff80001220:	f9401fe1 	ldr	x1, [sp, #56]
ffffffff80001224:	eb00003f 	cmp	x1, x0
ffffffff80001228:	54fff3a3 	b.cc	ffffffff8000109c <init_pmm+0x78>  // b.lo, b.ul, b.last
ffffffff8000122c:	d0000140 	adrp	x0, ffffffff8002b000 <combining.0+0xf6f0>
ffffffff80001230:	913e8000 	add	x0, x0, #0xfa0
ffffffff80001234:	39400000 	ldrb	w0, [x0]
ffffffff80001238:	940000e3 	bl	ffffffff800015c4 <unlock>
ffffffff8000123c:	52800000 	mov	w0, #0x0                   	// #0
ffffffff80001240:	a8c47bfd 	ldp	x29, x30, [sp], #64
ffffffff80001244:	d65f03c0 	ret

ffffffff80001248 <kmalloc_pages>:
ffffffff80001248:	a9bb7bfd 	stp	x29, x30, [sp, #-80]!
ffffffff8000124c:	910003fd 	mov	x29, sp
ffffffff80001250:	f9000fe0 	str	x0, [sp, #24]
ffffffff80001254:	d0000140 	adrp	x0, ffffffff8002b000 <combining.0+0xf6f0>
ffffffff80001258:	913ec000 	add	x0, x0, #0xfb0
ffffffff8000125c:	f9400000 	ldr	x0, [x0]
ffffffff80001260:	f100001f 	cmp	x0, #0x0
ffffffff80001264:	54000061 	b.ne	ffffffff80001270 <kmalloc_pages+0x28>  // b.any
ffffffff80001268:	92800160 	mov	x0, #0xfffffffffffffff4    	// #-12
ffffffff8000126c:	14000078 	b	ffffffff8000144c <kmalloc_pages+0x204>
ffffffff80001270:	d0000140 	adrp	x0, ffffffff8002b000 <combining.0+0xf6f0>
ffffffff80001274:	913e8000 	add	x0, x0, #0xfa0
ffffffff80001278:	39400000 	ldrb	w0, [x0]
ffffffff8000127c:	940000c5 	bl	ffffffff80001590 <lock>
ffffffff80001280:	d0000140 	adrp	x0, ffffffff8002b000 <combining.0+0xf6f0>
ffffffff80001284:	913d8000 	add	x0, x0, #0xf60
ffffffff80001288:	f9401400 	ldr	x0, [x0, #40]
ffffffff8000128c:	f9400400 	ldr	x0, [x0, #8]
ffffffff80001290:	d0000141 	adrp	x1, ffffffff8002b000 <combining.0+0xf6f0>
ffffffff80001294:	913ee021 	add	x1, x1, #0xfb8
ffffffff80001298:	f9400021 	ldr	x1, [x1]
ffffffff8000129c:	8b010000 	add	x0, x0, x1
ffffffff800012a0:	f90027e0 	str	x0, [sp, #72]
ffffffff800012a4:	d0000140 	adrp	x0, ffffffff8002b000 <combining.0+0xf6f0>
ffffffff800012a8:	913ee000 	add	x0, x0, #0xfb8
ffffffff800012ac:	f9400000 	ldr	x0, [x0]
ffffffff800012b0:	f90023e0 	str	x0, [sp, #64]
ffffffff800012b4:	d0000140 	adrp	x0, ffffffff8002b000 <combining.0+0xf6f0>
ffffffff800012b8:	913ee000 	add	x0, x0, #0xfb8
ffffffff800012bc:	f9400000 	ldr	x0, [x0]
ffffffff800012c0:	f9001fe0 	str	x0, [sp, #56]
ffffffff800012c4:	14000012 	b	ffffffff8000130c <kmalloc_pages+0xc4>
ffffffff800012c8:	f94027e0 	ldr	x0, [sp, #72]
ffffffff800012cc:	f9400000 	ldr	x0, [x0]
ffffffff800012d0:	f90027e0 	str	x0, [sp, #72]
ffffffff800012d4:	f94027e0 	ldr	x0, [sp, #72]
ffffffff800012d8:	f100001f 	cmp	x0, #0x0
ffffffff800012dc:	54000061 	b.ne	ffffffff800012e8 <kmalloc_pages+0xa0>  // b.any
ffffffff800012e0:	92800160 	mov	x0, #0xfffffffffffffff4    	// #-12
ffffffff800012e4:	1400005a 	b	ffffffff8000144c <kmalloc_pages+0x204>
ffffffff800012e8:	f94027e0 	ldr	x0, [sp, #72]
ffffffff800012ec:	f90023e0 	str	x0, [sp, #64]
ffffffff800012f0:	d0000140 	adrp	x0, ffffffff8002b000 <combining.0+0xf6f0>
ffffffff800012f4:	913d8000 	add	x0, x0, #0xf60
ffffffff800012f8:	f9401400 	ldr	x0, [x0, #40]
ffffffff800012fc:	f9400401 	ldr	x1, [x0, #8]
ffffffff80001300:	f94027e0 	ldr	x0, [sp, #72]
ffffffff80001304:	8b000020 	add	x0, x1, x0
ffffffff80001308:	f90027e0 	str	x0, [sp, #72]
ffffffff8000130c:	f94027e0 	ldr	x0, [sp, #72]
ffffffff80001310:	f9400800 	ldr	x0, [x0, #16]
ffffffff80001314:	f9400fe1 	ldr	x1, [sp, #24]
ffffffff80001318:	eb00003f 	cmp	x1, x0
ffffffff8000131c:	54fffd68 	b.hi	ffffffff800012c8 <kmalloc_pages+0x80>  // b.pmore
ffffffff80001320:	f94027e0 	ldr	x0, [sp, #72]
ffffffff80001324:	f9400801 	ldr	x1, [x0, #16]
ffffffff80001328:	f9400fe0 	ldr	x0, [sp, #24]
ffffffff8000132c:	cb000021 	sub	x1, x1, x0
ffffffff80001330:	f94027e0 	ldr	x0, [sp, #72]
ffffffff80001334:	f9000801 	str	x1, [x0, #16]
ffffffff80001338:	f94027e0 	ldr	x0, [sp, #72]
ffffffff8000133c:	f9400800 	ldr	x0, [x0, #16]
ffffffff80001340:	f100001f 	cmp	x0, #0x0
ffffffff80001344:	540006e1 	b.ne	ffffffff80001420 <kmalloc_pages+0x1d8>  // b.any
ffffffff80001348:	f94027e0 	ldr	x0, [sp, #72]
ffffffff8000134c:	f9400000 	ldr	x0, [x0]
ffffffff80001350:	f9001be0 	str	x0, [sp, #48]
ffffffff80001354:	f94027e0 	ldr	x0, [sp, #72]
ffffffff80001358:	f9400400 	ldr	x0, [x0, #8]
ffffffff8000135c:	f90017e0 	str	x0, [sp, #40]
ffffffff80001360:	f9401be0 	ldr	x0, [sp, #48]
ffffffff80001364:	f100001f 	cmp	x0, #0x0
ffffffff80001368:	54000140 	b.eq	ffffffff80001390 <kmalloc_pages+0x148>  // b.none
ffffffff8000136c:	d0000140 	adrp	x0, ffffffff8002b000 <combining.0+0xf6f0>
ffffffff80001370:	913d8000 	add	x0, x0, #0xf60
ffffffff80001374:	f9401400 	ldr	x0, [x0, #40]
ffffffff80001378:	f9400401 	ldr	x1, [x0, #8]
ffffffff8000137c:	f9401be0 	ldr	x0, [sp, #48]
ffffffff80001380:	8b000020 	add	x0, x1, x0
ffffffff80001384:	aa0003e1 	mov	x1, x0
ffffffff80001388:	f94017e0 	ldr	x0, [sp, #40]
ffffffff8000138c:	f9000420 	str	x0, [x1, #8]
ffffffff80001390:	f94017e0 	ldr	x0, [sp, #40]
ffffffff80001394:	f100001f 	cmp	x0, #0x0
ffffffff80001398:	54000140 	b.eq	ffffffff800013c0 <kmalloc_pages+0x178>  // b.none
ffffffff8000139c:	d0000140 	adrp	x0, ffffffff8002b000 <combining.0+0xf6f0>
ffffffff800013a0:	913d8000 	add	x0, x0, #0xf60
ffffffff800013a4:	f9401400 	ldr	x0, [x0, #40]
ffffffff800013a8:	f9400401 	ldr	x1, [x0, #8]
ffffffff800013ac:	f94017e0 	ldr	x0, [sp, #40]
ffffffff800013b0:	8b000020 	add	x0, x1, x0
ffffffff800013b4:	aa0003e1 	mov	x1, x0
ffffffff800013b8:	f9401be0 	ldr	x0, [sp, #48]
ffffffff800013bc:	f9000020 	str	x0, [x1]
ffffffff800013c0:	d0000140 	adrp	x0, ffffffff8002b000 <combining.0+0xf6f0>
ffffffff800013c4:	913ee000 	add	x0, x0, #0xfb8
ffffffff800013c8:	f9400000 	ldr	x0, [x0]
ffffffff800013cc:	f94023e1 	ldr	x1, [sp, #64]
ffffffff800013d0:	eb00003f 	cmp	x1, x0
ffffffff800013d4:	540000a1 	b.ne	ffffffff800013e8 <kmalloc_pages+0x1a0>  // b.any
ffffffff800013d8:	d0000140 	adrp	x0, ffffffff8002b000 <combining.0+0xf6f0>
ffffffff800013dc:	913ee000 	add	x0, x0, #0xfb8
ffffffff800013e0:	f9401be1 	ldr	x1, [sp, #48]
ffffffff800013e4:	f9000001 	str	x1, [x0]
ffffffff800013e8:	d0000140 	adrp	x0, ffffffff8002b000 <combining.0+0xf6f0>
ffffffff800013ec:	913f0000 	add	x0, x0, #0xfc0
ffffffff800013f0:	f9400000 	ldr	x0, [x0]
ffffffff800013f4:	f94023e1 	ldr	x1, [sp, #64]
ffffffff800013f8:	eb00003f 	cmp	x1, x0
ffffffff800013fc:	540000a1 	b.ne	ffffffff80001410 <kmalloc_pages+0x1c8>  // b.any
ffffffff80001400:	d0000140 	adrp	x0, ffffffff8002b000 <combining.0+0xf6f0>
ffffffff80001404:	913f0000 	add	x0, x0, #0xfc0
ffffffff80001408:	f94017e1 	ldr	x1, [sp, #40]
ffffffff8000140c:	f9000001 	str	x1, [x0]
ffffffff80001410:	f94027e0 	ldr	x0, [sp, #72]
ffffffff80001414:	f900001f 	str	xzr, [x0]
ffffffff80001418:	f94027e0 	ldr	x0, [sp, #72]
ffffffff8000141c:	f900041f 	str	xzr, [x0, #8]
ffffffff80001420:	f94027e0 	ldr	x0, [sp, #72]
ffffffff80001424:	f9400800 	ldr	x0, [x0, #16]
ffffffff80001428:	d374cc00 	lsl	x0, x0, #12
ffffffff8000142c:	f9401fe1 	ldr	x1, [sp, #56]
ffffffff80001430:	8b000020 	add	x0, x1, x0
ffffffff80001434:	f9001fe0 	str	x0, [sp, #56]
ffffffff80001438:	d0000140 	adrp	x0, ffffffff8002b000 <combining.0+0xf6f0>
ffffffff8000143c:	913e8000 	add	x0, x0, #0xfa0
ffffffff80001440:	39400000 	ldrb	w0, [x0]
ffffffff80001444:	94000060 	bl	ffffffff800015c4 <unlock>
ffffffff80001448:	f9401fe0 	ldr	x0, [sp, #56]
ffffffff8000144c:	a8c57bfd 	ldp	x29, x30, [sp], #80
ffffffff80001450:	d65f03c0 	ret

ffffffff80001454 <kfree_pages>:
ffffffff80001454:	a9bd7bfd 	stp	x29, x30, [sp, #-48]!
ffffffff80001458:	910003fd 	mov	x29, sp
ffffffff8000145c:	f9000fe0 	str	x0, [sp, #24]
ffffffff80001460:	f9000be1 	str	x1, [sp, #16]
ffffffff80001464:	d0000140 	adrp	x0, ffffffff8002b000 <combining.0+0xf6f0>
ffffffff80001468:	913e8000 	add	x0, x0, #0xfa0
ffffffff8000146c:	39400000 	ldrb	w0, [x0]
ffffffff80001470:	94000048 	bl	ffffffff80001590 <lock>
ffffffff80001474:	d0000140 	adrp	x0, ffffffff8002b000 <combining.0+0xf6f0>
ffffffff80001478:	913d8000 	add	x0, x0, #0xf60
ffffffff8000147c:	f9401400 	ldr	x0, [x0, #40]
ffffffff80001480:	f9400401 	ldr	x1, [x0, #8]
ffffffff80001484:	f9400fe0 	ldr	x0, [sp, #24]
ffffffff80001488:	8b000020 	add	x0, x1, x0
ffffffff8000148c:	f90017e0 	str	x0, [sp, #40]
ffffffff80001490:	f9400fe0 	ldr	x0, [sp, #24]
ffffffff80001494:	f90013e0 	str	x0, [sp, #32]
ffffffff80001498:	d0000140 	adrp	x0, ffffffff8002b000 <combining.0+0xf6f0>
ffffffff8000149c:	913f0000 	add	x0, x0, #0xfc0
ffffffff800014a0:	f9400000 	ldr	x0, [x0]
ffffffff800014a4:	f100001f 	cmp	x0, #0x0
ffffffff800014a8:	54000180 	b.eq	ffffffff800014d8 <kfree_pages+0x84>  // b.none
ffffffff800014ac:	d0000140 	adrp	x0, ffffffff8002b000 <combining.0+0xf6f0>
ffffffff800014b0:	913d8000 	add	x0, x0, #0xf60
ffffffff800014b4:	f9401400 	ldr	x0, [x0, #40]
ffffffff800014b8:	f9400400 	ldr	x0, [x0, #8]
ffffffff800014bc:	d0000141 	adrp	x1, ffffffff8002b000 <combining.0+0xf6f0>
ffffffff800014c0:	913f0021 	add	x1, x1, #0xfc0
ffffffff800014c4:	f9400021 	ldr	x1, [x1]
ffffffff800014c8:	8b010000 	add	x0, x0, x1
ffffffff800014cc:	aa0003e1 	mov	x1, x0
ffffffff800014d0:	f94013e0 	ldr	x0, [sp, #32]
ffffffff800014d4:	f9000020 	str	x0, [x1]
ffffffff800014d8:	d0000140 	adrp	x0, ffffffff8002b000 <combining.0+0xf6f0>
ffffffff800014dc:	913ee000 	add	x0, x0, #0xfb8
ffffffff800014e0:	f9400000 	ldr	x0, [x0]
ffffffff800014e4:	f100001f 	cmp	x0, #0x0
ffffffff800014e8:	540000a1 	b.ne	ffffffff800014fc <kfree_pages+0xa8>  // b.any
ffffffff800014ec:	d0000140 	adrp	x0, ffffffff8002b000 <combining.0+0xf6f0>
ffffffff800014f0:	913ee000 	add	x0, x0, #0xfb8
ffffffff800014f4:	f94013e1 	ldr	x1, [sp, #32]
ffffffff800014f8:	f9000001 	str	x1, [x0]
ffffffff800014fc:	f94017e0 	ldr	x0, [sp, #40]
ffffffff80001500:	f900001f 	str	xzr, [x0]
ffffffff80001504:	d0000140 	adrp	x0, ffffffff8002b000 <combining.0+0xf6f0>
ffffffff80001508:	913f0000 	add	x0, x0, #0xfc0
ffffffff8000150c:	f9400001 	ldr	x1, [x0]
ffffffff80001510:	f94017e0 	ldr	x0, [sp, #40]
ffffffff80001514:	f9000401 	str	x1, [x0, #8]
ffffffff80001518:	d0000140 	adrp	x0, ffffffff8002b000 <combining.0+0xf6f0>
ffffffff8000151c:	913f0000 	add	x0, x0, #0xfc0
ffffffff80001520:	f94013e1 	ldr	x1, [sp, #32]
ffffffff80001524:	f9000001 	str	x1, [x0]
ffffffff80001528:	f94017e0 	ldr	x0, [sp, #40]
ffffffff8000152c:	f9400be1 	ldr	x1, [sp, #16]
ffffffff80001530:	f9000801 	str	x1, [x0, #16]
ffffffff80001534:	d0000140 	adrp	x0, ffffffff8002b000 <combining.0+0xf6f0>
ffffffff80001538:	913ec000 	add	x0, x0, #0xfb0
ffffffff8000153c:	f9400000 	ldr	x0, [x0]
ffffffff80001540:	91000401 	add	x1, x0, #0x1
ffffffff80001544:	d0000140 	adrp	x0, ffffffff8002b000 <combining.0+0xf6f0>
ffffffff80001548:	913ec000 	add	x0, x0, #0xfb0
ffffffff8000154c:	f9000001 	str	x1, [x0]
ffffffff80001550:	d0000140 	adrp	x0, ffffffff8002b000 <combining.0+0xf6f0>
ffffffff80001554:	913e8000 	add	x0, x0, #0xfa0
ffffffff80001558:	39400000 	ldrb	w0, [x0]
ffffffff8000155c:	9400001a 	bl	ffffffff800015c4 <unlock>
ffffffff80001560:	d503201f 	nop
ffffffff80001564:	a8c37bfd 	ldp	x29, x30, [sp], #48
ffffffff80001568:	d65f03c0 	ret

ffffffff8000156c <pmm_is_initializated>:
ffffffff8000156c:	a9bf7bfd 	stp	x29, x30, [sp, #-16]!
ffffffff80001570:	910003fd 	mov	x29, sp
ffffffff80001574:	d0000140 	adrp	x0, ffffffff8002b000 <combining.0+0xf6f0>
ffffffff80001578:	913ea000 	add	x0, x0, #0xfa8
ffffffff8000157c:	39400000 	ldrb	w0, [x0]
ffffffff80001580:	9400001b 	bl	ffffffff800015ec <is_locked>
ffffffff80001584:	12001c00 	and	w0, w0, #0xff
ffffffff80001588:	a8c17bfd 	ldp	x29, x30, [sp], #16
ffffffff8000158c:	d65f03c0 	ret

ffffffff80001590 <lock>:
ffffffff80001590:	d10043ff 	sub	sp, sp, #0x10
ffffffff80001594:	390023e0 	strb	w0, [sp, #8]
ffffffff80001598:	394023e0 	ldrb	w0, [sp, #8]
ffffffff8000159c:	52000000 	eor	w0, w0, #0x1
ffffffff800015a0:	12001c00 	and	w0, w0, #0xff
ffffffff800015a4:	12000000 	and	w0, w0, #0x1
ffffffff800015a8:	7100001f 	cmp	w0, #0x0
ffffffff800015ac:	54000060 	b.eq	ffffffff800015b8 <lock+0x28>  // b.none
ffffffff800015b0:	52800020 	mov	w0, #0x1                   	// #1
ffffffff800015b4:	390023e0 	strb	w0, [sp, #8]
ffffffff800015b8:	d503201f 	nop
ffffffff800015bc:	910043ff 	add	sp, sp, #0x10
ffffffff800015c0:	d65f03c0 	ret

ffffffff800015c4 <unlock>:
ffffffff800015c4:	d10043ff 	sub	sp, sp, #0x10
ffffffff800015c8:	390023e0 	strb	w0, [sp, #8]
ffffffff800015cc:	394023e0 	ldrb	w0, [sp, #8]
ffffffff800015d0:	12000000 	and	w0, w0, #0x1
ffffffff800015d4:	7100001f 	cmp	w0, #0x0
ffffffff800015d8:	54000040 	b.eq	ffffffff800015e0 <unlock+0x1c>  // b.none
ffffffff800015dc:	390023ff 	strb	wzr, [sp, #8]
ffffffff800015e0:	d503201f 	nop
ffffffff800015e4:	910043ff 	add	sp, sp, #0x10
ffffffff800015e8:	d65f03c0 	ret

ffffffff800015ec <is_locked>:
ffffffff800015ec:	d10043ff 	sub	sp, sp, #0x10
ffffffff800015f0:	390023e0 	strb	w0, [sp, #8]
ffffffff800015f4:	394023e0 	ldrb	w0, [sp, #8]
ffffffff800015f8:	910043ff 	add	sp, sp, #0x10
ffffffff800015fc:	d65f03c0 	ret

ffffffff80001600 <is_unlocked>:
ffffffff80001600:	d10043ff 	sub	sp, sp, #0x10
ffffffff80001604:	390023e0 	strb	w0, [sp, #8]
ffffffff80001608:	394023e0 	ldrb	w0, [sp, #8]
ffffffff8000160c:	7100001f 	cmp	w0, #0x0
ffffffff80001610:	1a9f07e0 	cset	w0, ne	// ne = any
ffffffff80001614:	12001c00 	and	w0, w0, #0xff
ffffffff80001618:	52000000 	eor	w0, w0, #0x1
ffffffff8000161c:	12001c00 	and	w0, w0, #0xff
ffffffff80001620:	12000000 	and	w0, w0, #0x1
ffffffff80001624:	12001c00 	and	w0, w0, #0xff
ffffffff80001628:	910043ff 	add	sp, sp, #0x10
ffffffff8000162c:	d65f03c0 	ret

ffffffff80001630 <vfs_init_pool>:
ffffffff80001630:	d10083ff 	sub	sp, sp, #0x20
ffffffff80001634:	f90007e0 	str	x0, [sp, #8]
ffffffff80001638:	b9001fff 	str	wzr, [sp, #28]
ffffffff8000163c:	14000007 	b	ffffffff80001658 <vfs_init_pool+0x28>
ffffffff80001640:	f94007e1 	ldr	x1, [sp, #8]
ffffffff80001644:	b9801fe0 	ldrsw	x0, [sp, #28]
ffffffff80001648:	3820683f 	strb	wzr, [x1, x0]
ffffffff8000164c:	b9401fe0 	ldr	w0, [sp, #28]
ffffffff80001650:	11000400 	add	w0, w0, #0x1
ffffffff80001654:	b9001fe0 	str	w0, [sp, #28]
ffffffff80001658:	b9401fe1 	ldr	w1, [sp, #28]
ffffffff8000165c:	529fffe0 	mov	w0, #0xffff                	// #65535
ffffffff80001660:	6b00003f 	cmp	w1, w0
ffffffff80001664:	54fffeed 	b.le	ffffffff80001640 <vfs_init_pool+0x10>
ffffffff80001668:	d503201f 	nop
ffffffff8000166c:	d503201f 	nop
ffffffff80001670:	910083ff 	add	sp, sp, #0x20
ffffffff80001674:	d65f03c0 	ret

ffffffff80001678 <vfs_allocate_id>:
ffffffff80001678:	d10083ff 	sub	sp, sp, #0x20
ffffffff8000167c:	f90007e0 	str	x0, [sp, #8]
ffffffff80001680:	b9001fff 	str	wzr, [sp, #28]
ffffffff80001684:	d503201f 	nop
ffffffff80001688:	b9401fe1 	ldr	w1, [sp, #28]
ffffffff8000168c:	529fffe0 	mov	w0, #0xffff                	// #65535
ffffffff80001690:	6b00003f 	cmp	w1, w0
ffffffff80001694:	5400006c 	b.gt	ffffffff800016a0 <vfs_allocate_id+0x28>
ffffffff80001698:	b9401fe0 	ldr	w0, [sp, #28]
ffffffff8000169c:	14000002 	b	ffffffff800016a4 <vfs_allocate_id+0x2c>
ffffffff800016a0:	12800000 	mov	w0, #0xffffffff            	// #-1
ffffffff800016a4:	910083ff 	add	sp, sp, #0x20
ffffffff800016a8:	d65f03c0 	ret

ffffffff800016ac <vfs_free_id>:
ffffffff800016ac:	d10043ff 	sub	sp, sp, #0x10
ffffffff800016b0:	f90007e0 	str	x0, [sp, #8]
ffffffff800016b4:	b90007e1 	str	w1, [sp, #4]
ffffffff800016b8:	b94007e0 	ldr	w0, [sp, #4]
ffffffff800016bc:	7100001f 	cmp	w0, #0x0
ffffffff800016c0:	5400010b 	b.lt	ffffffff800016e0 <vfs_free_id+0x34>  // b.tstop
ffffffff800016c4:	b94007e1 	ldr	w1, [sp, #4]
ffffffff800016c8:	529fffe0 	mov	w0, #0xffff                	// #65535
ffffffff800016cc:	6b00003f 	cmp	w1, w0
ffffffff800016d0:	5400008c 	b.gt	ffffffff800016e0 <vfs_free_id+0x34>
ffffffff800016d4:	f94007e1 	ldr	x1, [sp, #8]
ffffffff800016d8:	b98007e0 	ldrsw	x0, [sp, #4]
ffffffff800016dc:	3820683f 	strb	wzr, [x1, x0]
ffffffff800016e0:	d503201f 	nop
ffffffff800016e4:	910043ff 	add	sp, sp, #0x10
ffffffff800016e8:	d65f03c0 	ret

ffffffff800016ec <divide_path>:
ffffffff800016ec:	a9bd7bfd 	stp	x29, x30, [sp, #-48]!
ffffffff800016f0:	910003fd 	mov	x29, sp
ffffffff800016f4:	f9000fe0 	str	x0, [sp, #24]
ffffffff800016f8:	52800741 	mov	w1, #0x3a                  	// #58
ffffffff800016fc:	f9400fe0 	ldr	x0, [sp, #24]
ffffffff80001700:	97fffbb5 	bl	ffffffff800005d4 <strchr>
ffffffff80001704:	f90017e0 	str	x0, [sp, #40]
ffffffff80001708:	f94017e0 	ldr	x0, [sp, #40]
ffffffff8000170c:	f100001f 	cmp	x0, #0x0
ffffffff80001710:	54000160 	b.eq	ffffffff8000173c <divide_path+0x50>  // b.none
ffffffff80001714:	52800142 	mov	w2, #0xa                   	// #10
ffffffff80001718:	d2800001 	mov	x1, #0x0                   	// #0
ffffffff8000171c:	f9400fe0 	ldr	x0, [sp, #24]
ffffffff80001720:	97fffbe1 	bl	ffffffff800006a4 <strtol>
ffffffff80001724:	79004fe0 	strh	w0, [sp, #38]
ffffffff80001728:	f94017e0 	ldr	x0, [sp, #40]
ffffffff8000172c:	91000400 	add	x0, x0, #0x1
ffffffff80001730:	f9000fe0 	str	x0, [sp, #24]
ffffffff80001734:	79404fe0 	ldrh	w0, [sp, #38]
ffffffff80001738:	14000002 	b	ffffffff80001740 <divide_path+0x54>
ffffffff8000173c:	52800000 	mov	w0, #0x0                   	// #0
ffffffff80001740:	a8c37bfd 	ldp	x29, x30, [sp], #48
ffffffff80001744:	d65f03c0 	ret

ffffffff80001748 <vfs_init>:
ffffffff80001748:	a9bf7bfd 	stp	x29, x30, [sp, #-16]!
ffffffff8000174c:	910003fd 	mov	x29, sp
ffffffff80001750:	d2a00020 	mov	x0, #0x10000               	// #65536
ffffffff80001754:	94000164 	bl	ffffffff80001ce4 <kmalloc>
ffffffff80001758:	aa0003e1 	mov	x1, x0
ffffffff8000175c:	d0000140 	adrp	x0, ffffffff8002b000 <combining.0+0xf6f0>
ffffffff80001760:	913f6000 	add	x0, x0, #0xfd8
ffffffff80001764:	f9000001 	str	x1, [x0]
ffffffff80001768:	d0000140 	adrp	x0, ffffffff8002b000 <combining.0+0xf6f0>
ffffffff8000176c:	913f6000 	add	x0, x0, #0xfd8
ffffffff80001770:	f9400000 	ldr	x0, [x0]
ffffffff80001774:	97ffffaf 	bl	ffffffff80001630 <vfs_init_pool>
ffffffff80001778:	d0000140 	adrp	x0, ffffffff8002b000 <combining.0+0xf6f0>
ffffffff8000177c:	913f2000 	add	x0, x0, #0xfc8
ffffffff80001780:	f900001f 	str	xzr, [x0]
ffffffff80001784:	52800000 	mov	w0, #0x0                   	// #0
ffffffff80001788:	a8c17bfd 	ldp	x29, x30, [sp], #16
ffffffff8000178c:	d65f03c0 	ret

ffffffff80001790 <vfs_mount>:
ffffffff80001790:	a9bd7bfd 	stp	x29, x30, [sp, #-48]!
ffffffff80001794:	910003fd 	mov	x29, sp
ffffffff80001798:	f9000fe0 	str	x0, [sp, #24]
ffffffff8000179c:	f90017ff 	str	xzr, [sp, #40]
ffffffff800017a0:	d0000140 	adrp	x0, ffffffff8002b000 <combining.0+0xf6f0>
ffffffff800017a4:	913f6000 	add	x0, x0, #0xfd8
ffffffff800017a8:	f9400000 	ldr	x0, [x0]
ffffffff800017ac:	97ffffb3 	bl	ffffffff80001678 <vfs_allocate_id>
ffffffff800017b0:	12003c01 	and	w1, w0, #0xffff
ffffffff800017b4:	f9400fe0 	ldr	x0, [sp, #24]
ffffffff800017b8:	79040001 	strh	w1, [x0, #512]
ffffffff800017bc:	d0000140 	adrp	x0, ffffffff8002b000 <combining.0+0xf6f0>
ffffffff800017c0:	913f2000 	add	x0, x0, #0xfc8
ffffffff800017c4:	f9400000 	ldr	x0, [x0]
ffffffff800017c8:	f100001f 	cmp	x0, #0x0
ffffffff800017cc:	540000e1 	b.ne	ffffffff800017e8 <vfs_mount+0x58>  // b.any
ffffffff800017d0:	d0000140 	adrp	x0, ffffffff8002b000 <combining.0+0xf6f0>
ffffffff800017d4:	913f2000 	add	x0, x0, #0xfc8
ffffffff800017d8:	f9400fe1 	ldr	x1, [sp, #24]
ffffffff800017dc:	f9000001 	str	x1, [x0]
ffffffff800017e0:	52800000 	mov	w0, #0x0                   	// #0
ffffffff800017e4:	14000012 	b	ffffffff8000182c <vfs_mount+0x9c>
ffffffff800017e8:	d0000140 	adrp	x0, ffffffff8002b000 <combining.0+0xf6f0>
ffffffff800017ec:	913f2000 	add	x0, x0, #0xfc8
ffffffff800017f0:	f9400000 	ldr	x0, [x0]
ffffffff800017f4:	f9412000 	ldr	x0, [x0, #576]
ffffffff800017f8:	f90017e0 	str	x0, [sp, #40]
ffffffff800017fc:	14000004 	b	ffffffff8000180c <vfs_mount+0x7c>
ffffffff80001800:	f94017e0 	ldr	x0, [sp, #40]
ffffffff80001804:	f9412000 	ldr	x0, [x0, #576]
ffffffff80001808:	f90017e0 	str	x0, [sp, #40]
ffffffff8000180c:	f94017e0 	ldr	x0, [sp, #40]
ffffffff80001810:	f9412000 	ldr	x0, [x0, #576]
ffffffff80001814:	f100001f 	cmp	x0, #0x0
ffffffff80001818:	54ffff41 	b.ne	ffffffff80001800 <vfs_mount+0x70>  // b.any
ffffffff8000181c:	f94017e0 	ldr	x0, [sp, #40]
ffffffff80001820:	f9400fe1 	ldr	x1, [sp, #24]
ffffffff80001824:	f9012001 	str	x1, [x0, #576]
ffffffff80001828:	52800000 	mov	w0, #0x0                   	// #0
ffffffff8000182c:	a8c37bfd 	ldp	x29, x30, [sp], #48
ffffffff80001830:	d65f03c0 	ret

ffffffff80001834 <vfs_read>:
ffffffff80001834:	a9bb7bfd 	stp	x29, x30, [sp, #-80]!
ffffffff80001838:	910003fd 	mov	x29, sp
ffffffff8000183c:	f9000bf3 	str	x19, [sp, #16]
ffffffff80001840:	f9001fe0 	str	x0, [sp, #56]
ffffffff80001844:	f9001be1 	str	x1, [sp, #48]
ffffffff80001848:	f90017e2 	str	x2, [sp, #40]
ffffffff8000184c:	f90013e3 	str	x3, [sp, #32]
ffffffff80001850:	d0000140 	adrp	x0, ffffffff8002b000 <combining.0+0xf6f0>
ffffffff80001854:	913f2000 	add	x0, x0, #0xfc8
ffffffff80001858:	f9400000 	ldr	x0, [x0]
ffffffff8000185c:	f100001f 	cmp	x0, #0x0
ffffffff80001860:	54000061 	b.ne	ffffffff8000186c <vfs_read+0x38>  // b.any
ffffffff80001864:	928000a0 	mov	x0, #0xfffffffffffffffa    	// #-6
ffffffff80001868:	1400002e 	b	ffffffff80001920 <vfs_read+0xec>
ffffffff8000186c:	d0000140 	adrp	x0, ffffffff8002b000 <combining.0+0xf6f0>
ffffffff80001870:	913f2000 	add	x0, x0, #0xfc8
ffffffff80001874:	f9400000 	ldr	x0, [x0]
ffffffff80001878:	f90027e0 	str	x0, [sp, #72]
ffffffff8000187c:	f9401fe0 	ldr	x0, [sp, #56]
ffffffff80001880:	97ffff9b 	bl	ffffffff800016ec <divide_path>
ffffffff80001884:	79008fe0 	strh	w0, [sp, #70]
ffffffff80001888:	14000004 	b	ffffffff80001898 <vfs_read+0x64>
ffffffff8000188c:	f94027e0 	ldr	x0, [sp, #72]
ffffffff80001890:	f9412000 	ldr	x0, [x0, #576]
ffffffff80001894:	f90027e0 	str	x0, [sp, #72]
ffffffff80001898:	f94027e0 	ldr	x0, [sp, #72]
ffffffff8000189c:	f100001f 	cmp	x0, #0x0
ffffffff800018a0:	54000140 	b.eq	ffffffff800018c8 <vfs_read+0x94>  // b.none
ffffffff800018a4:	f94027e0 	ldr	x0, [sp, #72]
ffffffff800018a8:	79440000 	ldrh	w0, [x0, #512]
ffffffff800018ac:	79408fe1 	ldrh	w1, [sp, #70]
ffffffff800018b0:	6b00003f 	cmp	w1, w0
ffffffff800018b4:	540000a0 	b.eq	ffffffff800018c8 <vfs_read+0x94>  // b.none
ffffffff800018b8:	f94027e0 	ldr	x0, [sp, #72]
ffffffff800018bc:	f9412000 	ldr	x0, [x0, #576]
ffffffff800018c0:	f100001f 	cmp	x0, #0x0
ffffffff800018c4:	54fffe41 	b.ne	ffffffff8000188c <vfs_read+0x58>  // b.any
ffffffff800018c8:	f94027e0 	ldr	x0, [sp, #72]
ffffffff800018cc:	f100001f 	cmp	x0, #0x0
ffffffff800018d0:	54000061 	b.ne	ffffffff800018dc <vfs_read+0xa8>  // b.any
ffffffff800018d4:	928000a0 	mov	x0, #0xfffffffffffffffa    	// #-6
ffffffff800018d8:	14000012 	b	ffffffff80001920 <vfs_read+0xec>
ffffffff800018dc:	f94027e0 	ldr	x0, [sp, #72]
ffffffff800018e0:	f9410c00 	ldr	x0, [x0, #536]
ffffffff800018e4:	f100001f 	cmp	x0, #0x0
ffffffff800018e8:	54000061 	b.ne	ffffffff800018f4 <vfs_read+0xc0>  // b.any
ffffffff800018ec:	928002a0 	mov	x0, #0xffffffffffffffea    	// #-22
ffffffff800018f0:	1400000c 	b	ffffffff80001920 <vfs_read+0xec>
ffffffff800018f4:	f94027e0 	ldr	x0, [sp, #72]
ffffffff800018f8:	f9410813 	ldr	x19, [x0, #528]
ffffffff800018fc:	52800741 	mov	w1, #0x3a                  	// #58
ffffffff80001900:	f9401fe0 	ldr	x0, [sp, #56]
ffffffff80001904:	97fffb34 	bl	ffffffff800005d4 <strchr>
ffffffff80001908:	f94013e4 	ldr	x4, [sp, #32]
ffffffff8000190c:	f94017e3 	ldr	x3, [sp, #40]
ffffffff80001910:	f9401be2 	ldr	x2, [sp, #48]
ffffffff80001914:	aa0003e1 	mov	x1, x0
ffffffff80001918:	f94027e0 	ldr	x0, [sp, #72]
ffffffff8000191c:	d63f0260 	blr	x19
ffffffff80001920:	f9400bf3 	ldr	x19, [sp, #16]
ffffffff80001924:	a8c57bfd 	ldp	x29, x30, [sp], #80
ffffffff80001928:	d65f03c0 	ret

ffffffff8000192c <vfs_write>:
ffffffff8000192c:	a9bb7bfd 	stp	x29, x30, [sp, #-80]!
ffffffff80001930:	910003fd 	mov	x29, sp
ffffffff80001934:	f9000bf3 	str	x19, [sp, #16]
ffffffff80001938:	f9001fe0 	str	x0, [sp, #56]
ffffffff8000193c:	f9001be1 	str	x1, [sp, #48]
ffffffff80001940:	f90017e2 	str	x2, [sp, #40]
ffffffff80001944:	f90013e3 	str	x3, [sp, #32]
ffffffff80001948:	d0000140 	adrp	x0, ffffffff8002b000 <combining.0+0xf6f0>
ffffffff8000194c:	913f2000 	add	x0, x0, #0xfc8
ffffffff80001950:	f9400000 	ldr	x0, [x0]
ffffffff80001954:	f100001f 	cmp	x0, #0x0
ffffffff80001958:	54000061 	b.ne	ffffffff80001964 <vfs_write+0x38>  // b.any
ffffffff8000195c:	928000a0 	mov	x0, #0xfffffffffffffffa    	// #-6
ffffffff80001960:	1400002e 	b	ffffffff80001a18 <vfs_write+0xec>
ffffffff80001964:	d0000140 	adrp	x0, ffffffff8002b000 <combining.0+0xf6f0>
ffffffff80001968:	913f2000 	add	x0, x0, #0xfc8
ffffffff8000196c:	f9400000 	ldr	x0, [x0]
ffffffff80001970:	f90027e0 	str	x0, [sp, #72]
ffffffff80001974:	f9401fe0 	ldr	x0, [sp, #56]
ffffffff80001978:	97ffff5d 	bl	ffffffff800016ec <divide_path>
ffffffff8000197c:	79008fe0 	strh	w0, [sp, #70]
ffffffff80001980:	14000004 	b	ffffffff80001990 <vfs_write+0x64>
ffffffff80001984:	f94027e0 	ldr	x0, [sp, #72]
ffffffff80001988:	f9412000 	ldr	x0, [x0, #576]
ffffffff8000198c:	f90027e0 	str	x0, [sp, #72]
ffffffff80001990:	f94027e0 	ldr	x0, [sp, #72]
ffffffff80001994:	f100001f 	cmp	x0, #0x0
ffffffff80001998:	54000140 	b.eq	ffffffff800019c0 <vfs_write+0x94>  // b.none
ffffffff8000199c:	f94027e0 	ldr	x0, [sp, #72]
ffffffff800019a0:	79440000 	ldrh	w0, [x0, #512]
ffffffff800019a4:	79408fe1 	ldrh	w1, [sp, #70]
ffffffff800019a8:	6b00003f 	cmp	w1, w0
ffffffff800019ac:	540000a0 	b.eq	ffffffff800019c0 <vfs_write+0x94>  // b.none
ffffffff800019b0:	f94027e0 	ldr	x0, [sp, #72]
ffffffff800019b4:	f9412000 	ldr	x0, [x0, #576]
ffffffff800019b8:	f100001f 	cmp	x0, #0x0
ffffffff800019bc:	54fffe41 	b.ne	ffffffff80001984 <vfs_write+0x58>  // b.any
ffffffff800019c0:	f94027e0 	ldr	x0, [sp, #72]
ffffffff800019c4:	f100001f 	cmp	x0, #0x0
ffffffff800019c8:	54000061 	b.ne	ffffffff800019d4 <vfs_write+0xa8>  // b.any
ffffffff800019cc:	928000a0 	mov	x0, #0xfffffffffffffffa    	// #-6
ffffffff800019d0:	14000012 	b	ffffffff80001a18 <vfs_write+0xec>
ffffffff800019d4:	f94027e0 	ldr	x0, [sp, #72]
ffffffff800019d8:	f9410c00 	ldr	x0, [x0, #536]
ffffffff800019dc:	f100001f 	cmp	x0, #0x0
ffffffff800019e0:	54000061 	b.ne	ffffffff800019ec <vfs_write+0xc0>  // b.any
ffffffff800019e4:	928002a0 	mov	x0, #0xffffffffffffffea    	// #-22
ffffffff800019e8:	1400000c 	b	ffffffff80001a18 <vfs_write+0xec>
ffffffff800019ec:	f94027e0 	ldr	x0, [sp, #72]
ffffffff800019f0:	f9410c13 	ldr	x19, [x0, #536]
ffffffff800019f4:	52800741 	mov	w1, #0x3a                  	// #58
ffffffff800019f8:	f9401fe0 	ldr	x0, [sp, #56]
ffffffff800019fc:	97fffaf6 	bl	ffffffff800005d4 <strchr>
ffffffff80001a00:	f94013e4 	ldr	x4, [sp, #32]
ffffffff80001a04:	f94017e3 	ldr	x3, [sp, #40]
ffffffff80001a08:	f9401be2 	ldr	x2, [sp, #48]
ffffffff80001a0c:	aa0003e1 	mov	x1, x0
ffffffff80001a10:	f94027e0 	ldr	x0, [sp, #72]
ffffffff80001a14:	d63f0260 	blr	x19
ffffffff80001a18:	f9400bf3 	ldr	x19, [sp, #16]
ffffffff80001a1c:	a8c57bfd 	ldp	x29, x30, [sp], #80
ffffffff80001a20:	d65f03c0 	ret

ffffffff80001a24 <vfs_open>:
ffffffff80001a24:	a9be7bfd 	stp	x29, x30, [sp, #-32]!
ffffffff80001a28:	910003fd 	mov	x29, sp
ffffffff80001a2c:	f9000fe0 	str	x0, [sp, #24]
ffffffff80001a30:	f9400fe1 	ldr	x1, [sp, #24]
ffffffff80001a34:	900000c0 	adrp	x0, ffffffff80019000 <_exc_lower_32_serror+0xf880>
ffffffff80001a38:	9121c000 	add	x0, x0, #0x870
ffffffff80001a3c:	97fffc5d 	bl	ffffffff80000bb0 <tprintf>
ffffffff80001a40:	d2800000 	mov	x0, #0x0                   	// #0
ffffffff80001a44:	a8c27bfd 	ldp	x29, x30, [sp], #32
ffffffff80001a48:	d65f03c0 	ret

ffffffff80001a4c <vfs_close>:
ffffffff80001a4c:	a9be7bfd 	stp	x29, x30, [sp, #-32]!
ffffffff80001a50:	910003fd 	mov	x29, sp
ffffffff80001a54:	f9000fe0 	str	x0, [sp, #24]
ffffffff80001a58:	f9400fe1 	ldr	x1, [sp, #24]
ffffffff80001a5c:	900000c0 	adrp	x0, ffffffff80019000 <_exc_lower_32_serror+0xf880>
ffffffff80001a60:	9122a000 	add	x0, x0, #0x8a8
ffffffff80001a64:	97fffc53 	bl	ffffffff80000bb0 <tprintf>
ffffffff80001a68:	d2800000 	mov	x0, #0x0                   	// #0
ffffffff80001a6c:	a8c27bfd 	ldp	x29, x30, [sp], #32
ffffffff80001a70:	d65f03c0 	ret

ffffffff80001a74 <liballoc_memset>:
ffffffff80001a74:	d100c3ff 	sub	sp, sp, #0x30
ffffffff80001a78:	f9000fe0 	str	x0, [sp, #24]
ffffffff80001a7c:	b90017e1 	str	w1, [sp, #20]
ffffffff80001a80:	f90007e2 	str	x2, [sp, #8]
ffffffff80001a84:	b9002fff 	str	wzr, [sp, #44]
ffffffff80001a88:	1400000a 	b	ffffffff80001ab0 <liballoc_memset+0x3c>
ffffffff80001a8c:	b9402fe0 	ldr	w0, [sp, #44]
ffffffff80001a90:	f9400fe1 	ldr	x1, [sp, #24]
ffffffff80001a94:	8b000020 	add	x0, x1, x0
ffffffff80001a98:	b94017e1 	ldr	w1, [sp, #20]
ffffffff80001a9c:	12001c21 	and	w1, w1, #0xff
ffffffff80001aa0:	39000001 	strb	w1, [x0]
ffffffff80001aa4:	b9402fe0 	ldr	w0, [sp, #44]
ffffffff80001aa8:	11000400 	add	w0, w0, #0x1
ffffffff80001aac:	b9002fe0 	str	w0, [sp, #44]
ffffffff80001ab0:	b9402fe0 	ldr	w0, [sp, #44]
ffffffff80001ab4:	f94007e1 	ldr	x1, [sp, #8]
ffffffff80001ab8:	eb00003f 	cmp	x1, x0
ffffffff80001abc:	54fffe88 	b.hi	ffffffff80001a8c <liballoc_memset+0x18>  // b.pmore
ffffffff80001ac0:	f9400fe0 	ldr	x0, [sp, #24]
ffffffff80001ac4:	9100c3ff 	add	sp, sp, #0x30
ffffffff80001ac8:	d65f03c0 	ret

ffffffff80001acc <liballoc_memcpy>:
ffffffff80001acc:	d10103ff 	sub	sp, sp, #0x40
ffffffff80001ad0:	f9000fe0 	str	x0, [sp, #24]
ffffffff80001ad4:	f9000be1 	str	x1, [sp, #16]
ffffffff80001ad8:	f90007e2 	str	x2, [sp, #8]
ffffffff80001adc:	f9400fe0 	ldr	x0, [sp, #24]
ffffffff80001ae0:	f90017e0 	str	x0, [sp, #40]
ffffffff80001ae4:	f9400be0 	ldr	x0, [sp, #16]
ffffffff80001ae8:	f90013e0 	str	x0, [sp, #32]
ffffffff80001aec:	1400000c 	b	ffffffff80001b1c <liballoc_memcpy+0x50>
ffffffff80001af0:	f94013e1 	ldr	x1, [sp, #32]
ffffffff80001af4:	91001020 	add	x0, x1, #0x4
ffffffff80001af8:	f90013e0 	str	x0, [sp, #32]
ffffffff80001afc:	f94017e0 	ldr	x0, [sp, #40]
ffffffff80001b00:	91001002 	add	x2, x0, #0x4
ffffffff80001b04:	f90017e2 	str	x2, [sp, #40]
ffffffff80001b08:	b9400021 	ldr	w1, [x1]
ffffffff80001b0c:	b9000001 	str	w1, [x0]
ffffffff80001b10:	f94007e0 	ldr	x0, [sp, #8]
ffffffff80001b14:	d1001000 	sub	x0, x0, #0x4
ffffffff80001b18:	f90007e0 	str	x0, [sp, #8]
ffffffff80001b1c:	f94007e0 	ldr	x0, [sp, #8]
ffffffff80001b20:	f1000c1f 	cmp	x0, #0x3
ffffffff80001b24:	54fffe68 	b.hi	ffffffff80001af0 <liballoc_memcpy+0x24>  // b.pmore
ffffffff80001b28:	f94017e0 	ldr	x0, [sp, #40]
ffffffff80001b2c:	f9001fe0 	str	x0, [sp, #56]
ffffffff80001b30:	f94013e0 	ldr	x0, [sp, #32]
ffffffff80001b34:	f9001be0 	str	x0, [sp, #48]
ffffffff80001b38:	1400000c 	b	ffffffff80001b68 <liballoc_memcpy+0x9c>
ffffffff80001b3c:	f9401be1 	ldr	x1, [sp, #48]
ffffffff80001b40:	91000420 	add	x0, x1, #0x1
ffffffff80001b44:	f9001be0 	str	x0, [sp, #48]
ffffffff80001b48:	f9401fe0 	ldr	x0, [sp, #56]
ffffffff80001b4c:	91000402 	add	x2, x0, #0x1
ffffffff80001b50:	f9001fe2 	str	x2, [sp, #56]
ffffffff80001b54:	39400021 	ldrb	w1, [x1]
ffffffff80001b58:	39000001 	strb	w1, [x0]
ffffffff80001b5c:	f94007e0 	ldr	x0, [sp, #8]
ffffffff80001b60:	d1000400 	sub	x0, x0, #0x1
ffffffff80001b64:	f90007e0 	str	x0, [sp, #8]
ffffffff80001b68:	f94007e0 	ldr	x0, [sp, #8]
ffffffff80001b6c:	f100001f 	cmp	x0, #0x0
ffffffff80001b70:	54fffe61 	b.ne	ffffffff80001b3c <liballoc_memcpy+0x70>  // b.any
ffffffff80001b74:	f9400fe0 	ldr	x0, [sp, #24]
ffffffff80001b78:	910103ff 	add	sp, sp, #0x40
ffffffff80001b7c:	d65f03c0 	ret

ffffffff80001b80 <allocate_new_page>:
ffffffff80001b80:	a9bd7bfd 	stp	x29, x30, [sp, #-48]!
ffffffff80001b84:	910003fd 	mov	x29, sp
ffffffff80001b88:	b9001fe0 	str	w0, [sp, #28]
ffffffff80001b8c:	b9401fe0 	ldr	w0, [sp, #28]
ffffffff80001b90:	1100a000 	add	w0, w0, #0x28
ffffffff80001b94:	b9002fe0 	str	w0, [sp, #44]
ffffffff80001b98:	b9402fe0 	ldr	w0, [sp, #44]
ffffffff80001b9c:	1100a000 	add	w0, w0, #0x28
ffffffff80001ba0:	b9002fe0 	str	w0, [sp, #44]
ffffffff80001ba4:	d0000140 	adrp	x0, ffffffff8002b000 <combining.0+0xf6f0>
ffffffff80001ba8:	913e4000 	add	x0, x0, #0xf90
ffffffff80001bac:	b9400001 	ldr	w1, [x0]
ffffffff80001bb0:	b9402fe0 	ldr	w0, [sp, #44]
ffffffff80001bb4:	1ac10802 	udiv	w2, w0, w1
ffffffff80001bb8:	1b017c41 	mul	w1, w2, w1
ffffffff80001bbc:	4b010000 	sub	w0, w0, w1
ffffffff80001bc0:	7100001f 	cmp	w0, #0x0
ffffffff80001bc4:	54000101 	b.ne	ffffffff80001be4 <allocate_new_page+0x64>  // b.any
ffffffff80001bc8:	d0000140 	adrp	x0, ffffffff8002b000 <combining.0+0xf6f0>
ffffffff80001bcc:	913e4000 	add	x0, x0, #0xf90
ffffffff80001bd0:	b9400000 	ldr	w0, [x0]
ffffffff80001bd4:	b9402fe1 	ldr	w1, [sp, #44]
ffffffff80001bd8:	1ac00820 	udiv	w0, w1, w0
ffffffff80001bdc:	b9002fe0 	str	w0, [sp, #44]
ffffffff80001be0:	14000008 	b	ffffffff80001c00 <allocate_new_page+0x80>
ffffffff80001be4:	d0000140 	adrp	x0, ffffffff8002b000 <combining.0+0xf6f0>
ffffffff80001be8:	913e4000 	add	x0, x0, #0xf90
ffffffff80001bec:	b9400000 	ldr	w0, [x0]
ffffffff80001bf0:	b9402fe1 	ldr	w1, [sp, #44]
ffffffff80001bf4:	1ac00820 	udiv	w0, w1, w0
ffffffff80001bf8:	11000400 	add	w0, w0, #0x1
ffffffff80001bfc:	b9002fe0 	str	w0, [sp, #44]
ffffffff80001c00:	d0000140 	adrp	x0, ffffffff8002b000 <combining.0+0xf6f0>
ffffffff80001c04:	913e5000 	add	x0, x0, #0xf94
ffffffff80001c08:	b9400000 	ldr	w0, [x0]
ffffffff80001c0c:	b9402fe1 	ldr	w1, [sp, #44]
ffffffff80001c10:	6b00003f 	cmp	w1, w0
ffffffff80001c14:	540000a2 	b.cs	ffffffff80001c28 <allocate_new_page+0xa8>  // b.hs, b.nlast
ffffffff80001c18:	d0000140 	adrp	x0, ffffffff8002b000 <combining.0+0xf6f0>
ffffffff80001c1c:	913e5000 	add	x0, x0, #0xf94
ffffffff80001c20:	b9400000 	ldr	w0, [x0]
ffffffff80001c24:	b9002fe0 	str	w0, [sp, #44]
ffffffff80001c28:	b9402fe0 	ldr	w0, [sp, #44]
ffffffff80001c2c:	940003ca 	bl	ffffffff80002b54 <liballoc_alloc>
ffffffff80001c30:	f90013e0 	str	x0, [sp, #32]
ffffffff80001c34:	f94013e0 	ldr	x0, [sp, #32]
ffffffff80001c38:	f100001f 	cmp	x0, #0x0
ffffffff80001c3c:	54000141 	b.ne	ffffffff80001c64 <allocate_new_page+0xe4>  // b.any
ffffffff80001c40:	f0000140 	adrp	x0, ffffffff8002c000 <l_warningCount>
ffffffff80001c44:	91000000 	add	x0, x0, #0x0
ffffffff80001c48:	f9400000 	ldr	x0, [x0]
ffffffff80001c4c:	91000401 	add	x1, x0, #0x1
ffffffff80001c50:	f0000140 	adrp	x0, ffffffff8002c000 <l_warningCount>
ffffffff80001c54:	91000000 	add	x0, x0, #0x0
ffffffff80001c58:	f9000001 	str	x1, [x0]
ffffffff80001c5c:	d2800000 	mov	x0, #0x0                   	// #0
ffffffff80001c60:	1400001f 	b	ffffffff80001cdc <allocate_new_page+0x15c>
ffffffff80001c64:	f94013e0 	ldr	x0, [sp, #32]
ffffffff80001c68:	f900001f 	str	xzr, [x0]
ffffffff80001c6c:	f94013e0 	ldr	x0, [sp, #32]
ffffffff80001c70:	f900041f 	str	xzr, [x0, #8]
ffffffff80001c74:	f94013e0 	ldr	x0, [sp, #32]
ffffffff80001c78:	b9402fe1 	ldr	w1, [sp, #44]
ffffffff80001c7c:	b9001001 	str	w1, [x0, #16]
ffffffff80001c80:	d0000140 	adrp	x0, ffffffff8002b000 <combining.0+0xf6f0>
ffffffff80001c84:	913e4000 	add	x0, x0, #0xf90
ffffffff80001c88:	b9400001 	ldr	w1, [x0]
ffffffff80001c8c:	b9402fe0 	ldr	w0, [sp, #44]
ffffffff80001c90:	1b007c21 	mul	w1, w1, w0
ffffffff80001c94:	f94013e0 	ldr	x0, [sp, #32]
ffffffff80001c98:	b9001401 	str	w1, [x0, #20]
ffffffff80001c9c:	f94013e0 	ldr	x0, [sp, #32]
ffffffff80001ca0:	52800501 	mov	w1, #0x28                  	// #40
ffffffff80001ca4:	b9001801 	str	w1, [x0, #24]
ffffffff80001ca8:	f94013e0 	ldr	x0, [sp, #32]
ffffffff80001cac:	f900101f 	str	xzr, [x0, #32]
ffffffff80001cb0:	f94013e0 	ldr	x0, [sp, #32]
ffffffff80001cb4:	b9401400 	ldr	w0, [x0, #20]
ffffffff80001cb8:	2a0003e1 	mov	w1, w0
ffffffff80001cbc:	d0000140 	adrp	x0, ffffffff8002b000 <combining.0+0xf6f0>
ffffffff80001cc0:	913fc000 	add	x0, x0, #0xff0
ffffffff80001cc4:	f9400000 	ldr	x0, [x0]
ffffffff80001cc8:	8b000021 	add	x1, x1, x0
ffffffff80001ccc:	d0000140 	adrp	x0, ffffffff8002b000 <combining.0+0xf6f0>
ffffffff80001cd0:	913fc000 	add	x0, x0, #0xff0
ffffffff80001cd4:	f9000001 	str	x1, [x0]
ffffffff80001cd8:	f94013e0 	ldr	x0, [sp, #32]
ffffffff80001cdc:	a8c37bfd 	ldp	x29, x30, [sp], #48
ffffffff80001ce0:	d65f03c0 	ret

ffffffff80001ce4 <kmalloc>:
ffffffff80001ce4:	a9b87bfd 	stp	x29, x30, [sp, #-128]!
ffffffff80001ce8:	910003fd 	mov	x29, sp
ffffffff80001cec:	f9000fe0 	str	x0, [sp, #24]
ffffffff80001cf0:	b9007fff 	str	wzr, [sp, #124]
ffffffff80001cf4:	f9003bff 	str	xzr, [sp, #112]
ffffffff80001cf8:	f90037ff 	str	xzr, [sp, #104]
ffffffff80001cfc:	f9400fe0 	ldr	x0, [sp, #24]
ffffffff80001d00:	f9001be0 	str	x0, [sp, #48]
ffffffff80001d04:	f9401be0 	ldr	x0, [sp, #48]
ffffffff80001d08:	91008000 	add	x0, x0, #0x20
ffffffff80001d0c:	f9001be0 	str	x0, [sp, #48]
ffffffff80001d10:	9400037f 	bl	ffffffff80002b0c <liballoc_lock>
ffffffff80001d14:	f9401be0 	ldr	x0, [sp, #48]
ffffffff80001d18:	f100001f 	cmp	x0, #0x0
ffffffff80001d1c:	54000181 	b.ne	ffffffff80001d4c <kmalloc+0x68>  // b.any
ffffffff80001d20:	f0000140 	adrp	x0, ffffffff8002c000 <l_warningCount>
ffffffff80001d24:	91000000 	add	x0, x0, #0x0
ffffffff80001d28:	f9400000 	ldr	x0, [x0]
ffffffff80001d2c:	91000401 	add	x1, x0, #0x1
ffffffff80001d30:	f0000140 	adrp	x0, ffffffff8002c000 <l_warningCount>
ffffffff80001d34:	91000000 	add	x0, x0, #0x0
ffffffff80001d38:	f9000001 	str	x1, [x0]
ffffffff80001d3c:	9400037d 	bl	ffffffff80002b30 <liballoc_unlock>
ffffffff80001d40:	d2800020 	mov	x0, #0x1                   	// #1
ffffffff80001d44:	97ffffe8 	bl	ffffffff80001ce4 <kmalloc>
ffffffff80001d48:	1400021f 	b	ffffffff800025c4 <kmalloc+0x8e0>
ffffffff80001d4c:	d0000140 	adrp	x0, ffffffff8002b000 <combining.0+0xf6f0>
ffffffff80001d50:	913f8000 	add	x0, x0, #0xfe0
ffffffff80001d54:	f9400000 	ldr	x0, [x0]
ffffffff80001d58:	f100001f 	cmp	x0, #0x0
ffffffff80001d5c:	540001e1 	b.ne	ffffffff80001d98 <kmalloc+0xb4>  // b.any
ffffffff80001d60:	f9401be0 	ldr	x0, [sp, #48]
ffffffff80001d64:	97ffff87 	bl	ffffffff80001b80 <allocate_new_page>
ffffffff80001d68:	aa0003e1 	mov	x1, x0
ffffffff80001d6c:	d0000140 	adrp	x0, ffffffff8002b000 <combining.0+0xf6f0>
ffffffff80001d70:	913f8000 	add	x0, x0, #0xfe0
ffffffff80001d74:	f9000001 	str	x1, [x0]
ffffffff80001d78:	d0000140 	adrp	x0, ffffffff8002b000 <combining.0+0xf6f0>
ffffffff80001d7c:	913f8000 	add	x0, x0, #0xfe0
ffffffff80001d80:	f9400000 	ldr	x0, [x0]
ffffffff80001d84:	f100001f 	cmp	x0, #0x0
ffffffff80001d88:	54000081 	b.ne	ffffffff80001d98 <kmalloc+0xb4>  // b.any
ffffffff80001d8c:	94000369 	bl	ffffffff80002b30 <liballoc_unlock>
ffffffff80001d90:	d2800000 	mov	x0, #0x0                   	// #0
ffffffff80001d94:	1400020c 	b	ffffffff800025c4 <kmalloc+0x8e0>
ffffffff80001d98:	d0000140 	adrp	x0, ffffffff8002b000 <combining.0+0xf6f0>
ffffffff80001d9c:	913f8000 	add	x0, x0, #0xfe0
ffffffff80001da0:	f9400000 	ldr	x0, [x0]
ffffffff80001da4:	f90033e0 	str	x0, [sp, #96]
ffffffff80001da8:	b9007fff 	str	wzr, [sp, #124]
ffffffff80001dac:	d0000140 	adrp	x0, ffffffff8002b000 <combining.0+0xf6f0>
ffffffff80001db0:	913fa000 	add	x0, x0, #0xfe8
ffffffff80001db4:	f9400000 	ldr	x0, [x0]
ffffffff80001db8:	f100001f 	cmp	x0, #0x0
ffffffff80001dbc:	54003f20 	b.eq	ffffffff800025a0 <kmalloc+0x8bc>  // b.none
ffffffff80001dc0:	d0000140 	adrp	x0, ffffffff8002b000 <combining.0+0xf6f0>
ffffffff80001dc4:	913fa000 	add	x0, x0, #0xfe8
ffffffff80001dc8:	f9400000 	ldr	x0, [x0]
ffffffff80001dcc:	b9401401 	ldr	w1, [x0, #20]
ffffffff80001dd0:	d0000140 	adrp	x0, ffffffff8002b000 <combining.0+0xf6f0>
ffffffff80001dd4:	913fa000 	add	x0, x0, #0xfe8
ffffffff80001dd8:	f9400000 	ldr	x0, [x0]
ffffffff80001ddc:	b9401800 	ldr	w0, [x0, #24]
ffffffff80001de0:	4b000020 	sub	w0, w1, w0
ffffffff80001de4:	2a0003e0 	mov	w0, w0
ffffffff80001de8:	f9003be0 	str	x0, [sp, #112]
ffffffff80001dec:	f9401be0 	ldr	x0, [sp, #48]
ffffffff80001df0:	9100a000 	add	x0, x0, #0x28
ffffffff80001df4:	f9403be1 	ldr	x1, [sp, #112]
ffffffff80001df8:	eb00003f 	cmp	x1, x0
ffffffff80001dfc:	54003d29 	b.ls	ffffffff800025a0 <kmalloc+0x8bc>  // b.plast
ffffffff80001e00:	d0000140 	adrp	x0, ffffffff8002b000 <combining.0+0xf6f0>
ffffffff80001e04:	913fa000 	add	x0, x0, #0xfe8
ffffffff80001e08:	f9400000 	ldr	x0, [x0]
ffffffff80001e0c:	f90033e0 	str	x0, [sp, #96]
ffffffff80001e10:	52800020 	mov	w0, #0x1                   	// #1
ffffffff80001e14:	b9007fe0 	str	w0, [sp, #124]
ffffffff80001e18:	140001e2 	b	ffffffff800025a0 <kmalloc+0x8bc>
ffffffff80001e1c:	f94033e0 	ldr	x0, [sp, #96]
ffffffff80001e20:	b9401401 	ldr	w1, [x0, #20]
ffffffff80001e24:	f94033e0 	ldr	x0, [sp, #96]
ffffffff80001e28:	b9401800 	ldr	w0, [x0, #24]
ffffffff80001e2c:	4b000020 	sub	w0, w1, w0
ffffffff80001e30:	2a0003e0 	mov	w0, w0
ffffffff80001e34:	f90017e0 	str	x0, [sp, #40]
ffffffff80001e38:	f9403be1 	ldr	x1, [sp, #112]
ffffffff80001e3c:	f94017e0 	ldr	x0, [sp, #40]
ffffffff80001e40:	eb00003f 	cmp	x1, x0
ffffffff80001e44:	540000e2 	b.cs	ffffffff80001e60 <kmalloc+0x17c>  // b.hs, b.nlast
ffffffff80001e48:	d0000140 	adrp	x0, ffffffff8002b000 <combining.0+0xf6f0>
ffffffff80001e4c:	913fa000 	add	x0, x0, #0xfe8
ffffffff80001e50:	f94033e1 	ldr	x1, [sp, #96]
ffffffff80001e54:	f9000001 	str	x1, [x0]
ffffffff80001e58:	f94017e0 	ldr	x0, [sp, #40]
ffffffff80001e5c:	f9003be0 	str	x0, [sp, #112]
ffffffff80001e60:	f9401be0 	ldr	x0, [sp, #48]
ffffffff80001e64:	9100a000 	add	x0, x0, #0x28
ffffffff80001e68:	f94017e1 	ldr	x1, [sp, #40]
ffffffff80001e6c:	eb00003f 	cmp	x1, x0
ffffffff80001e70:	54000442 	b.cs	ffffffff80001ef8 <kmalloc+0x214>  // b.hs, b.nlast
ffffffff80001e74:	f94033e0 	ldr	x0, [sp, #96]
ffffffff80001e78:	f9400400 	ldr	x0, [x0, #8]
ffffffff80001e7c:	f100001f 	cmp	x0, #0x0
ffffffff80001e80:	540000a0 	b.eq	ffffffff80001e94 <kmalloc+0x1b0>  // b.none
ffffffff80001e84:	f94033e0 	ldr	x0, [sp, #96]
ffffffff80001e88:	f9400400 	ldr	x0, [x0, #8]
ffffffff80001e8c:	f90033e0 	str	x0, [sp, #96]
ffffffff80001e90:	140001c4 	b	ffffffff800025a0 <kmalloc+0x8bc>
ffffffff80001e94:	b9407fe0 	ldr	w0, [sp, #124]
ffffffff80001e98:	7100041f 	cmp	w0, #0x1
ffffffff80001e9c:	540000e1 	b.ne	ffffffff80001eb8 <kmalloc+0x1d4>  // b.any
ffffffff80001ea0:	d0000140 	adrp	x0, ffffffff8002b000 <combining.0+0xf6f0>
ffffffff80001ea4:	913f8000 	add	x0, x0, #0xfe0
ffffffff80001ea8:	f9400000 	ldr	x0, [x0]
ffffffff80001eac:	f90033e0 	str	x0, [sp, #96]
ffffffff80001eb0:	b9007fff 	str	wzr, [sp, #124]
ffffffff80001eb4:	140001bb 	b	ffffffff800025a0 <kmalloc+0x8bc>
ffffffff80001eb8:	f9401be0 	ldr	x0, [sp, #48]
ffffffff80001ebc:	97ffff31 	bl	ffffffff80001b80 <allocate_new_page>
ffffffff80001ec0:	aa0003e1 	mov	x1, x0
ffffffff80001ec4:	f94033e0 	ldr	x0, [sp, #96]
ffffffff80001ec8:	f9000401 	str	x1, [x0, #8]
ffffffff80001ecc:	f94033e0 	ldr	x0, [sp, #96]
ffffffff80001ed0:	f9400400 	ldr	x0, [x0, #8]
ffffffff80001ed4:	f100001f 	cmp	x0, #0x0
ffffffff80001ed8:	540036c0 	b.eq	ffffffff800025b0 <kmalloc+0x8cc>  // b.none
ffffffff80001edc:	f94033e0 	ldr	x0, [sp, #96]
ffffffff80001ee0:	f9400400 	ldr	x0, [x0, #8]
ffffffff80001ee4:	f94033e1 	ldr	x1, [sp, #96]
ffffffff80001ee8:	f9000001 	str	x1, [x0]
ffffffff80001eec:	f94033e0 	ldr	x0, [sp, #96]
ffffffff80001ef0:	f9400400 	ldr	x0, [x0, #8]
ffffffff80001ef4:	f90033e0 	str	x0, [sp, #96]
ffffffff80001ef8:	f94033e0 	ldr	x0, [sp, #96]
ffffffff80001efc:	f9401000 	ldr	x0, [x0, #32]
ffffffff80001f00:	f100001f 	cmp	x0, #0x0
ffffffff80001f04:	54000961 	b.ne	ffffffff80002030 <kmalloc+0x34c>  // b.any
ffffffff80001f08:	f94033e0 	ldr	x0, [sp, #96]
ffffffff80001f0c:	9100a000 	add	x0, x0, #0x28
ffffffff80001f10:	aa0003e1 	mov	x1, x0
ffffffff80001f14:	f94033e0 	ldr	x0, [sp, #96]
ffffffff80001f18:	f9001001 	str	x1, [x0, #32]
ffffffff80001f1c:	f94033e0 	ldr	x0, [sp, #96]
ffffffff80001f20:	f9401000 	ldr	x0, [x0, #32]
ffffffff80001f24:	52981bc1 	mov	w1, #0xc0de                	// #49374
ffffffff80001f28:	72b80021 	movk	w1, #0xc001, lsl #16
ffffffff80001f2c:	b9001801 	str	w1, [x0, #24]
ffffffff80001f30:	f94033e0 	ldr	x0, [sp, #96]
ffffffff80001f34:	f9401000 	ldr	x0, [x0, #32]
ffffffff80001f38:	f900001f 	str	xzr, [x0]
ffffffff80001f3c:	f94033e0 	ldr	x0, [sp, #96]
ffffffff80001f40:	f9401000 	ldr	x0, [x0, #32]
ffffffff80001f44:	f900041f 	str	xzr, [x0, #8]
ffffffff80001f48:	f94033e0 	ldr	x0, [sp, #96]
ffffffff80001f4c:	f9401000 	ldr	x0, [x0, #32]
ffffffff80001f50:	f94033e1 	ldr	x1, [sp, #96]
ffffffff80001f54:	f9000801 	str	x1, [x0, #16]
ffffffff80001f58:	f94033e0 	ldr	x0, [sp, #96]
ffffffff80001f5c:	f9401000 	ldr	x0, [x0, #32]
ffffffff80001f60:	f9401be1 	ldr	x1, [sp, #48]
ffffffff80001f64:	b9001c01 	str	w1, [x0, #28]
ffffffff80001f68:	f94033e0 	ldr	x0, [sp, #96]
ffffffff80001f6c:	f9401000 	ldr	x0, [x0, #32]
ffffffff80001f70:	f9400fe1 	ldr	x1, [sp, #24]
ffffffff80001f74:	b9002001 	str	w1, [x0, #32]
ffffffff80001f78:	f94033e0 	ldr	x0, [sp, #96]
ffffffff80001f7c:	b9401800 	ldr	w0, [x0, #24]
ffffffff80001f80:	f9401be1 	ldr	x1, [sp, #48]
ffffffff80001f84:	0b010000 	add	w0, w0, w1
ffffffff80001f88:	1100a001 	add	w1, w0, #0x28
ffffffff80001f8c:	f94033e0 	ldr	x0, [sp, #96]
ffffffff80001f90:	b9001801 	str	w1, [x0, #24]
ffffffff80001f94:	d0000140 	adrp	x0, ffffffff8002b000 <combining.0+0xf6f0>
ffffffff80001f98:	913fe000 	add	x0, x0, #0xff8
ffffffff80001f9c:	f9400001 	ldr	x1, [x0]
ffffffff80001fa0:	f9401be0 	ldr	x0, [sp, #48]
ffffffff80001fa4:	8b000021 	add	x1, x1, x0
ffffffff80001fa8:	d0000140 	adrp	x0, ffffffff8002b000 <combining.0+0xf6f0>
ffffffff80001fac:	913fe000 	add	x0, x0, #0xff8
ffffffff80001fb0:	f9000001 	str	x1, [x0]
ffffffff80001fb4:	f94033e0 	ldr	x0, [sp, #96]
ffffffff80001fb8:	f9401000 	ldr	x0, [x0, #32]
ffffffff80001fbc:	9100a000 	add	x0, x0, #0x28
ffffffff80001fc0:	f90037e0 	str	x0, [sp, #104]
ffffffff80001fc4:	f94037e0 	ldr	x0, [sp, #104]
ffffffff80001fc8:	91004000 	add	x0, x0, #0x10
ffffffff80001fcc:	f90037e0 	str	x0, [sp, #104]
ffffffff80001fd0:	f94037e0 	ldr	x0, [sp, #104]
ffffffff80001fd4:	92400c00 	and	x0, x0, #0xf
ffffffff80001fd8:	f9002be0 	str	x0, [sp, #80]
ffffffff80001fdc:	f9402be0 	ldr	x0, [sp, #80]
ffffffff80001fe0:	f100001f 	cmp	x0, #0x0
ffffffff80001fe4:	54000120 	b.eq	ffffffff80002008 <kmalloc+0x324>  // b.none
ffffffff80001fe8:	d2800201 	mov	x1, #0x10                  	// #16
ffffffff80001fec:	f9402be0 	ldr	x0, [sp, #80]
ffffffff80001ff0:	cb000020 	sub	x0, x1, x0
ffffffff80001ff4:	f9002be0 	str	x0, [sp, #80]
ffffffff80001ff8:	f94037e1 	ldr	x1, [sp, #104]
ffffffff80001ffc:	f9402be0 	ldr	x0, [sp, #80]
ffffffff80002000:	8b000020 	add	x0, x1, x0
ffffffff80002004:	f90037e0 	str	x0, [sp, #104]
ffffffff80002008:	f9402be0 	ldr	x0, [sp, #80]
ffffffff8000200c:	12001c00 	and	w0, w0, #0xff
ffffffff80002010:	f94037e1 	ldr	x1, [sp, #104]
ffffffff80002014:	d1004021 	sub	x1, x1, #0x10
ffffffff80002018:	11004000 	add	w0, w0, #0x10
ffffffff8000201c:	12001c00 	and	w0, w0, #0xff
ffffffff80002020:	39000020 	strb	w0, [x1]
ffffffff80002024:	940002c3 	bl	ffffffff80002b30 <liballoc_unlock>
ffffffff80002028:	f94037e0 	ldr	x0, [sp, #104]
ffffffff8000202c:	14000166 	b	ffffffff800025c4 <kmalloc+0x8e0>
ffffffff80002030:	f94033e0 	ldr	x0, [sp, #96]
ffffffff80002034:	f9401000 	ldr	x0, [x0, #32]
ffffffff80002038:	f90017e0 	str	x0, [sp, #40]
ffffffff8000203c:	f94033e0 	ldr	x0, [sp, #96]
ffffffff80002040:	f94017e1 	ldr	x1, [sp, #40]
ffffffff80002044:	cb000020 	sub	x0, x1, x0
ffffffff80002048:	f90017e0 	str	x0, [sp, #40]
ffffffff8000204c:	f94017e0 	ldr	x0, [sp, #40]
ffffffff80002050:	d100a000 	sub	x0, x0, #0x28
ffffffff80002054:	f90017e0 	str	x0, [sp, #40]
ffffffff80002058:	f9401be0 	ldr	x0, [sp, #48]
ffffffff8000205c:	9100a000 	add	x0, x0, #0x28
ffffffff80002060:	f94017e1 	ldr	x1, [sp, #40]
ffffffff80002064:	eb00003f 	cmp	x1, x0
ffffffff80002068:	54000a63 	b.cc	ffffffff800021b4 <kmalloc+0x4d0>  // b.lo, b.ul, b.last
ffffffff8000206c:	f94033e0 	ldr	x0, [sp, #96]
ffffffff80002070:	9100a001 	add	x1, x0, #0x28
ffffffff80002074:	f94033e0 	ldr	x0, [sp, #96]
ffffffff80002078:	f9401000 	ldr	x0, [x0, #32]
ffffffff8000207c:	f9000001 	str	x1, [x0]
ffffffff80002080:	f94033e0 	ldr	x0, [sp, #96]
ffffffff80002084:	f9401000 	ldr	x0, [x0, #32]
ffffffff80002088:	f9400000 	ldr	x0, [x0]
ffffffff8000208c:	f94033e1 	ldr	x1, [sp, #96]
ffffffff80002090:	f9401021 	ldr	x1, [x1, #32]
ffffffff80002094:	f9000401 	str	x1, [x0, #8]
ffffffff80002098:	f94033e0 	ldr	x0, [sp, #96]
ffffffff8000209c:	f9401000 	ldr	x0, [x0, #32]
ffffffff800020a0:	f9400001 	ldr	x1, [x0]
ffffffff800020a4:	f94033e0 	ldr	x0, [sp, #96]
ffffffff800020a8:	f9001001 	str	x1, [x0, #32]
ffffffff800020ac:	f94033e0 	ldr	x0, [sp, #96]
ffffffff800020b0:	f9401000 	ldr	x0, [x0, #32]
ffffffff800020b4:	52981bc1 	mov	w1, #0xc0de                	// #49374
ffffffff800020b8:	72b80021 	movk	w1, #0xc001, lsl #16
ffffffff800020bc:	b9001801 	str	w1, [x0, #24]
ffffffff800020c0:	f94033e0 	ldr	x0, [sp, #96]
ffffffff800020c4:	f9401000 	ldr	x0, [x0, #32]
ffffffff800020c8:	f900001f 	str	xzr, [x0]
ffffffff800020cc:	f94033e0 	ldr	x0, [sp, #96]
ffffffff800020d0:	f9401000 	ldr	x0, [x0, #32]
ffffffff800020d4:	f94033e1 	ldr	x1, [sp, #96]
ffffffff800020d8:	f9000801 	str	x1, [x0, #16]
ffffffff800020dc:	f94033e0 	ldr	x0, [sp, #96]
ffffffff800020e0:	f9401000 	ldr	x0, [x0, #32]
ffffffff800020e4:	f9401be1 	ldr	x1, [sp, #48]
ffffffff800020e8:	b9001c01 	str	w1, [x0, #28]
ffffffff800020ec:	f94033e0 	ldr	x0, [sp, #96]
ffffffff800020f0:	f9401000 	ldr	x0, [x0, #32]
ffffffff800020f4:	f9400fe1 	ldr	x1, [sp, #24]
ffffffff800020f8:	b9002001 	str	w1, [x0, #32]
ffffffff800020fc:	f94033e0 	ldr	x0, [sp, #96]
ffffffff80002100:	b9401800 	ldr	w0, [x0, #24]
ffffffff80002104:	f9401be1 	ldr	x1, [sp, #48]
ffffffff80002108:	0b010000 	add	w0, w0, w1
ffffffff8000210c:	1100a001 	add	w1, w0, #0x28
ffffffff80002110:	f94033e0 	ldr	x0, [sp, #96]
ffffffff80002114:	b9001801 	str	w1, [x0, #24]
ffffffff80002118:	b0000140 	adrp	x0, ffffffff8002b000 <combining.0+0xf6f0>
ffffffff8000211c:	913fe000 	add	x0, x0, #0xff8
ffffffff80002120:	f9400001 	ldr	x1, [x0]
ffffffff80002124:	f9401be0 	ldr	x0, [sp, #48]
ffffffff80002128:	8b000021 	add	x1, x1, x0
ffffffff8000212c:	b0000140 	adrp	x0, ffffffff8002b000 <combining.0+0xf6f0>
ffffffff80002130:	913fe000 	add	x0, x0, #0xff8
ffffffff80002134:	f9000001 	str	x1, [x0]
ffffffff80002138:	f94033e0 	ldr	x0, [sp, #96]
ffffffff8000213c:	f9401000 	ldr	x0, [x0, #32]
ffffffff80002140:	9100a000 	add	x0, x0, #0x28
ffffffff80002144:	f90037e0 	str	x0, [sp, #104]
ffffffff80002148:	f94037e0 	ldr	x0, [sp, #104]
ffffffff8000214c:	91004000 	add	x0, x0, #0x10
ffffffff80002150:	f90037e0 	str	x0, [sp, #104]
ffffffff80002154:	f94037e0 	ldr	x0, [sp, #104]
ffffffff80002158:	92400c00 	and	x0, x0, #0xf
ffffffff8000215c:	f90027e0 	str	x0, [sp, #72]
ffffffff80002160:	f94027e0 	ldr	x0, [sp, #72]
ffffffff80002164:	f100001f 	cmp	x0, #0x0
ffffffff80002168:	54000120 	b.eq	ffffffff8000218c <kmalloc+0x4a8>  // b.none
ffffffff8000216c:	d2800201 	mov	x1, #0x10                  	// #16
ffffffff80002170:	f94027e0 	ldr	x0, [sp, #72]
ffffffff80002174:	cb000020 	sub	x0, x1, x0
ffffffff80002178:	f90027e0 	str	x0, [sp, #72]
ffffffff8000217c:	f94037e1 	ldr	x1, [sp, #104]
ffffffff80002180:	f94027e0 	ldr	x0, [sp, #72]
ffffffff80002184:	8b000020 	add	x0, x1, x0
ffffffff80002188:	f90037e0 	str	x0, [sp, #104]
ffffffff8000218c:	f94027e0 	ldr	x0, [sp, #72]
ffffffff80002190:	12001c00 	and	w0, w0, #0xff
ffffffff80002194:	f94037e1 	ldr	x1, [sp, #104]
ffffffff80002198:	d1004021 	sub	x1, x1, #0x10
ffffffff8000219c:	11004000 	add	w0, w0, #0x10
ffffffff800021a0:	12001c00 	and	w0, w0, #0xff
ffffffff800021a4:	39000020 	strb	w0, [x1]
ffffffff800021a8:	94000262 	bl	ffffffff80002b30 <liballoc_unlock>
ffffffff800021ac:	f94037e0 	ldr	x0, [sp, #104]
ffffffff800021b0:	14000105 	b	ffffffff800025c4 <kmalloc+0x8e0>
ffffffff800021b4:	f94033e0 	ldr	x0, [sp, #96]
ffffffff800021b8:	f9401000 	ldr	x0, [x0, #32]
ffffffff800021bc:	f9002fe0 	str	x0, [sp, #88]
ffffffff800021c0:	140000d8 	b	ffffffff80002520 <kmalloc+0x83c>
ffffffff800021c4:	f9402fe0 	ldr	x0, [sp, #88]
ffffffff800021c8:	f9400400 	ldr	x0, [x0, #8]
ffffffff800021cc:	f100001f 	cmp	x0, #0x0
ffffffff800021d0:	54000ce1 	b.ne	ffffffff8000236c <kmalloc+0x688>  // b.any
ffffffff800021d4:	f94033e0 	ldr	x0, [sp, #96]
ffffffff800021d8:	b9401400 	ldr	w0, [x0, #20]
ffffffff800021dc:	2a0003e1 	mov	w1, w0
ffffffff800021e0:	f94033e0 	ldr	x0, [sp, #96]
ffffffff800021e4:	8b000020 	add	x0, x1, x0
ffffffff800021e8:	f90017e0 	str	x0, [sp, #40]
ffffffff800021ec:	f9402fe0 	ldr	x0, [sp, #88]
ffffffff800021f0:	f94017e1 	ldr	x1, [sp, #40]
ffffffff800021f4:	cb000020 	sub	x0, x1, x0
ffffffff800021f8:	f90017e0 	str	x0, [sp, #40]
ffffffff800021fc:	f94017e0 	ldr	x0, [sp, #40]
ffffffff80002200:	d100a000 	sub	x0, x0, #0x28
ffffffff80002204:	f90017e0 	str	x0, [sp, #40]
ffffffff80002208:	f9402fe0 	ldr	x0, [sp, #88]
ffffffff8000220c:	b9401c00 	ldr	w0, [x0, #28]
ffffffff80002210:	2a0003e0 	mov	w0, w0
ffffffff80002214:	f94017e1 	ldr	x1, [sp, #40]
ffffffff80002218:	cb000020 	sub	x0, x1, x0
ffffffff8000221c:	f90017e0 	str	x0, [sp, #40]
ffffffff80002220:	f9401be0 	ldr	x0, [sp, #48]
ffffffff80002224:	9100a000 	add	x0, x0, #0x28
ffffffff80002228:	f94017e1 	ldr	x1, [sp, #40]
ffffffff8000222c:	eb00003f 	cmp	x1, x0
ffffffff80002230:	540009e3 	b.cc	ffffffff8000236c <kmalloc+0x688>  // b.lo, b.ul, b.last
ffffffff80002234:	f9402fe0 	ldr	x0, [sp, #88]
ffffffff80002238:	b9401c00 	ldr	w0, [x0, #28]
ffffffff8000223c:	2a0003e1 	mov	w1, w0
ffffffff80002240:	f9402fe0 	ldr	x0, [sp, #88]
ffffffff80002244:	8b000020 	add	x0, x1, x0
ffffffff80002248:	9100a000 	add	x0, x0, #0x28
ffffffff8000224c:	aa0003e1 	mov	x1, x0
ffffffff80002250:	f9402fe0 	ldr	x0, [sp, #88]
ffffffff80002254:	f9000401 	str	x1, [x0, #8]
ffffffff80002258:	f9402fe0 	ldr	x0, [sp, #88]
ffffffff8000225c:	f9400400 	ldr	x0, [x0, #8]
ffffffff80002260:	f9402fe1 	ldr	x1, [sp, #88]
ffffffff80002264:	f9000001 	str	x1, [x0]
ffffffff80002268:	f9402fe0 	ldr	x0, [sp, #88]
ffffffff8000226c:	f9400400 	ldr	x0, [x0, #8]
ffffffff80002270:	f9002fe0 	str	x0, [sp, #88]
ffffffff80002274:	f9402fe0 	ldr	x0, [sp, #88]
ffffffff80002278:	f900041f 	str	xzr, [x0, #8]
ffffffff8000227c:	f9402fe0 	ldr	x0, [sp, #88]
ffffffff80002280:	52981bc1 	mov	w1, #0xc0de                	// #49374
ffffffff80002284:	72b80021 	movk	w1, #0xc001, lsl #16
ffffffff80002288:	b9001801 	str	w1, [x0, #24]
ffffffff8000228c:	f9402fe0 	ldr	x0, [sp, #88]
ffffffff80002290:	f94033e1 	ldr	x1, [sp, #96]
ffffffff80002294:	f9000801 	str	x1, [x0, #16]
ffffffff80002298:	f9401be0 	ldr	x0, [sp, #48]
ffffffff8000229c:	2a0003e1 	mov	w1, w0
ffffffff800022a0:	f9402fe0 	ldr	x0, [sp, #88]
ffffffff800022a4:	b9001c01 	str	w1, [x0, #28]
ffffffff800022a8:	f9400fe0 	ldr	x0, [sp, #24]
ffffffff800022ac:	2a0003e1 	mov	w1, w0
ffffffff800022b0:	f9402fe0 	ldr	x0, [sp, #88]
ffffffff800022b4:	b9002001 	str	w1, [x0, #32]
ffffffff800022b8:	f94033e0 	ldr	x0, [sp, #96]
ffffffff800022bc:	b9401800 	ldr	w0, [x0, #24]
ffffffff800022c0:	f9401be1 	ldr	x1, [sp, #48]
ffffffff800022c4:	0b010000 	add	w0, w0, w1
ffffffff800022c8:	1100a001 	add	w1, w0, #0x28
ffffffff800022cc:	f94033e0 	ldr	x0, [sp, #96]
ffffffff800022d0:	b9001801 	str	w1, [x0, #24]
ffffffff800022d4:	b0000140 	adrp	x0, ffffffff8002b000 <combining.0+0xf6f0>
ffffffff800022d8:	913fe000 	add	x0, x0, #0xff8
ffffffff800022dc:	f9400001 	ldr	x1, [x0]
ffffffff800022e0:	f9401be0 	ldr	x0, [sp, #48]
ffffffff800022e4:	8b000021 	add	x1, x1, x0
ffffffff800022e8:	b0000140 	adrp	x0, ffffffff8002b000 <combining.0+0xf6f0>
ffffffff800022ec:	913fe000 	add	x0, x0, #0xff8
ffffffff800022f0:	f9000001 	str	x1, [x0]
ffffffff800022f4:	f9402fe0 	ldr	x0, [sp, #88]
ffffffff800022f8:	9100a000 	add	x0, x0, #0x28
ffffffff800022fc:	f90037e0 	str	x0, [sp, #104]
ffffffff80002300:	f94037e0 	ldr	x0, [sp, #104]
ffffffff80002304:	91004000 	add	x0, x0, #0x10
ffffffff80002308:	f90037e0 	str	x0, [sp, #104]
ffffffff8000230c:	f94037e0 	ldr	x0, [sp, #104]
ffffffff80002310:	92400c00 	and	x0, x0, #0xf
ffffffff80002314:	f90023e0 	str	x0, [sp, #64]
ffffffff80002318:	f94023e0 	ldr	x0, [sp, #64]
ffffffff8000231c:	f100001f 	cmp	x0, #0x0
ffffffff80002320:	54000120 	b.eq	ffffffff80002344 <kmalloc+0x660>  // b.none
ffffffff80002324:	d2800201 	mov	x1, #0x10                  	// #16
ffffffff80002328:	f94023e0 	ldr	x0, [sp, #64]
ffffffff8000232c:	cb000020 	sub	x0, x1, x0
ffffffff80002330:	f90023e0 	str	x0, [sp, #64]
ffffffff80002334:	f94037e1 	ldr	x1, [sp, #104]
ffffffff80002338:	f94023e0 	ldr	x0, [sp, #64]
ffffffff8000233c:	8b000020 	add	x0, x1, x0
ffffffff80002340:	f90037e0 	str	x0, [sp, #104]
ffffffff80002344:	f94023e0 	ldr	x0, [sp, #64]
ffffffff80002348:	12001c00 	and	w0, w0, #0xff
ffffffff8000234c:	f94037e1 	ldr	x1, [sp, #104]
ffffffff80002350:	d1004021 	sub	x1, x1, #0x10
ffffffff80002354:	11004000 	add	w0, w0, #0x10
ffffffff80002358:	12001c00 	and	w0, w0, #0xff
ffffffff8000235c:	39000020 	strb	w0, [x1]
ffffffff80002360:	940001f4 	bl	ffffffff80002b30 <liballoc_unlock>
ffffffff80002364:	f94037e0 	ldr	x0, [sp, #104]
ffffffff80002368:	14000097 	b	ffffffff800025c4 <kmalloc+0x8e0>
ffffffff8000236c:	f9402fe0 	ldr	x0, [sp, #88]
ffffffff80002370:	f9400400 	ldr	x0, [x0, #8]
ffffffff80002374:	f100001f 	cmp	x0, #0x0
ffffffff80002378:	54000ce0 	b.eq	ffffffff80002514 <kmalloc+0x830>  // b.none
ffffffff8000237c:	f9402fe0 	ldr	x0, [sp, #88]
ffffffff80002380:	f9400400 	ldr	x0, [x0, #8]
ffffffff80002384:	f90017e0 	str	x0, [sp, #40]
ffffffff80002388:	f9402fe0 	ldr	x0, [sp, #88]
ffffffff8000238c:	f94017e1 	ldr	x1, [sp, #40]
ffffffff80002390:	cb000020 	sub	x0, x1, x0
ffffffff80002394:	f90017e0 	str	x0, [sp, #40]
ffffffff80002398:	f94017e0 	ldr	x0, [sp, #40]
ffffffff8000239c:	d100a000 	sub	x0, x0, #0x28
ffffffff800023a0:	f90017e0 	str	x0, [sp, #40]
ffffffff800023a4:	f9402fe0 	ldr	x0, [sp, #88]
ffffffff800023a8:	b9401c00 	ldr	w0, [x0, #28]
ffffffff800023ac:	2a0003e0 	mov	w0, w0
ffffffff800023b0:	f94017e1 	ldr	x1, [sp, #40]
ffffffff800023b4:	cb000020 	sub	x0, x1, x0
ffffffff800023b8:	f90017e0 	str	x0, [sp, #40]
ffffffff800023bc:	f9401be0 	ldr	x0, [sp, #48]
ffffffff800023c0:	9100a000 	add	x0, x0, #0x28
ffffffff800023c4:	f94017e1 	ldr	x1, [sp, #40]
ffffffff800023c8:	eb00003f 	cmp	x1, x0
ffffffff800023cc:	54000a43 	b.cc	ffffffff80002514 <kmalloc+0x830>  // b.lo, b.ul, b.last
ffffffff800023d0:	f9402fe0 	ldr	x0, [sp, #88]
ffffffff800023d4:	b9401c00 	ldr	w0, [x0, #28]
ffffffff800023d8:	2a0003e1 	mov	w1, w0
ffffffff800023dc:	f9402fe0 	ldr	x0, [sp, #88]
ffffffff800023e0:	8b000020 	add	x0, x1, x0
ffffffff800023e4:	9100a000 	add	x0, x0, #0x28
ffffffff800023e8:	f90013e0 	str	x0, [sp, #32]
ffffffff800023ec:	f94013e0 	ldr	x0, [sp, #32]
ffffffff800023f0:	52981bc1 	mov	w1, #0xc0de                	// #49374
ffffffff800023f4:	72b80021 	movk	w1, #0xc001, lsl #16
ffffffff800023f8:	b9001801 	str	w1, [x0, #24]
ffffffff800023fc:	f9402fe0 	ldr	x0, [sp, #88]
ffffffff80002400:	f9400401 	ldr	x1, [x0, #8]
ffffffff80002404:	f94013e0 	ldr	x0, [sp, #32]
ffffffff80002408:	f9000401 	str	x1, [x0, #8]
ffffffff8000240c:	f94013e0 	ldr	x0, [sp, #32]
ffffffff80002410:	f9402fe1 	ldr	x1, [sp, #88]
ffffffff80002414:	f9000001 	str	x1, [x0]
ffffffff80002418:	f9401be0 	ldr	x0, [sp, #48]
ffffffff8000241c:	2a0003e1 	mov	w1, w0
ffffffff80002420:	f94013e0 	ldr	x0, [sp, #32]
ffffffff80002424:	b9001c01 	str	w1, [x0, #28]
ffffffff80002428:	f9400fe0 	ldr	x0, [sp, #24]
ffffffff8000242c:	2a0003e1 	mov	w1, w0
ffffffff80002430:	f94013e0 	ldr	x0, [sp, #32]
ffffffff80002434:	b9002001 	str	w1, [x0, #32]
ffffffff80002438:	f94013e0 	ldr	x0, [sp, #32]
ffffffff8000243c:	f94033e1 	ldr	x1, [sp, #96]
ffffffff80002440:	f9000801 	str	x1, [x0, #16]
ffffffff80002444:	f9402fe0 	ldr	x0, [sp, #88]
ffffffff80002448:	f9400400 	ldr	x0, [x0, #8]
ffffffff8000244c:	f94013e1 	ldr	x1, [sp, #32]
ffffffff80002450:	f9000001 	str	x1, [x0]
ffffffff80002454:	f9402fe0 	ldr	x0, [sp, #88]
ffffffff80002458:	f94013e1 	ldr	x1, [sp, #32]
ffffffff8000245c:	f9000401 	str	x1, [x0, #8]
ffffffff80002460:	f94033e0 	ldr	x0, [sp, #96]
ffffffff80002464:	b9401800 	ldr	w0, [x0, #24]
ffffffff80002468:	f9401be1 	ldr	x1, [sp, #48]
ffffffff8000246c:	0b010000 	add	w0, w0, w1
ffffffff80002470:	1100a001 	add	w1, w0, #0x28
ffffffff80002474:	f94033e0 	ldr	x0, [sp, #96]
ffffffff80002478:	b9001801 	str	w1, [x0, #24]
ffffffff8000247c:	b0000140 	adrp	x0, ffffffff8002b000 <combining.0+0xf6f0>
ffffffff80002480:	913fe000 	add	x0, x0, #0xff8
ffffffff80002484:	f9400001 	ldr	x1, [x0]
ffffffff80002488:	f9401be0 	ldr	x0, [sp, #48]
ffffffff8000248c:	8b000021 	add	x1, x1, x0
ffffffff80002490:	b0000140 	adrp	x0, ffffffff8002b000 <combining.0+0xf6f0>
ffffffff80002494:	913fe000 	add	x0, x0, #0xff8
ffffffff80002498:	f9000001 	str	x1, [x0]
ffffffff8000249c:	f94013e0 	ldr	x0, [sp, #32]
ffffffff800024a0:	9100a000 	add	x0, x0, #0x28
ffffffff800024a4:	f90037e0 	str	x0, [sp, #104]
ffffffff800024a8:	f94037e0 	ldr	x0, [sp, #104]
ffffffff800024ac:	91004000 	add	x0, x0, #0x10
ffffffff800024b0:	f90037e0 	str	x0, [sp, #104]
ffffffff800024b4:	f94037e0 	ldr	x0, [sp, #104]
ffffffff800024b8:	92400c00 	and	x0, x0, #0xf
ffffffff800024bc:	f9001fe0 	str	x0, [sp, #56]
ffffffff800024c0:	f9401fe0 	ldr	x0, [sp, #56]
ffffffff800024c4:	f100001f 	cmp	x0, #0x0
ffffffff800024c8:	54000120 	b.eq	ffffffff800024ec <kmalloc+0x808>  // b.none
ffffffff800024cc:	d2800201 	mov	x1, #0x10                  	// #16
ffffffff800024d0:	f9401fe0 	ldr	x0, [sp, #56]
ffffffff800024d4:	cb000020 	sub	x0, x1, x0
ffffffff800024d8:	f9001fe0 	str	x0, [sp, #56]
ffffffff800024dc:	f94037e1 	ldr	x1, [sp, #104]
ffffffff800024e0:	f9401fe0 	ldr	x0, [sp, #56]
ffffffff800024e4:	8b000020 	add	x0, x1, x0
ffffffff800024e8:	f90037e0 	str	x0, [sp, #104]
ffffffff800024ec:	f9401fe0 	ldr	x0, [sp, #56]
ffffffff800024f0:	12001c00 	and	w0, w0, #0xff
ffffffff800024f4:	f94037e1 	ldr	x1, [sp, #104]
ffffffff800024f8:	d1004021 	sub	x1, x1, #0x10
ffffffff800024fc:	11004000 	add	w0, w0, #0x10
ffffffff80002500:	12001c00 	and	w0, w0, #0xff
ffffffff80002504:	39000020 	strb	w0, [x1]
ffffffff80002508:	9400018a 	bl	ffffffff80002b30 <liballoc_unlock>
ffffffff8000250c:	f94037e0 	ldr	x0, [sp, #104]
ffffffff80002510:	1400002d 	b	ffffffff800025c4 <kmalloc+0x8e0>
ffffffff80002514:	f9402fe0 	ldr	x0, [sp, #88]
ffffffff80002518:	f9400400 	ldr	x0, [x0, #8]
ffffffff8000251c:	f9002fe0 	str	x0, [sp, #88]
ffffffff80002520:	f9402fe0 	ldr	x0, [sp, #88]
ffffffff80002524:	f100001f 	cmp	x0, #0x0
ffffffff80002528:	54ffe4e1 	b.ne	ffffffff800021c4 <kmalloc+0x4e0>  // b.any
ffffffff8000252c:	f94033e0 	ldr	x0, [sp, #96]
ffffffff80002530:	f9400400 	ldr	x0, [x0, #8]
ffffffff80002534:	f100001f 	cmp	x0, #0x0
ffffffff80002538:	540002e1 	b.ne	ffffffff80002594 <kmalloc+0x8b0>  // b.any
ffffffff8000253c:	b9407fe0 	ldr	w0, [sp, #124]
ffffffff80002540:	7100041f 	cmp	w0, #0x1
ffffffff80002544:	540000e1 	b.ne	ffffffff80002560 <kmalloc+0x87c>  // b.any
ffffffff80002548:	b0000140 	adrp	x0, ffffffff8002b000 <combining.0+0xf6f0>
ffffffff8000254c:	913f8000 	add	x0, x0, #0xfe0
ffffffff80002550:	f9400000 	ldr	x0, [x0]
ffffffff80002554:	f90033e0 	str	x0, [sp, #96]
ffffffff80002558:	b9007fff 	str	wzr, [sp, #124]
ffffffff8000255c:	14000011 	b	ffffffff800025a0 <kmalloc+0x8bc>
ffffffff80002560:	f9401be0 	ldr	x0, [sp, #48]
ffffffff80002564:	97fffd87 	bl	ffffffff80001b80 <allocate_new_page>
ffffffff80002568:	aa0003e1 	mov	x1, x0
ffffffff8000256c:	f94033e0 	ldr	x0, [sp, #96]
ffffffff80002570:	f9000401 	str	x1, [x0, #8]
ffffffff80002574:	f94033e0 	ldr	x0, [sp, #96]
ffffffff80002578:	f9400400 	ldr	x0, [x0, #8]
ffffffff8000257c:	f100001f 	cmp	x0, #0x0
ffffffff80002580:	540001c0 	b.eq	ffffffff800025b8 <kmalloc+0x8d4>  // b.none
ffffffff80002584:	f94033e0 	ldr	x0, [sp, #96]
ffffffff80002588:	f9400400 	ldr	x0, [x0, #8]
ffffffff8000258c:	f94033e1 	ldr	x1, [sp, #96]
ffffffff80002590:	f9000001 	str	x1, [x0]
ffffffff80002594:	f94033e0 	ldr	x0, [sp, #96]
ffffffff80002598:	f9400400 	ldr	x0, [x0, #8]
ffffffff8000259c:	f90033e0 	str	x0, [sp, #96]
ffffffff800025a0:	f94033e0 	ldr	x0, [sp, #96]
ffffffff800025a4:	f100001f 	cmp	x0, #0x0
ffffffff800025a8:	54ffc3a1 	b.ne	ffffffff80001e1c <kmalloc+0x138>  // b.any
ffffffff800025ac:	14000004 	b	ffffffff800025bc <kmalloc+0x8d8>
ffffffff800025b0:	d503201f 	nop
ffffffff800025b4:	14000002 	b	ffffffff800025bc <kmalloc+0x8d8>
ffffffff800025b8:	d503201f 	nop
ffffffff800025bc:	9400015d 	bl	ffffffff80002b30 <liballoc_unlock>
ffffffff800025c0:	d2800000 	mov	x0, #0x0                   	// #0
ffffffff800025c4:	a8c87bfd 	ldp	x29, x30, [sp], #128
ffffffff800025c8:	d65f03c0 	ret

ffffffff800025cc <kfree>:
ffffffff800025cc:	a9bc7bfd 	stp	x29, x30, [sp, #-64]!
ffffffff800025d0:	910003fd 	mov	x29, sp
ffffffff800025d4:	f9000fe0 	str	x0, [sp, #24]
ffffffff800025d8:	f9400fe0 	ldr	x0, [sp, #24]
ffffffff800025dc:	f100001f 	cmp	x0, #0x0
ffffffff800025e0:	54000121 	b.ne	ffffffff80002604 <kfree+0x38>  // b.any
ffffffff800025e4:	d0000140 	adrp	x0, ffffffff8002c000 <l_warningCount>
ffffffff800025e8:	91000000 	add	x0, x0, #0x0
ffffffff800025ec:	f9400000 	ldr	x0, [x0]
ffffffff800025f0:	91000401 	add	x1, x0, #0x1
ffffffff800025f4:	d0000140 	adrp	x0, ffffffff8002c000 <l_warningCount>
ffffffff800025f8:	91000000 	add	x0, x0, #0x0
ffffffff800025fc:	f9000001 	str	x1, [x0]
ffffffff80002600:	140000c5 	b	ffffffff80002914 <kfree+0x348>
ffffffff80002604:	f9400fe0 	ldr	x0, [sp, #24]
ffffffff80002608:	d1004000 	sub	x0, x0, #0x10
ffffffff8000260c:	39400000 	ldrb	w0, [x0]
ffffffff80002610:	92401c00 	and	x0, x0, #0xff
ffffffff80002614:	f9001fe0 	str	x0, [sp, #56]
ffffffff80002618:	f9401fe0 	ldr	x0, [sp, #56]
ffffffff8000261c:	f1007c1f 	cmp	x0, #0x1f
ffffffff80002620:	540000a8 	b.hi	ffffffff80002634 <kfree+0x68>  // b.pmore
ffffffff80002624:	f9400fe1 	ldr	x1, [sp, #24]
ffffffff80002628:	f9401fe0 	ldr	x0, [sp, #56]
ffffffff8000262c:	cb000020 	sub	x0, x1, x0
ffffffff80002630:	f9000fe0 	str	x0, [sp, #24]
ffffffff80002634:	94000136 	bl	ffffffff80002b0c <liballoc_lock>
ffffffff80002638:	f9400fe0 	ldr	x0, [sp, #24]
ffffffff8000263c:	d100a000 	sub	x0, x0, #0x28
ffffffff80002640:	f9001be0 	str	x0, [sp, #48]
ffffffff80002644:	f9401be0 	ldr	x0, [sp, #48]
ffffffff80002648:	b9401801 	ldr	w1, [x0, #24]
ffffffff8000264c:	52981bc0 	mov	w0, #0xc0de                	// #49374
ffffffff80002650:	72b80020 	movk	w0, #0xc001, lsl #16
ffffffff80002654:	6b00003f 	cmp	w1, w0
ffffffff80002658:	54000460 	b.eq	ffffffff800026e4 <kfree+0x118>  // b.none
ffffffff8000265c:	d0000140 	adrp	x0, ffffffff8002c000 <l_warningCount>
ffffffff80002660:	91002000 	add	x0, x0, #0x8
ffffffff80002664:	f9400000 	ldr	x0, [x0]
ffffffff80002668:	91000401 	add	x1, x0, #0x1
ffffffff8000266c:	d0000140 	adrp	x0, ffffffff8002c000 <l_warningCount>
ffffffff80002670:	91002000 	add	x0, x0, #0x8
ffffffff80002674:	f9000001 	str	x1, [x0]
ffffffff80002678:	f9401be0 	ldr	x0, [sp, #48]
ffffffff8000267c:	b9401800 	ldr	w0, [x0, #24]
ffffffff80002680:	12005c01 	and	w1, w0, #0xffffff
ffffffff80002684:	52981bc0 	mov	w0, #0xc0de                	// #49374
ffffffff80002688:	72a00020 	movk	w0, #0x1, lsl #16
ffffffff8000268c:	6b00003f 	cmp	w1, w0
ffffffff80002690:	54000180 	b.eq	ffffffff800026c0 <kfree+0xf4>  // b.none
ffffffff80002694:	f9401be0 	ldr	x0, [sp, #48]
ffffffff80002698:	b9401800 	ldr	w0, [x0, #24]
ffffffff8000269c:	12003c01 	and	w1, w0, #0xffff
ffffffff800026a0:	52981bc0 	mov	w0, #0xc0de                	// #49374
ffffffff800026a4:	6b00003f 	cmp	w1, w0
ffffffff800026a8:	540000c0 	b.eq	ffffffff800026c0 <kfree+0xf4>  // b.none
ffffffff800026ac:	f9401be0 	ldr	x0, [sp, #48]
ffffffff800026b0:	b9401800 	ldr	w0, [x0, #24]
ffffffff800026b4:	12001c00 	and	w0, w0, #0xff
ffffffff800026b8:	7103781f 	cmp	w0, #0xde
ffffffff800026bc:	54000101 	b.ne	ffffffff800026dc <kfree+0x110>  // b.any
ffffffff800026c0:	d0000140 	adrp	x0, ffffffff8002c000 <l_warningCount>
ffffffff800026c4:	91004000 	add	x0, x0, #0x10
ffffffff800026c8:	f9400000 	ldr	x0, [x0]
ffffffff800026cc:	91000401 	add	x1, x0, #0x1
ffffffff800026d0:	d0000140 	adrp	x0, ffffffff8002c000 <l_warningCount>
ffffffff800026d4:	91004000 	add	x0, x0, #0x10
ffffffff800026d8:	f9000001 	str	x1, [x0]
ffffffff800026dc:	94000115 	bl	ffffffff80002b30 <liballoc_unlock>
ffffffff800026e0:	1400008d 	b	ffffffff80002914 <kfree+0x348>
ffffffff800026e4:	f9401be0 	ldr	x0, [sp, #48]
ffffffff800026e8:	f9400800 	ldr	x0, [x0, #16]
ffffffff800026ec:	f90017e0 	str	x0, [sp, #40]
ffffffff800026f0:	b0000140 	adrp	x0, ffffffff8002b000 <combining.0+0xf6f0>
ffffffff800026f4:	913fe000 	add	x0, x0, #0xff8
ffffffff800026f8:	f9400001 	ldr	x1, [x0]
ffffffff800026fc:	f9401be0 	ldr	x0, [sp, #48]
ffffffff80002700:	b9401c00 	ldr	w0, [x0, #28]
ffffffff80002704:	2a0003e0 	mov	w0, w0
ffffffff80002708:	cb000021 	sub	x1, x1, x0
ffffffff8000270c:	b0000140 	adrp	x0, ffffffff8002b000 <combining.0+0xf6f0>
ffffffff80002710:	913fe000 	add	x0, x0, #0xff8
ffffffff80002714:	f9000001 	str	x1, [x0]
ffffffff80002718:	f94017e0 	ldr	x0, [sp, #40]
ffffffff8000271c:	b9401801 	ldr	w1, [x0, #24]
ffffffff80002720:	f9401be0 	ldr	x0, [sp, #48]
ffffffff80002724:	b9401c00 	ldr	w0, [x0, #28]
ffffffff80002728:	4b000020 	sub	w0, w1, w0
ffffffff8000272c:	5100a001 	sub	w1, w0, #0x28
ffffffff80002730:	f94017e0 	ldr	x0, [sp, #40]
ffffffff80002734:	b9001801 	str	w1, [x0, #24]
ffffffff80002738:	f9401be0 	ldr	x0, [sp, #48]
ffffffff8000273c:	529bd5a1 	mov	w1, #0xdead                	// #57005
ffffffff80002740:	72bbd5a1 	movk	w1, #0xdead, lsl #16
ffffffff80002744:	b9001801 	str	w1, [x0, #24]
ffffffff80002748:	f9401be0 	ldr	x0, [sp, #48]
ffffffff8000274c:	f9400400 	ldr	x0, [x0, #8]
ffffffff80002750:	f100001f 	cmp	x0, #0x0
ffffffff80002754:	540000c0 	b.eq	ffffffff8000276c <kfree+0x1a0>  // b.none
ffffffff80002758:	f9401be0 	ldr	x0, [sp, #48]
ffffffff8000275c:	f9400400 	ldr	x0, [x0, #8]
ffffffff80002760:	f9401be1 	ldr	x1, [sp, #48]
ffffffff80002764:	f9400021 	ldr	x1, [x1]
ffffffff80002768:	f9000001 	str	x1, [x0]
ffffffff8000276c:	f9401be0 	ldr	x0, [sp, #48]
ffffffff80002770:	f9400000 	ldr	x0, [x0]
ffffffff80002774:	f100001f 	cmp	x0, #0x0
ffffffff80002778:	540000c0 	b.eq	ffffffff80002790 <kfree+0x1c4>  // b.none
ffffffff8000277c:	f9401be0 	ldr	x0, [sp, #48]
ffffffff80002780:	f9400000 	ldr	x0, [x0]
ffffffff80002784:	f9401be1 	ldr	x1, [sp, #48]
ffffffff80002788:	f9400421 	ldr	x1, [x1, #8]
ffffffff8000278c:	f9000401 	str	x1, [x0, #8]
ffffffff80002790:	f9401be0 	ldr	x0, [sp, #48]
ffffffff80002794:	f9400000 	ldr	x0, [x0]
ffffffff80002798:	f100001f 	cmp	x0, #0x0
ffffffff8000279c:	540000a1 	b.ne	ffffffff800027b0 <kfree+0x1e4>  // b.any
ffffffff800027a0:	f9401be0 	ldr	x0, [sp, #48]
ffffffff800027a4:	f9400401 	ldr	x1, [x0, #8]
ffffffff800027a8:	f94017e0 	ldr	x0, [sp, #40]
ffffffff800027ac:	f9001001 	str	x1, [x0, #32]
ffffffff800027b0:	f94017e0 	ldr	x0, [sp, #40]
ffffffff800027b4:	f9401000 	ldr	x0, [x0, #32]
ffffffff800027b8:	f100001f 	cmp	x0, #0x0
ffffffff800027bc:	54000701 	b.ne	ffffffff8000289c <kfree+0x2d0>  // b.any
ffffffff800027c0:	b0000140 	adrp	x0, ffffffff8002b000 <combining.0+0xf6f0>
ffffffff800027c4:	913f8000 	add	x0, x0, #0xfe0
ffffffff800027c8:	f9400000 	ldr	x0, [x0]
ffffffff800027cc:	f94017e1 	ldr	x1, [sp, #40]
ffffffff800027d0:	eb00003f 	cmp	x1, x0
ffffffff800027d4:	540000c1 	b.ne	ffffffff800027ec <kfree+0x220>  // b.any
ffffffff800027d8:	f94017e0 	ldr	x0, [sp, #40]
ffffffff800027dc:	f9400401 	ldr	x1, [x0, #8]
ffffffff800027e0:	b0000140 	adrp	x0, ffffffff8002b000 <combining.0+0xf6f0>
ffffffff800027e4:	913f8000 	add	x0, x0, #0xfe0
ffffffff800027e8:	f9000001 	str	x1, [x0]
ffffffff800027ec:	b0000140 	adrp	x0, ffffffff8002b000 <combining.0+0xf6f0>
ffffffff800027f0:	913fa000 	add	x0, x0, #0xfe8
ffffffff800027f4:	f9400000 	ldr	x0, [x0]
ffffffff800027f8:	f94017e1 	ldr	x1, [sp, #40]
ffffffff800027fc:	eb00003f 	cmp	x1, x0
ffffffff80002800:	54000081 	b.ne	ffffffff80002810 <kfree+0x244>  // b.any
ffffffff80002804:	b0000140 	adrp	x0, ffffffff8002b000 <combining.0+0xf6f0>
ffffffff80002808:	913fa000 	add	x0, x0, #0xfe8
ffffffff8000280c:	f900001f 	str	xzr, [x0]
ffffffff80002810:	f94017e0 	ldr	x0, [sp, #40]
ffffffff80002814:	f9400000 	ldr	x0, [x0]
ffffffff80002818:	f100001f 	cmp	x0, #0x0
ffffffff8000281c:	540000c0 	b.eq	ffffffff80002834 <kfree+0x268>  // b.none
ffffffff80002820:	f94017e0 	ldr	x0, [sp, #40]
ffffffff80002824:	f9400000 	ldr	x0, [x0]
ffffffff80002828:	f94017e1 	ldr	x1, [sp, #40]
ffffffff8000282c:	f9400421 	ldr	x1, [x1, #8]
ffffffff80002830:	f9000401 	str	x1, [x0, #8]
ffffffff80002834:	f94017e0 	ldr	x0, [sp, #40]
ffffffff80002838:	f9400400 	ldr	x0, [x0, #8]
ffffffff8000283c:	f100001f 	cmp	x0, #0x0
ffffffff80002840:	540000c0 	b.eq	ffffffff80002858 <kfree+0x28c>  // b.none
ffffffff80002844:	f94017e0 	ldr	x0, [sp, #40]
ffffffff80002848:	f9400400 	ldr	x0, [x0, #8]
ffffffff8000284c:	f94017e1 	ldr	x1, [sp, #40]
ffffffff80002850:	f9400021 	ldr	x1, [x1]
ffffffff80002854:	f9000001 	str	x1, [x0]
ffffffff80002858:	b0000140 	adrp	x0, ffffffff8002b000 <combining.0+0xf6f0>
ffffffff8000285c:	913fc000 	add	x0, x0, #0xff0
ffffffff80002860:	f9400001 	ldr	x1, [x0]
ffffffff80002864:	f94017e0 	ldr	x0, [sp, #40]
ffffffff80002868:	b9401400 	ldr	w0, [x0, #20]
ffffffff8000286c:	2a0003e0 	mov	w0, w0
ffffffff80002870:	cb000021 	sub	x1, x1, x0
ffffffff80002874:	b0000140 	adrp	x0, ffffffff8002b000 <combining.0+0xf6f0>
ffffffff80002878:	913fc000 	add	x0, x0, #0xff0
ffffffff8000287c:	f9000001 	str	x1, [x0]
ffffffff80002880:	f94017e0 	ldr	x0, [sp, #40]
ffffffff80002884:	b9401000 	ldr	w0, [x0, #16]
ffffffff80002888:	2a0003e0 	mov	w0, w0
ffffffff8000288c:	aa0003e1 	mov	x1, x0
ffffffff80002890:	f94017e0 	ldr	x0, [sp, #40]
ffffffff80002894:	940000be 	bl	ffffffff80002b8c <liballoc_free>
ffffffff80002898:	1400001e 	b	ffffffff80002910 <kfree+0x344>
ffffffff8000289c:	b0000140 	adrp	x0, ffffffff8002b000 <combining.0+0xf6f0>
ffffffff800028a0:	913fa000 	add	x0, x0, #0xfe8
ffffffff800028a4:	f9400000 	ldr	x0, [x0]
ffffffff800028a8:	f100001f 	cmp	x0, #0x0
ffffffff800028ac:	54000320 	b.eq	ffffffff80002910 <kfree+0x344>  // b.none
ffffffff800028b0:	b0000140 	adrp	x0, ffffffff8002b000 <combining.0+0xf6f0>
ffffffff800028b4:	913fa000 	add	x0, x0, #0xfe8
ffffffff800028b8:	f9400000 	ldr	x0, [x0]
ffffffff800028bc:	b9401401 	ldr	w1, [x0, #20]
ffffffff800028c0:	b0000140 	adrp	x0, ffffffff8002b000 <combining.0+0xf6f0>
ffffffff800028c4:	913fa000 	add	x0, x0, #0xfe8
ffffffff800028c8:	f9400000 	ldr	x0, [x0]
ffffffff800028cc:	b9401800 	ldr	w0, [x0, #24]
ffffffff800028d0:	4b000020 	sub	w0, w1, w0
ffffffff800028d4:	b90027e0 	str	w0, [sp, #36]
ffffffff800028d8:	f94017e0 	ldr	x0, [sp, #40]
ffffffff800028dc:	b9401401 	ldr	w1, [x0, #20]
ffffffff800028e0:	f94017e0 	ldr	x0, [sp, #40]
ffffffff800028e4:	b9401800 	ldr	w0, [x0, #24]
ffffffff800028e8:	4b000020 	sub	w0, w1, w0
ffffffff800028ec:	b90023e0 	str	w0, [sp, #32]
ffffffff800028f0:	b94023e1 	ldr	w1, [sp, #32]
ffffffff800028f4:	b94027e0 	ldr	w0, [sp, #36]
ffffffff800028f8:	6b00003f 	cmp	w1, w0
ffffffff800028fc:	540000ad 	b.le	ffffffff80002910 <kfree+0x344>
ffffffff80002900:	b0000140 	adrp	x0, ffffffff8002b000 <combining.0+0xf6f0>
ffffffff80002904:	913fa000 	add	x0, x0, #0xfe8
ffffffff80002908:	f94017e1 	ldr	x1, [sp, #40]
ffffffff8000290c:	f9000001 	str	x1, [x0]
ffffffff80002910:	94000088 	bl	ffffffff80002b30 <liballoc_unlock>
ffffffff80002914:	a8c47bfd 	ldp	x29, x30, [sp], #64
ffffffff80002918:	d65f03c0 	ret

ffffffff8000291c <kcalloc>:
ffffffff8000291c:	a9bd7bfd 	stp	x29, x30, [sp, #-48]!
ffffffff80002920:	910003fd 	mov	x29, sp
ffffffff80002924:	f9000fe0 	str	x0, [sp, #24]
ffffffff80002928:	f9000be1 	str	x1, [sp, #16]
ffffffff8000292c:	f9400fe0 	ldr	x0, [sp, #24]
ffffffff80002930:	2a0003e1 	mov	w1, w0
ffffffff80002934:	f9400be0 	ldr	x0, [sp, #16]
ffffffff80002938:	1b007c20 	mul	w0, w1, w0
ffffffff8000293c:	b9002fe0 	str	w0, [sp, #44]
ffffffff80002940:	b9802fe0 	ldrsw	x0, [sp, #44]
ffffffff80002944:	97fffce8 	bl	ffffffff80001ce4 <kmalloc>
ffffffff80002948:	f90013e0 	str	x0, [sp, #32]
ffffffff8000294c:	b9802fe0 	ldrsw	x0, [sp, #44]
ffffffff80002950:	aa0003e2 	mov	x2, x0
ffffffff80002954:	52800001 	mov	w1, #0x0                   	// #0
ffffffff80002958:	f94013e0 	ldr	x0, [sp, #32]
ffffffff8000295c:	97fffc46 	bl	ffffffff80001a74 <liballoc_memset>
ffffffff80002960:	f94013e0 	ldr	x0, [sp, #32]
ffffffff80002964:	a8c37bfd 	ldp	x29, x30, [sp], #48
ffffffff80002968:	d65f03c0 	ret

ffffffff8000296c <krealloc>:
ffffffff8000296c:	a9bc7bfd 	stp	x29, x30, [sp, #-64]!
ffffffff80002970:	910003fd 	mov	x29, sp
ffffffff80002974:	f9000fe0 	str	x0, [sp, #24]
ffffffff80002978:	f9000be1 	str	x1, [sp, #16]
ffffffff8000297c:	f9400be0 	ldr	x0, [sp, #16]
ffffffff80002980:	f100001f 	cmp	x0, #0x0
ffffffff80002984:	540000a1 	b.ne	ffffffff80002998 <krealloc+0x2c>  // b.any
ffffffff80002988:	f9400fe0 	ldr	x0, [sp, #24]
ffffffff8000298c:	97ffff10 	bl	ffffffff800025cc <kfree>
ffffffff80002990:	d2800000 	mov	x0, #0x0                   	// #0
ffffffff80002994:	1400005c 	b	ffffffff80002b04 <krealloc+0x198>
ffffffff80002998:	f9400fe0 	ldr	x0, [sp, #24]
ffffffff8000299c:	f100001f 	cmp	x0, #0x0
ffffffff800029a0:	54000081 	b.ne	ffffffff800029b0 <krealloc+0x44>  // b.any
ffffffff800029a4:	f9400be0 	ldr	x0, [sp, #16]
ffffffff800029a8:	97fffccf 	bl	ffffffff80001ce4 <kmalloc>
ffffffff800029ac:	14000056 	b	ffffffff80002b04 <krealloc+0x198>
ffffffff800029b0:	f9400fe0 	ldr	x0, [sp, #24]
ffffffff800029b4:	f9001fe0 	str	x0, [sp, #56]
ffffffff800029b8:	f9401fe0 	ldr	x0, [sp, #56]
ffffffff800029bc:	d1004000 	sub	x0, x0, #0x10
ffffffff800029c0:	39400000 	ldrb	w0, [x0]
ffffffff800029c4:	92401c00 	and	x0, x0, #0xff
ffffffff800029c8:	f9001be0 	str	x0, [sp, #48]
ffffffff800029cc:	f9401be0 	ldr	x0, [sp, #48]
ffffffff800029d0:	f1007c1f 	cmp	x0, #0x1f
ffffffff800029d4:	540000a8 	b.hi	ffffffff800029e8 <krealloc+0x7c>  // b.pmore
ffffffff800029d8:	f9401fe1 	ldr	x1, [sp, #56]
ffffffff800029dc:	f9401be0 	ldr	x0, [sp, #48]
ffffffff800029e0:	cb000020 	sub	x0, x1, x0
ffffffff800029e4:	f9001fe0 	str	x0, [sp, #56]
ffffffff800029e8:	94000049 	bl	ffffffff80002b0c <liballoc_lock>
ffffffff800029ec:	f9401fe0 	ldr	x0, [sp, #56]
ffffffff800029f0:	d100a000 	sub	x0, x0, #0x28
ffffffff800029f4:	f90017e0 	str	x0, [sp, #40]
ffffffff800029f8:	f94017e0 	ldr	x0, [sp, #40]
ffffffff800029fc:	b9401801 	ldr	w1, [x0, #24]
ffffffff80002a00:	52981bc0 	mov	w0, #0xc0de                	// #49374
ffffffff80002a04:	72b80020 	movk	w0, #0xc001, lsl #16
ffffffff80002a08:	6b00003f 	cmp	w1, w0
ffffffff80002a0c:	54000480 	b.eq	ffffffff80002a9c <krealloc+0x130>  // b.none
ffffffff80002a10:	d0000140 	adrp	x0, ffffffff8002c000 <l_warningCount>
ffffffff80002a14:	91002000 	add	x0, x0, #0x8
ffffffff80002a18:	f9400000 	ldr	x0, [x0]
ffffffff80002a1c:	91000401 	add	x1, x0, #0x1
ffffffff80002a20:	d0000140 	adrp	x0, ffffffff8002c000 <l_warningCount>
ffffffff80002a24:	91002000 	add	x0, x0, #0x8
ffffffff80002a28:	f9000001 	str	x1, [x0]
ffffffff80002a2c:	f94017e0 	ldr	x0, [sp, #40]
ffffffff80002a30:	b9401800 	ldr	w0, [x0, #24]
ffffffff80002a34:	12005c01 	and	w1, w0, #0xffffff
ffffffff80002a38:	52981bc0 	mov	w0, #0xc0de                	// #49374
ffffffff80002a3c:	72a00020 	movk	w0, #0x1, lsl #16
ffffffff80002a40:	6b00003f 	cmp	w1, w0
ffffffff80002a44:	54000180 	b.eq	ffffffff80002a74 <krealloc+0x108>  // b.none
ffffffff80002a48:	f94017e0 	ldr	x0, [sp, #40]
ffffffff80002a4c:	b9401800 	ldr	w0, [x0, #24]
ffffffff80002a50:	12003c01 	and	w1, w0, #0xffff
ffffffff80002a54:	52981bc0 	mov	w0, #0xc0de                	// #49374
ffffffff80002a58:	6b00003f 	cmp	w1, w0
ffffffff80002a5c:	540000c0 	b.eq	ffffffff80002a74 <krealloc+0x108>  // b.none
ffffffff80002a60:	f94017e0 	ldr	x0, [sp, #40]
ffffffff80002a64:	b9401800 	ldr	w0, [x0, #24]
ffffffff80002a68:	12001c00 	and	w0, w0, #0xff
ffffffff80002a6c:	7103781f 	cmp	w0, #0xde
ffffffff80002a70:	54000101 	b.ne	ffffffff80002a90 <krealloc+0x124>  // b.any
ffffffff80002a74:	d0000140 	adrp	x0, ffffffff8002c000 <l_warningCount>
ffffffff80002a78:	91004000 	add	x0, x0, #0x10
ffffffff80002a7c:	f9400000 	ldr	x0, [x0]
ffffffff80002a80:	91000401 	add	x1, x0, #0x1
ffffffff80002a84:	d0000140 	adrp	x0, ffffffff8002c000 <l_warningCount>
ffffffff80002a88:	91004000 	add	x0, x0, #0x10
ffffffff80002a8c:	f9000001 	str	x1, [x0]
ffffffff80002a90:	94000028 	bl	ffffffff80002b30 <liballoc_unlock>
ffffffff80002a94:	d2800000 	mov	x0, #0x0                   	// #0
ffffffff80002a98:	1400001b 	b	ffffffff80002b04 <krealloc+0x198>
ffffffff80002a9c:	f94017e0 	ldr	x0, [sp, #40]
ffffffff80002aa0:	b9402000 	ldr	w0, [x0, #32]
ffffffff80002aa4:	b90027e0 	str	w0, [sp, #36]
ffffffff80002aa8:	b94027e0 	ldr	w0, [sp, #36]
ffffffff80002aac:	f9400be1 	ldr	x1, [sp, #16]
ffffffff80002ab0:	eb00003f 	cmp	x1, x0
ffffffff80002ab4:	54000108 	b.hi	ffffffff80002ad4 <krealloc+0x168>  // b.pmore
ffffffff80002ab8:	f9400be0 	ldr	x0, [sp, #16]
ffffffff80002abc:	2a0003e1 	mov	w1, w0
ffffffff80002ac0:	f94017e0 	ldr	x0, [sp, #40]
ffffffff80002ac4:	b9002001 	str	w1, [x0, #32]
ffffffff80002ac8:	9400001a 	bl	ffffffff80002b30 <liballoc_unlock>
ffffffff80002acc:	f9400fe0 	ldr	x0, [sp, #24]
ffffffff80002ad0:	1400000d 	b	ffffffff80002b04 <krealloc+0x198>
ffffffff80002ad4:	94000017 	bl	ffffffff80002b30 <liballoc_unlock>
ffffffff80002ad8:	f9400be0 	ldr	x0, [sp, #16]
ffffffff80002adc:	97fffc82 	bl	ffffffff80001ce4 <kmalloc>
ffffffff80002ae0:	f9001fe0 	str	x0, [sp, #56]
ffffffff80002ae4:	b94027e0 	ldr	w0, [sp, #36]
ffffffff80002ae8:	aa0003e2 	mov	x2, x0
ffffffff80002aec:	f9400fe1 	ldr	x1, [sp, #24]
ffffffff80002af0:	f9401fe0 	ldr	x0, [sp, #56]
ffffffff80002af4:	97fffbf6 	bl	ffffffff80001acc <liballoc_memcpy>
ffffffff80002af8:	f9400fe0 	ldr	x0, [sp, #24]
ffffffff80002afc:	97fffeb4 	bl	ffffffff800025cc <kfree>
ffffffff80002b00:	f9401fe0 	ldr	x0, [sp, #56]
ffffffff80002b04:	a8c47bfd 	ldp	x29, x30, [sp], #64
ffffffff80002b08:	d65f03c0 	ret

ffffffff80002b0c <liballoc_lock>:
ffffffff80002b0c:	a9bf7bfd 	stp	x29, x30, [sp, #-16]!
ffffffff80002b10:	910003fd 	mov	x29, sp
ffffffff80002b14:	d0000140 	adrp	x0, ffffffff8002c000 <l_warningCount>
ffffffff80002b18:	91006000 	add	x0, x0, #0x18
ffffffff80002b1c:	39400000 	ldrb	w0, [x0]
ffffffff80002b20:	97fffa9c 	bl	ffffffff80001590 <lock>
ffffffff80002b24:	52800000 	mov	w0, #0x0                   	// #0
ffffffff80002b28:	a8c17bfd 	ldp	x29, x30, [sp], #16
ffffffff80002b2c:	d65f03c0 	ret

ffffffff80002b30 <liballoc_unlock>:
ffffffff80002b30:	a9bf7bfd 	stp	x29, x30, [sp, #-16]!
ffffffff80002b34:	910003fd 	mov	x29, sp
ffffffff80002b38:	d0000140 	adrp	x0, ffffffff8002c000 <l_warningCount>
ffffffff80002b3c:	91006000 	add	x0, x0, #0x18
ffffffff80002b40:	39400000 	ldrb	w0, [x0]
ffffffff80002b44:	97fffaa0 	bl	ffffffff800015c4 <unlock>
ffffffff80002b48:	52800000 	mov	w0, #0x0                   	// #0
ffffffff80002b4c:	a8c17bfd 	ldp	x29, x30, [sp], #16
ffffffff80002b50:	d65f03c0 	ret

ffffffff80002b54 <liballoc_alloc>:
ffffffff80002b54:	a9bd7bfd 	stp	x29, x30, [sp, #-48]!
ffffffff80002b58:	910003fd 	mov	x29, sp
ffffffff80002b5c:	f9000bf3 	str	x19, [sp, #16]
ffffffff80002b60:	b9002fe0 	str	w0, [sp, #44]
ffffffff80002b64:	b0000140 	adrp	x0, ffffffff8002b000 <combining.0+0xf6f0>
ffffffff80002b68:	913d8000 	add	x0, x0, #0xf60
ffffffff80002b6c:	f9401400 	ldr	x0, [x0, #40]
ffffffff80002b70:	f9400413 	ldr	x19, [x0, #8]
ffffffff80002b74:	b9802fe0 	ldrsw	x0, [sp, #44]
ffffffff80002b78:	97fff9b4 	bl	ffffffff80001248 <kmalloc_pages>
ffffffff80002b7c:	8b000260 	add	x0, x19, x0
ffffffff80002b80:	f9400bf3 	ldr	x19, [sp, #16]
ffffffff80002b84:	a8c37bfd 	ldp	x29, x30, [sp], #48
ffffffff80002b88:	d65f03c0 	ret

ffffffff80002b8c <liballoc_free>:
ffffffff80002b8c:	a9be7bfd 	stp	x29, x30, [sp, #-32]!
ffffffff80002b90:	910003fd 	mov	x29, sp
ffffffff80002b94:	f9000fe0 	str	x0, [sp, #24]
ffffffff80002b98:	b90017e1 	str	w1, [sp, #20]
ffffffff80002b9c:	f9400fe0 	ldr	x0, [sp, #24]
ffffffff80002ba0:	b98017e1 	ldrsw	x1, [sp, #20]
ffffffff80002ba4:	97fffa2c 	bl	ffffffff80001454 <kfree_pages>
ffffffff80002ba8:	52800000 	mov	w0, #0x0                   	// #0
ffffffff80002bac:	a8c27bfd 	ldp	x29, x30, [sp], #32
ffffffff80002bb0:	d65f03c0 	ret

ffffffff80002bb4 <bump_alloc>:
ffffffff80002bb4:	d10083ff 	sub	sp, sp, #0x20
ffffffff80002bb8:	f90007e0 	str	x0, [sp, #8]
ffffffff80002bbc:	d0020140 	adrp	x0, ffffffff8402c000 <bump_alloc_pool+0x3ffffe0>
ffffffff80002bc0:	91008000 	add	x0, x0, #0x20
ffffffff80002bc4:	f9400000 	ldr	x0, [x0]
ffffffff80002bc8:	f94007e1 	ldr	x1, [sp, #8]
ffffffff80002bcc:	8b000020 	add	x0, x1, x0
ffffffff80002bd0:	f9000fe0 	str	x0, [sp, #24]
ffffffff80002bd4:	f9400fe1 	ldr	x1, [sp, #24]
ffffffff80002bd8:	d2a08000 	mov	x0, #0x4000000             	// #67108864
ffffffff80002bdc:	eb00003f 	cmp	x1, x0
ffffffff80002be0:	54000069 	b.ls	ffffffff80002bec <bump_alloc+0x38>  // b.plast
ffffffff80002be4:	d2800000 	mov	x0, #0x0                   	// #0
ffffffff80002be8:	1400000d 	b	ffffffff80002c1c <bump_alloc+0x68>
ffffffff80002bec:	d0020140 	adrp	x0, ffffffff8402c000 <bump_alloc_pool+0x3ffffe0>
ffffffff80002bf0:	91008000 	add	x0, x0, #0x20
ffffffff80002bf4:	f9400001 	ldr	x1, [x0]
ffffffff80002bf8:	d0000140 	adrp	x0, ffffffff8002c000 <l_warningCount>
ffffffff80002bfc:	91008000 	add	x0, x0, #0x20
ffffffff80002c00:	8b000020 	add	x0, x1, x0
ffffffff80002c04:	f9000be0 	str	x0, [sp, #16]
ffffffff80002c08:	d0020140 	adrp	x0, ffffffff8402c000 <bump_alloc_pool+0x3ffffe0>
ffffffff80002c0c:	91008000 	add	x0, x0, #0x20
ffffffff80002c10:	f9400fe1 	ldr	x1, [sp, #24]
ffffffff80002c14:	f9000001 	str	x1, [x0]
ffffffff80002c18:	f9400be0 	ldr	x0, [sp, #16]
ffffffff80002c1c:	910083ff 	add	sp, sp, #0x20
ffffffff80002c20:	d65f03c0 	ret

ffffffff80002c24 <flanterm_fb_save_state>:
ffffffff80002c24:	d10083ff 	sub	sp, sp, #0x20
ffffffff80002c28:	f90007e0 	str	x0, [sp, #8]
ffffffff80002c2c:	f94007e0 	ldr	x0, [sp, #8]
ffffffff80002c30:	f9000fe0 	str	x0, [sp, #24]
ffffffff80002c34:	f9400fe0 	ldr	x0, [sp, #24]
ffffffff80002c38:	b942d001 	ldr	w1, [x0, #720]
ffffffff80002c3c:	f9400fe0 	ldr	x0, [sp, #24]
ffffffff80002c40:	b902e801 	str	w1, [x0, #744]
ffffffff80002c44:	f9400fe0 	ldr	x0, [sp, #24]
ffffffff80002c48:	b942d401 	ldr	w1, [x0, #724]
ffffffff80002c4c:	f9400fe0 	ldr	x0, [sp, #24]
ffffffff80002c50:	b902ec01 	str	w1, [x0, #748]
ffffffff80002c54:	f9400fe0 	ldr	x0, [sp, #24]
ffffffff80002c58:	f9416c01 	ldr	x1, [x0, #728]
ffffffff80002c5c:	f9400fe0 	ldr	x0, [sp, #24]
ffffffff80002c60:	f9017801 	str	x1, [x0, #752]
ffffffff80002c64:	f9400fe0 	ldr	x0, [sp, #24]
ffffffff80002c68:	f9417001 	ldr	x1, [x0, #736]
ffffffff80002c6c:	f9400fe0 	ldr	x0, [sp, #24]
ffffffff80002c70:	f9017c01 	str	x1, [x0, #760]
ffffffff80002c74:	d503201f 	nop
ffffffff80002c78:	910083ff 	add	sp, sp, #0x20
ffffffff80002c7c:	d65f03c0 	ret

ffffffff80002c80 <flanterm_fb_restore_state>:
ffffffff80002c80:	d10083ff 	sub	sp, sp, #0x20
ffffffff80002c84:	f90007e0 	str	x0, [sp, #8]
ffffffff80002c88:	f94007e0 	ldr	x0, [sp, #8]
ffffffff80002c8c:	f9000fe0 	str	x0, [sp, #24]
ffffffff80002c90:	f9400fe0 	ldr	x0, [sp, #24]
ffffffff80002c94:	b942e801 	ldr	w1, [x0, #744]
ffffffff80002c98:	f9400fe0 	ldr	x0, [sp, #24]
ffffffff80002c9c:	b902d001 	str	w1, [x0, #720]
ffffffff80002ca0:	f9400fe0 	ldr	x0, [sp, #24]
ffffffff80002ca4:	b942ec01 	ldr	w1, [x0, #748]
ffffffff80002ca8:	f9400fe0 	ldr	x0, [sp, #24]
ffffffff80002cac:	b902d401 	str	w1, [x0, #724]
ffffffff80002cb0:	f9400fe0 	ldr	x0, [sp, #24]
ffffffff80002cb4:	f9417801 	ldr	x1, [x0, #752]
ffffffff80002cb8:	f9400fe0 	ldr	x0, [sp, #24]
ffffffff80002cbc:	f9016c01 	str	x1, [x0, #728]
ffffffff80002cc0:	f9400fe0 	ldr	x0, [sp, #24]
ffffffff80002cc4:	f9417c01 	ldr	x1, [x0, #760]
ffffffff80002cc8:	f9400fe0 	ldr	x0, [sp, #24]
ffffffff80002ccc:	f9017001 	str	x1, [x0, #736]
ffffffff80002cd0:	d503201f 	nop
ffffffff80002cd4:	910083ff 	add	sp, sp, #0x20
ffffffff80002cd8:	d65f03c0 	ret

ffffffff80002cdc <flanterm_fb_swap_palette>:
ffffffff80002cdc:	d10083ff 	sub	sp, sp, #0x20
ffffffff80002ce0:	f90007e0 	str	x0, [sp, #8]
ffffffff80002ce4:	f94007e0 	ldr	x0, [sp, #8]
ffffffff80002ce8:	f9000fe0 	str	x0, [sp, #24]
ffffffff80002cec:	f9400fe0 	ldr	x0, [sp, #24]
ffffffff80002cf0:	b942d400 	ldr	w0, [x0, #724]
ffffffff80002cf4:	b90017e0 	str	w0, [sp, #20]
ffffffff80002cf8:	f9400fe0 	ldr	x0, [sp, #24]
ffffffff80002cfc:	b942d001 	ldr	w1, [x0, #720]
ffffffff80002d00:	f9400fe0 	ldr	x0, [sp, #24]
ffffffff80002d04:	b902d401 	str	w1, [x0, #724]
ffffffff80002d08:	f9400fe0 	ldr	x0, [sp, #24]
ffffffff80002d0c:	b94017e1 	ldr	w1, [sp, #20]
ffffffff80002d10:	b902d001 	str	w1, [x0, #720]
ffffffff80002d14:	d503201f 	nop
ffffffff80002d18:	910083ff 	add	sp, sp, #0x20
ffffffff80002d1c:	d65f03c0 	ret

ffffffff80002d20 <plot_char>:
ffffffff80002d20:	d10203ff 	sub	sp, sp, #0x80
ffffffff80002d24:	f9000fe0 	str	x0, [sp, #24]
ffffffff80002d28:	f9000be1 	str	x1, [sp, #16]
ffffffff80002d2c:	f90007e2 	str	x2, [sp, #8]
ffffffff80002d30:	f90003e3 	str	x3, [sp]
ffffffff80002d34:	f9400fe0 	ldr	x0, [sp, #24]
ffffffff80002d38:	f90033e0 	str	x0, [sp, #96]
ffffffff80002d3c:	f9400fe0 	ldr	x0, [sp, #24]
ffffffff80002d40:	f9407400 	ldr	x0, [x0, #232]
ffffffff80002d44:	f94007e1 	ldr	x1, [sp, #8]
ffffffff80002d48:	eb00003f 	cmp	x1, x0
ffffffff80002d4c:	54001322 	b.cs	ffffffff80002fb0 <plot_char+0x290>  // b.hs, b.nlast
ffffffff80002d50:	f9400fe0 	ldr	x0, [sp, #24]
ffffffff80002d54:	f9407000 	ldr	x0, [x0, #224]
ffffffff80002d58:	f94003e1 	ldr	x1, [sp]
ffffffff80002d5c:	eb00003f 	cmp	x1, x0
ffffffff80002d60:	54001282 	b.cs	ffffffff80002fb0 <plot_char+0x290>  // b.hs, b.nlast
ffffffff80002d64:	f94033e0 	ldr	x0, [sp, #96]
ffffffff80002d68:	f940f001 	ldr	x1, [x0, #480]
ffffffff80002d6c:	f94033e0 	ldr	x0, [sp, #96]
ffffffff80002d70:	f940e002 	ldr	x2, [x0, #448]
ffffffff80002d74:	f94007e0 	ldr	x0, [sp, #8]
ffffffff80002d78:	9b007c40 	mul	x0, x2, x0
ffffffff80002d7c:	8b000020 	add	x0, x1, x0
ffffffff80002d80:	f90007e0 	str	x0, [sp, #8]
ffffffff80002d84:	f94033e0 	ldr	x0, [sp, #96]
ffffffff80002d88:	f940f401 	ldr	x1, [x0, #488]
ffffffff80002d8c:	f94033e0 	ldr	x0, [sp, #96]
ffffffff80002d90:	f940e402 	ldr	x2, [x0, #456]
ffffffff80002d94:	f94003e0 	ldr	x0, [sp]
ffffffff80002d98:	9b007c40 	mul	x0, x2, x0
ffffffff80002d9c:	8b000020 	add	x0, x1, x0
ffffffff80002da0:	f90003e0 	str	x0, [sp]
ffffffff80002da4:	f94033e0 	ldr	x0, [sp, #96]
ffffffff80002da8:	f9411801 	ldr	x1, [x0, #560]
ffffffff80002dac:	f9400be0 	ldr	x0, [sp, #16]
ffffffff80002db0:	b9400000 	ldr	w0, [x0]
ffffffff80002db4:	2a0003e2 	mov	w2, w0
ffffffff80002db8:	f94033e0 	ldr	x0, [sp, #96]
ffffffff80002dbc:	f940dc00 	ldr	x0, [x0, #440]
ffffffff80002dc0:	9b007c42 	mul	x2, x2, x0
ffffffff80002dc4:	f94033e0 	ldr	x0, [sp, #96]
ffffffff80002dc8:	f940d800 	ldr	x0, [x0, #432]
ffffffff80002dcc:	9b007c40 	mul	x0, x2, x0
ffffffff80002dd0:	8b000020 	add	x0, x1, x0
ffffffff80002dd4:	f9002fe0 	str	x0, [sp, #88]
ffffffff80002dd8:	f9003fff 	str	xzr, [sp, #120]
ffffffff80002ddc:	1400006f 	b	ffffffff80002f98 <plot_char+0x278>
ffffffff80002de0:	f94033e0 	ldr	x0, [sp, #96]
ffffffff80002de4:	f940ec00 	ldr	x0, [x0, #472]
ffffffff80002de8:	f9403fe1 	ldr	x1, [sp, #120]
ffffffff80002dec:	9ac00820 	udiv	x0, x1, x0
ffffffff80002df0:	39015fe0 	strb	w0, [sp, #87]
ffffffff80002df4:	f94033e0 	ldr	x0, [sp, #96]
ffffffff80002df8:	f940f801 	ldr	x1, [x0, #496]
ffffffff80002dfc:	f94003e2 	ldr	x2, [sp]
ffffffff80002e00:	f9403fe0 	ldr	x0, [sp, #120]
ffffffff80002e04:	8b000042 	add	x2, x2, x0
ffffffff80002e08:	f94033e0 	ldr	x0, [sp, #96]
ffffffff80002e0c:	f940fc00 	ldr	x0, [x0, #504]
ffffffff80002e10:	d342fc00 	lsr	x0, x0, #2
ffffffff80002e14:	9b007c42 	mul	x2, x2, x0
ffffffff80002e18:	f94007e0 	ldr	x0, [sp, #8]
ffffffff80002e1c:	8b000040 	add	x0, x2, x0
ffffffff80002e20:	d37ef400 	lsl	x0, x0, #2
ffffffff80002e24:	8b000020 	add	x0, x1, x0
ffffffff80002e28:	f90027e0 	str	x0, [sp, #72]
ffffffff80002e2c:	f94033e0 	ldr	x0, [sp, #96]
ffffffff80002e30:	f9414801 	ldr	x1, [x0, #656]
ffffffff80002e34:	f94003e2 	ldr	x2, [sp]
ffffffff80002e38:	f9403fe0 	ldr	x0, [sp, #120]
ffffffff80002e3c:	8b000042 	add	x2, x2, x0
ffffffff80002e40:	f94033e0 	ldr	x0, [sp, #96]
ffffffff80002e44:	f9410000 	ldr	x0, [x0, #512]
ffffffff80002e48:	9b007c42 	mul	x2, x2, x0
ffffffff80002e4c:	f94007e0 	ldr	x0, [sp, #8]
ffffffff80002e50:	8b000040 	add	x0, x2, x0
ffffffff80002e54:	d37ef400 	lsl	x0, x0, #2
ffffffff80002e58:	8b000020 	add	x0, x1, x0
ffffffff80002e5c:	f90023e0 	str	x0, [sp, #64]
ffffffff80002e60:	f9003bff 	str	xzr, [sp, #112]
ffffffff80002e64:	14000045 	b	ffffffff80002f78 <plot_char+0x258>
ffffffff80002e68:	39415fe1 	ldrb	w1, [sp, #87]
ffffffff80002e6c:	f94033e0 	ldr	x0, [sp, #96]
ffffffff80002e70:	f940d800 	ldr	x0, [x0, #432]
ffffffff80002e74:	9b007c21 	mul	x1, x1, x0
ffffffff80002e78:	f9403be0 	ldr	x0, [sp, #112]
ffffffff80002e7c:	8b000020 	add	x0, x1, x0
ffffffff80002e80:	f9402fe1 	ldr	x1, [sp, #88]
ffffffff80002e84:	8b000020 	add	x0, x1, x0
ffffffff80002e88:	39400000 	ldrb	w0, [x0]
ffffffff80002e8c:	3900ffe0 	strb	w0, [sp, #63]
ffffffff80002e90:	f90037ff 	str	xzr, [sp, #104]
ffffffff80002e94:	14000031 	b	ffffffff80002f58 <plot_char+0x238>
ffffffff80002e98:	f94033e0 	ldr	x0, [sp, #96]
ffffffff80002e9c:	f940e801 	ldr	x1, [x0, #464]
ffffffff80002ea0:	f9403be0 	ldr	x0, [sp, #112]
ffffffff80002ea4:	9b007c20 	mul	x0, x1, x0
ffffffff80002ea8:	f94037e1 	ldr	x1, [sp, #104]
ffffffff80002eac:	8b000020 	add	x0, x1, x0
ffffffff80002eb0:	f9001be0 	str	x0, [sp, #48]
ffffffff80002eb4:	f9400be0 	ldr	x0, [sp, #16]
ffffffff80002eb8:	b9400800 	ldr	w0, [x0, #8]
ffffffff80002ebc:	3100041f 	cmn	w0, #0x1
ffffffff80002ec0:	540000e1 	b.ne	ffffffff80002edc <plot_char+0x1bc>  // b.any
ffffffff80002ec4:	f9401be0 	ldr	x0, [sp, #48]
ffffffff80002ec8:	d37ef400 	lsl	x0, x0, #2
ffffffff80002ecc:	f94023e1 	ldr	x1, [sp, #64]
ffffffff80002ed0:	8b000020 	add	x0, x1, x0
ffffffff80002ed4:	b9400000 	ldr	w0, [x0]
ffffffff80002ed8:	14000003 	b	ffffffff80002ee4 <plot_char+0x1c4>
ffffffff80002edc:	f9400be0 	ldr	x0, [sp, #16]
ffffffff80002ee0:	b9400800 	ldr	w0, [x0, #8]
ffffffff80002ee4:	b9002fe0 	str	w0, [sp, #44]
ffffffff80002ee8:	f9400be0 	ldr	x0, [sp, #16]
ffffffff80002eec:	b9400400 	ldr	w0, [x0, #4]
ffffffff80002ef0:	3100041f 	cmn	w0, #0x1
ffffffff80002ef4:	540000e1 	b.ne	ffffffff80002f10 <plot_char+0x1f0>  // b.any
ffffffff80002ef8:	f9401be0 	ldr	x0, [sp, #48]
ffffffff80002efc:	d37ef400 	lsl	x0, x0, #2
ffffffff80002f00:	f94023e1 	ldr	x1, [sp, #64]
ffffffff80002f04:	8b000020 	add	x0, x1, x0
ffffffff80002f08:	b9400000 	ldr	w0, [x0]
ffffffff80002f0c:	14000003 	b	ffffffff80002f18 <plot_char+0x1f8>
ffffffff80002f10:	f9400be0 	ldr	x0, [sp, #16]
ffffffff80002f14:	b9400400 	ldr	w0, [x0, #4]
ffffffff80002f18:	b9002be0 	str	w0, [sp, #40]
ffffffff80002f1c:	3940ffe0 	ldrb	w0, [sp, #63]
ffffffff80002f20:	12000000 	and	w0, w0, #0x1
ffffffff80002f24:	7100001f 	cmp	w0, #0x0
ffffffff80002f28:	54000060 	b.eq	ffffffff80002f34 <plot_char+0x214>  // b.none
ffffffff80002f2c:	b9402be0 	ldr	w0, [sp, #40]
ffffffff80002f30:	14000002 	b	ffffffff80002f38 <plot_char+0x218>
ffffffff80002f34:	b9402fe0 	ldr	w0, [sp, #44]
ffffffff80002f38:	f9401be1 	ldr	x1, [sp, #48]
ffffffff80002f3c:	d37ef421 	lsl	x1, x1, #2
ffffffff80002f40:	f94027e2 	ldr	x2, [sp, #72]
ffffffff80002f44:	8b010041 	add	x1, x2, x1
ffffffff80002f48:	b9000020 	str	w0, [x1]
ffffffff80002f4c:	f94037e0 	ldr	x0, [sp, #104]
ffffffff80002f50:	91000400 	add	x0, x0, #0x1
ffffffff80002f54:	f90037e0 	str	x0, [sp, #104]
ffffffff80002f58:	f94033e0 	ldr	x0, [sp, #96]
ffffffff80002f5c:	f940e800 	ldr	x0, [x0, #464]
ffffffff80002f60:	f94037e1 	ldr	x1, [sp, #104]
ffffffff80002f64:	eb00003f 	cmp	x1, x0
ffffffff80002f68:	54fff983 	b.cc	ffffffff80002e98 <plot_char+0x178>  // b.lo, b.ul, b.last
ffffffff80002f6c:	f9403be0 	ldr	x0, [sp, #112]
ffffffff80002f70:	91000400 	add	x0, x0, #0x1
ffffffff80002f74:	f9003be0 	str	x0, [sp, #112]
ffffffff80002f78:	f94033e0 	ldr	x0, [sp, #96]
ffffffff80002f7c:	f940d800 	ldr	x0, [x0, #432]
ffffffff80002f80:	f9403be1 	ldr	x1, [sp, #112]
ffffffff80002f84:	eb00003f 	cmp	x1, x0
ffffffff80002f88:	54fff703 	b.cc	ffffffff80002e68 <plot_char+0x148>  // b.lo, b.ul, b.last
ffffffff80002f8c:	f9403fe0 	ldr	x0, [sp, #120]
ffffffff80002f90:	91000400 	add	x0, x0, #0x1
ffffffff80002f94:	f9003fe0 	str	x0, [sp, #120]
ffffffff80002f98:	f94033e0 	ldr	x0, [sp, #96]
ffffffff80002f9c:	f940e400 	ldr	x0, [x0, #456]
ffffffff80002fa0:	f9403fe1 	ldr	x1, [sp, #120]
ffffffff80002fa4:	eb00003f 	cmp	x1, x0
ffffffff80002fa8:	54fff1c3 	b.cc	ffffffff80002de0 <plot_char+0xc0>  // b.lo, b.ul, b.last
ffffffff80002fac:	14000002 	b	ffffffff80002fb4 <plot_char+0x294>
ffffffff80002fb0:	d503201f 	nop
ffffffff80002fb4:	910203ff 	add	sp, sp, #0x80
ffffffff80002fb8:	d65f03c0 	ret

ffffffff80002fbc <compare_char>:
ffffffff80002fbc:	d10043ff 	sub	sp, sp, #0x10
ffffffff80002fc0:	f90007e0 	str	x0, [sp, #8]
ffffffff80002fc4:	f90003e1 	str	x1, [sp]
ffffffff80002fc8:	f94007e0 	ldr	x0, [sp, #8]
ffffffff80002fcc:	b9400001 	ldr	w1, [x0]
ffffffff80002fd0:	f94003e0 	ldr	x0, [sp]
ffffffff80002fd4:	b9400000 	ldr	w0, [x0]
ffffffff80002fd8:	6b00003f 	cmp	w1, w0
ffffffff80002fdc:	540001e1 	b.ne	ffffffff80003018 <compare_char+0x5c>  // b.any
ffffffff80002fe0:	f94007e0 	ldr	x0, [sp, #8]
ffffffff80002fe4:	b9400801 	ldr	w1, [x0, #8]
ffffffff80002fe8:	f94003e0 	ldr	x0, [sp]
ffffffff80002fec:	b9400800 	ldr	w0, [x0, #8]
ffffffff80002ff0:	6b00003f 	cmp	w1, w0
ffffffff80002ff4:	54000121 	b.ne	ffffffff80003018 <compare_char+0x5c>  // b.any
ffffffff80002ff8:	f94007e0 	ldr	x0, [sp, #8]
ffffffff80002ffc:	b9400401 	ldr	w1, [x0, #4]
ffffffff80003000:	f94003e0 	ldr	x0, [sp]
ffffffff80003004:	b9400400 	ldr	w0, [x0, #4]
ffffffff80003008:	6b00003f 	cmp	w1, w0
ffffffff8000300c:	54000061 	b.ne	ffffffff80003018 <compare_char+0x5c>  // b.any
ffffffff80003010:	52800020 	mov	w0, #0x1                   	// #1
ffffffff80003014:	14000002 	b	ffffffff8000301c <compare_char+0x60>
ffffffff80003018:	52800000 	mov	w0, #0x0                   	// #0
ffffffff8000301c:	12000000 	and	w0, w0, #0x1
ffffffff80003020:	12001c00 	and	w0, w0, #0xff
ffffffff80003024:	910043ff 	add	sp, sp, #0x10
ffffffff80003028:	d65f03c0 	ret

ffffffff8000302c <push_to_queue>:
ffffffff8000302c:	a9bb7bfd 	stp	x29, x30, [sp, #-80]!
ffffffff80003030:	910003fd 	mov	x29, sp
ffffffff80003034:	f90017e0 	str	x0, [sp, #40]
ffffffff80003038:	f90013e1 	str	x1, [sp, #32]
ffffffff8000303c:	f9000fe2 	str	x2, [sp, #24]
ffffffff80003040:	f9000be3 	str	x3, [sp, #16]
ffffffff80003044:	f94017e0 	ldr	x0, [sp, #40]
ffffffff80003048:	f90023e0 	str	x0, [sp, #64]
ffffffff8000304c:	f94017e0 	ldr	x0, [sp, #40]
ffffffff80003050:	f9407400 	ldr	x0, [x0, #232]
ffffffff80003054:	f9400fe1 	ldr	x1, [sp, #24]
ffffffff80003058:	eb00003f 	cmp	x1, x0
ffffffff8000305c:	54000882 	b.cs	ffffffff8000316c <push_to_queue+0x140>  // b.hs, b.nlast
ffffffff80003060:	f94017e0 	ldr	x0, [sp, #40]
ffffffff80003064:	f9407000 	ldr	x0, [x0, #224]
ffffffff80003068:	f9400be1 	ldr	x1, [sp, #16]
ffffffff8000306c:	eb00003f 	cmp	x1, x0
ffffffff80003070:	540007e2 	b.cs	ffffffff8000316c <push_to_queue+0x140>  // b.hs, b.nlast
ffffffff80003074:	f94017e0 	ldr	x0, [sp, #40]
ffffffff80003078:	f9407401 	ldr	x1, [x0, #232]
ffffffff8000307c:	f9400be0 	ldr	x0, [sp, #16]
ffffffff80003080:	9b007c20 	mul	x0, x1, x0
ffffffff80003084:	f9400fe1 	ldr	x1, [sp, #24]
ffffffff80003088:	8b000020 	add	x0, x1, x0
ffffffff8000308c:	f9001fe0 	str	x0, [sp, #56]
ffffffff80003090:	f94023e0 	ldr	x0, [sp, #64]
ffffffff80003094:	f9416401 	ldr	x1, [x0, #712]
ffffffff80003098:	f9401fe0 	ldr	x0, [sp, #56]
ffffffff8000309c:	d37df000 	lsl	x0, x0, #3
ffffffff800030a0:	8b000020 	add	x0, x1, x0
ffffffff800030a4:	f9400000 	ldr	x0, [x0]
ffffffff800030a8:	f90027e0 	str	x0, [sp, #72]
ffffffff800030ac:	f94027e0 	ldr	x0, [sp, #72]
ffffffff800030b0:	f100001f 	cmp	x0, #0x0
ffffffff800030b4:	540004c1 	b.ne	ffffffff8000314c <push_to_queue+0x120>  // b.any
ffffffff800030b8:	f94023e0 	ldr	x0, [sp, #64]
ffffffff800030bc:	f9415802 	ldr	x2, [x0, #688]
ffffffff800030c0:	f9401fe1 	ldr	x1, [sp, #56]
ffffffff800030c4:	aa0103e0 	mov	x0, x1
ffffffff800030c8:	d37ff800 	lsl	x0, x0, #1
ffffffff800030cc:	8b010000 	add	x0, x0, x1
ffffffff800030d0:	d37ef400 	lsl	x0, x0, #2
ffffffff800030d4:	8b000040 	add	x0, x2, x0
ffffffff800030d8:	f94013e1 	ldr	x1, [sp, #32]
ffffffff800030dc:	97ffffb8 	bl	ffffffff80002fbc <compare_char>
ffffffff800030e0:	12001c00 	and	w0, w0, #0xff
ffffffff800030e4:	12000000 	and	w0, w0, #0x1
ffffffff800030e8:	7100001f 	cmp	w0, #0x0
ffffffff800030ec:	54000441 	b.ne	ffffffff80003174 <push_to_queue+0x148>  // b.any
ffffffff800030f0:	f94023e0 	ldr	x0, [sp, #64]
ffffffff800030f4:	f9415c01 	ldr	x1, [x0, #696]
ffffffff800030f8:	f94023e0 	ldr	x0, [sp, #64]
ffffffff800030fc:	f9416000 	ldr	x0, [x0, #704]
ffffffff80003100:	91000403 	add	x3, x0, #0x1
ffffffff80003104:	f94023e2 	ldr	x2, [sp, #64]
ffffffff80003108:	f9016043 	str	x3, [x2, #704]
ffffffff8000310c:	d37be800 	lsl	x0, x0, #5
ffffffff80003110:	8b000020 	add	x0, x1, x0
ffffffff80003114:	f90027e0 	str	x0, [sp, #72]
ffffffff80003118:	f94027e0 	ldr	x0, [sp, #72]
ffffffff8000311c:	f9400fe1 	ldr	x1, [sp, #24]
ffffffff80003120:	f9000001 	str	x1, [x0]
ffffffff80003124:	f94027e0 	ldr	x0, [sp, #72]
ffffffff80003128:	f9400be1 	ldr	x1, [sp, #16]
ffffffff8000312c:	f9000401 	str	x1, [x0, #8]
ffffffff80003130:	f94023e0 	ldr	x0, [sp, #64]
ffffffff80003134:	f9416401 	ldr	x1, [x0, #712]
ffffffff80003138:	f9401fe0 	ldr	x0, [sp, #56]
ffffffff8000313c:	d37df000 	lsl	x0, x0, #3
ffffffff80003140:	8b000020 	add	x0, x1, x0
ffffffff80003144:	f94027e1 	ldr	x1, [sp, #72]
ffffffff80003148:	f9000001 	str	x1, [x0]
ffffffff8000314c:	f94027e0 	ldr	x0, [sp, #72]
ffffffff80003150:	91004000 	add	x0, x0, #0x10
ffffffff80003154:	f94013e1 	ldr	x1, [sp, #32]
ffffffff80003158:	f9400022 	ldr	x2, [x1]
ffffffff8000315c:	f9000002 	str	x2, [x0]
ffffffff80003160:	b9400821 	ldr	w1, [x1, #8]
ffffffff80003164:	b9000801 	str	w1, [x0, #8]
ffffffff80003168:	14000004 	b	ffffffff80003178 <push_to_queue+0x14c>
ffffffff8000316c:	d503201f 	nop
ffffffff80003170:	14000002 	b	ffffffff80003178 <push_to_queue+0x14c>
ffffffff80003174:	d503201f 	nop
ffffffff80003178:	a8c57bfd 	ldp	x29, x30, [sp], #80
ffffffff8000317c:	d65f03c0 	ret

ffffffff80003180 <flanterm_fb_revscroll>:
ffffffff80003180:	a9ba7bfd 	stp	x29, x30, [sp, #-96]!
ffffffff80003184:	910003fd 	mov	x29, sp
ffffffff80003188:	f9000fe0 	str	x0, [sp, #24]
ffffffff8000318c:	f9400fe0 	ldr	x0, [sp, #24]
ffffffff80003190:	f90023e0 	str	x0, [sp, #64]
ffffffff80003194:	f9400fe0 	ldr	x0, [sp, #24]
ffffffff80003198:	f9403800 	ldr	x0, [x0, #112]
ffffffff8000319c:	d1000401 	sub	x1, x0, #0x1
ffffffff800031a0:	f9400fe0 	ldr	x0, [sp, #24]
ffffffff800031a4:	f9407400 	ldr	x0, [x0, #232]
ffffffff800031a8:	9b007c20 	mul	x0, x1, x0
ffffffff800031ac:	d1000400 	sub	x0, x0, #0x1
ffffffff800031b0:	f9002fe0 	str	x0, [sp, #88]
ffffffff800031b4:	14000032 	b	ffffffff8000327c <flanterm_fb_revscroll+0xfc>
ffffffff800031b8:	f9402fe0 	ldr	x0, [sp, #88]
ffffffff800031bc:	b100041f 	cmn	x0, #0x1
ffffffff800031c0:	54000700 	b.eq	ffffffff800032a0 <flanterm_fb_revscroll+0x120>  // b.none
ffffffff800031c4:	f94023e0 	ldr	x0, [sp, #64]
ffffffff800031c8:	f9416401 	ldr	x1, [x0, #712]
ffffffff800031cc:	f9402fe0 	ldr	x0, [sp, #88]
ffffffff800031d0:	d37df000 	lsl	x0, x0, #3
ffffffff800031d4:	8b000020 	add	x0, x1, x0
ffffffff800031d8:	f9400000 	ldr	x0, [x0]
ffffffff800031dc:	f9001fe0 	str	x0, [sp, #56]
ffffffff800031e0:	f9401fe0 	ldr	x0, [sp, #56]
ffffffff800031e4:	f100001f 	cmp	x0, #0x0
ffffffff800031e8:	540000a0 	b.eq	ffffffff800031fc <flanterm_fb_revscroll+0x7c>  // b.none
ffffffff800031ec:	f9401fe0 	ldr	x0, [sp, #56]
ffffffff800031f0:	91004000 	add	x0, x0, #0x10
ffffffff800031f4:	f9002be0 	str	x0, [sp, #80]
ffffffff800031f8:	1400000a 	b	ffffffff80003220 <flanterm_fb_revscroll+0xa0>
ffffffff800031fc:	f94023e0 	ldr	x0, [sp, #64]
ffffffff80003200:	f9415802 	ldr	x2, [x0, #688]
ffffffff80003204:	f9402fe1 	ldr	x1, [sp, #88]
ffffffff80003208:	aa0103e0 	mov	x0, x1
ffffffff8000320c:	d37ff800 	lsl	x0, x0, #1
ffffffff80003210:	8b010000 	add	x0, x0, x1
ffffffff80003214:	d37ef400 	lsl	x0, x0, #2
ffffffff80003218:	8b000040 	add	x0, x2, x0
ffffffff8000321c:	f9002be0 	str	x0, [sp, #80]
ffffffff80003220:	f9400fe0 	ldr	x0, [sp, #24]
ffffffff80003224:	f9407401 	ldr	x1, [x0, #232]
ffffffff80003228:	f9402fe0 	ldr	x0, [sp, #88]
ffffffff8000322c:	8b000020 	add	x0, x1, x0
ffffffff80003230:	f9400fe1 	ldr	x1, [sp, #24]
ffffffff80003234:	f9407421 	ldr	x1, [x1, #232]
ffffffff80003238:	9ac10802 	udiv	x2, x0, x1
ffffffff8000323c:	9b017c41 	mul	x1, x2, x1
ffffffff80003240:	cb010002 	sub	x2, x0, x1
ffffffff80003244:	f9400fe0 	ldr	x0, [sp, #24]
ffffffff80003248:	f9407401 	ldr	x1, [x0, #232]
ffffffff8000324c:	f9402fe0 	ldr	x0, [sp, #88]
ffffffff80003250:	8b000021 	add	x1, x1, x0
ffffffff80003254:	f9400fe0 	ldr	x0, [sp, #24]
ffffffff80003258:	f9407400 	ldr	x0, [x0, #232]
ffffffff8000325c:	9ac00820 	udiv	x0, x1, x0
ffffffff80003260:	aa0003e3 	mov	x3, x0
ffffffff80003264:	f9402be1 	ldr	x1, [sp, #80]
ffffffff80003268:	f9400fe0 	ldr	x0, [sp, #24]
ffffffff8000326c:	97ffff70 	bl	ffffffff8000302c <push_to_queue>
ffffffff80003270:	f9402fe0 	ldr	x0, [sp, #88]
ffffffff80003274:	d1000400 	sub	x0, x0, #0x1
ffffffff80003278:	f9002fe0 	str	x0, [sp, #88]
ffffffff8000327c:	f9400fe0 	ldr	x0, [sp, #24]
ffffffff80003280:	f9403401 	ldr	x1, [x0, #104]
ffffffff80003284:	f9400fe0 	ldr	x0, [sp, #24]
ffffffff80003288:	f9407400 	ldr	x0, [x0, #232]
ffffffff8000328c:	9b007c20 	mul	x0, x1, x0
ffffffff80003290:	f9402fe1 	ldr	x1, [sp, #88]
ffffffff80003294:	eb00003f 	cmp	x1, x0
ffffffff80003298:	54fff902 	b.cs	ffffffff800031b8 <flanterm_fb_revscroll+0x38>  // b.hs, b.nlast
ffffffff8000329c:	14000002 	b	ffffffff800032a4 <flanterm_fb_revscroll+0x124>
ffffffff800032a0:	d503201f 	nop
ffffffff800032a4:	52800400 	mov	w0, #0x20                  	// #32
ffffffff800032a8:	b9002be0 	str	w0, [sp, #40]
ffffffff800032ac:	f94023e0 	ldr	x0, [sp, #64]
ffffffff800032b0:	b942d000 	ldr	w0, [x0, #720]
ffffffff800032b4:	b9002fe0 	str	w0, [sp, #44]
ffffffff800032b8:	f94023e0 	ldr	x0, [sp, #64]
ffffffff800032bc:	b942d400 	ldr	w0, [x0, #724]
ffffffff800032c0:	b90033e0 	str	w0, [sp, #48]
ffffffff800032c4:	f90027ff 	str	xzr, [sp, #72]
ffffffff800032c8:	1400000c 	b	ffffffff800032f8 <flanterm_fb_revscroll+0x178>
ffffffff800032cc:	f9400fe0 	ldr	x0, [sp, #24]
ffffffff800032d0:	f9403401 	ldr	x1, [x0, #104]
ffffffff800032d4:	9100a3e0 	add	x0, sp, #0x28
ffffffff800032d8:	aa0103e3 	mov	x3, x1
ffffffff800032dc:	f94027e2 	ldr	x2, [sp, #72]
ffffffff800032e0:	aa0003e1 	mov	x1, x0
ffffffff800032e4:	f9400fe0 	ldr	x0, [sp, #24]
ffffffff800032e8:	97ffff51 	bl	ffffffff8000302c <push_to_queue>
ffffffff800032ec:	f94027e0 	ldr	x0, [sp, #72]
ffffffff800032f0:	91000400 	add	x0, x0, #0x1
ffffffff800032f4:	f90027e0 	str	x0, [sp, #72]
ffffffff800032f8:	f9400fe0 	ldr	x0, [sp, #24]
ffffffff800032fc:	f9407400 	ldr	x0, [x0, #232]
ffffffff80003300:	f94027e1 	ldr	x1, [sp, #72]
ffffffff80003304:	eb00003f 	cmp	x1, x0
ffffffff80003308:	54fffe23 	b.cc	ffffffff800032cc <flanterm_fb_revscroll+0x14c>  // b.lo, b.ul, b.last
ffffffff8000330c:	d503201f 	nop
ffffffff80003310:	d503201f 	nop
ffffffff80003314:	a8c67bfd 	ldp	x29, x30, [sp], #96
ffffffff80003318:	d65f03c0 	ret

ffffffff8000331c <flanterm_fb_scroll>:
ffffffff8000331c:	a9ba7bfd 	stp	x29, x30, [sp, #-96]!
ffffffff80003320:	910003fd 	mov	x29, sp
ffffffff80003324:	f9000fe0 	str	x0, [sp, #24]
ffffffff80003328:	f9400fe0 	ldr	x0, [sp, #24]
ffffffff8000332c:	f90023e0 	str	x0, [sp, #64]
ffffffff80003330:	f9400fe0 	ldr	x0, [sp, #24]
ffffffff80003334:	f9403400 	ldr	x0, [x0, #104]
ffffffff80003338:	91000401 	add	x1, x0, #0x1
ffffffff8000333c:	f9400fe0 	ldr	x0, [sp, #24]
ffffffff80003340:	f9407400 	ldr	x0, [x0, #232]
ffffffff80003344:	9b007c20 	mul	x0, x1, x0
ffffffff80003348:	f9002fe0 	str	x0, [sp, #88]
ffffffff8000334c:	1400002f 	b	ffffffff80003408 <flanterm_fb_scroll+0xec>
ffffffff80003350:	f94023e0 	ldr	x0, [sp, #64]
ffffffff80003354:	f9416401 	ldr	x1, [x0, #712]
ffffffff80003358:	f9402fe0 	ldr	x0, [sp, #88]
ffffffff8000335c:	d37df000 	lsl	x0, x0, #3
ffffffff80003360:	8b000020 	add	x0, x1, x0
ffffffff80003364:	f9400000 	ldr	x0, [x0]
ffffffff80003368:	f9001fe0 	str	x0, [sp, #56]
ffffffff8000336c:	f9401fe0 	ldr	x0, [sp, #56]
ffffffff80003370:	f100001f 	cmp	x0, #0x0
ffffffff80003374:	540000a0 	b.eq	ffffffff80003388 <flanterm_fb_scroll+0x6c>  // b.none
ffffffff80003378:	f9401fe0 	ldr	x0, [sp, #56]
ffffffff8000337c:	91004000 	add	x0, x0, #0x10
ffffffff80003380:	f9002be0 	str	x0, [sp, #80]
ffffffff80003384:	1400000a 	b	ffffffff800033ac <flanterm_fb_scroll+0x90>
ffffffff80003388:	f94023e0 	ldr	x0, [sp, #64]
ffffffff8000338c:	f9415802 	ldr	x2, [x0, #688]
ffffffff80003390:	f9402fe1 	ldr	x1, [sp, #88]
ffffffff80003394:	aa0103e0 	mov	x0, x1
ffffffff80003398:	d37ff800 	lsl	x0, x0, #1
ffffffff8000339c:	8b010000 	add	x0, x0, x1
ffffffff800033a0:	d37ef400 	lsl	x0, x0, #2
ffffffff800033a4:	8b000040 	add	x0, x2, x0
ffffffff800033a8:	f9002be0 	str	x0, [sp, #80]
ffffffff800033ac:	f9400fe0 	ldr	x0, [sp, #24]
ffffffff800033b0:	f9407400 	ldr	x0, [x0, #232]
ffffffff800033b4:	f9402fe1 	ldr	x1, [sp, #88]
ffffffff800033b8:	cb000020 	sub	x0, x1, x0
ffffffff800033bc:	f9400fe1 	ldr	x1, [sp, #24]
ffffffff800033c0:	f9407421 	ldr	x1, [x1, #232]
ffffffff800033c4:	9ac10802 	udiv	x2, x0, x1
ffffffff800033c8:	9b017c41 	mul	x1, x2, x1
ffffffff800033cc:	cb010002 	sub	x2, x0, x1
ffffffff800033d0:	f9400fe0 	ldr	x0, [sp, #24]
ffffffff800033d4:	f9407400 	ldr	x0, [x0, #232]
ffffffff800033d8:	f9402fe1 	ldr	x1, [sp, #88]
ffffffff800033dc:	cb000021 	sub	x1, x1, x0
ffffffff800033e0:	f9400fe0 	ldr	x0, [sp, #24]
ffffffff800033e4:	f9407400 	ldr	x0, [x0, #232]
ffffffff800033e8:	9ac00820 	udiv	x0, x1, x0
ffffffff800033ec:	aa0003e3 	mov	x3, x0
ffffffff800033f0:	f9402be1 	ldr	x1, [sp, #80]
ffffffff800033f4:	f9400fe0 	ldr	x0, [sp, #24]
ffffffff800033f8:	97ffff0d 	bl	ffffffff8000302c <push_to_queue>
ffffffff800033fc:	f9402fe0 	ldr	x0, [sp, #88]
ffffffff80003400:	91000400 	add	x0, x0, #0x1
ffffffff80003404:	f9002fe0 	str	x0, [sp, #88]
ffffffff80003408:	f9400fe0 	ldr	x0, [sp, #24]
ffffffff8000340c:	f9403801 	ldr	x1, [x0, #112]
ffffffff80003410:	f9400fe0 	ldr	x0, [sp, #24]
ffffffff80003414:	f9407400 	ldr	x0, [x0, #232]
ffffffff80003418:	9b007c20 	mul	x0, x1, x0
ffffffff8000341c:	f9402fe1 	ldr	x1, [sp, #88]
ffffffff80003420:	eb00003f 	cmp	x1, x0
ffffffff80003424:	54fff963 	b.cc	ffffffff80003350 <flanterm_fb_scroll+0x34>  // b.lo, b.ul, b.last
ffffffff80003428:	52800400 	mov	w0, #0x20                  	// #32
ffffffff8000342c:	b9002be0 	str	w0, [sp, #40]
ffffffff80003430:	f94023e0 	ldr	x0, [sp, #64]
ffffffff80003434:	b942d000 	ldr	w0, [x0, #720]
ffffffff80003438:	b9002fe0 	str	w0, [sp, #44]
ffffffff8000343c:	f94023e0 	ldr	x0, [sp, #64]
ffffffff80003440:	b942d400 	ldr	w0, [x0, #724]
ffffffff80003444:	b90033e0 	str	w0, [sp, #48]
ffffffff80003448:	f90027ff 	str	xzr, [sp, #72]
ffffffff8000344c:	1400000d 	b	ffffffff80003480 <flanterm_fb_scroll+0x164>
ffffffff80003450:	f9400fe0 	ldr	x0, [sp, #24]
ffffffff80003454:	f9403800 	ldr	x0, [x0, #112]
ffffffff80003458:	d1000401 	sub	x1, x0, #0x1
ffffffff8000345c:	9100a3e0 	add	x0, sp, #0x28
ffffffff80003460:	aa0103e3 	mov	x3, x1
ffffffff80003464:	f94027e2 	ldr	x2, [sp, #72]
ffffffff80003468:	aa0003e1 	mov	x1, x0
ffffffff8000346c:	f9400fe0 	ldr	x0, [sp, #24]
ffffffff80003470:	97fffeef 	bl	ffffffff8000302c <push_to_queue>
ffffffff80003474:	f94027e0 	ldr	x0, [sp, #72]
ffffffff80003478:	91000400 	add	x0, x0, #0x1
ffffffff8000347c:	f90027e0 	str	x0, [sp, #72]
ffffffff80003480:	f9400fe0 	ldr	x0, [sp, #24]
ffffffff80003484:	f9407400 	ldr	x0, [x0, #232]
ffffffff80003488:	f94027e1 	ldr	x1, [sp, #72]
ffffffff8000348c:	eb00003f 	cmp	x1, x0
ffffffff80003490:	54fffe03 	b.cc	ffffffff80003450 <flanterm_fb_scroll+0x134>  // b.lo, b.ul, b.last
ffffffff80003494:	d503201f 	nop
ffffffff80003498:	d503201f 	nop
ffffffff8000349c:	a8c67bfd 	ldp	x29, x30, [sp], #96
ffffffff800034a0:	d65f03c0 	ret

ffffffff800034a4 <flanterm_fb_clear>:
ffffffff800034a4:	a9bc7bfd 	stp	x29, x30, [sp, #-64]!
ffffffff800034a8:	910003fd 	mov	x29, sp
ffffffff800034ac:	f9000fe0 	str	x0, [sp, #24]
ffffffff800034b0:	39005fe1 	strb	w1, [sp, #23]
ffffffff800034b4:	f9400fe0 	ldr	x0, [sp, #24]
ffffffff800034b8:	f9001be0 	str	x0, [sp, #48]
ffffffff800034bc:	52800400 	mov	w0, #0x20                  	// #32
ffffffff800034c0:	b90023e0 	str	w0, [sp, #32]
ffffffff800034c4:	f9401be0 	ldr	x0, [sp, #48]
ffffffff800034c8:	b942d000 	ldr	w0, [x0, #720]
ffffffff800034cc:	b90027e0 	str	w0, [sp, #36]
ffffffff800034d0:	f9401be0 	ldr	x0, [sp, #48]
ffffffff800034d4:	b942d400 	ldr	w0, [x0, #724]
ffffffff800034d8:	b9002be0 	str	w0, [sp, #40]
ffffffff800034dc:	f9001fff 	str	xzr, [sp, #56]
ffffffff800034e0:	14000013 	b	ffffffff8000352c <flanterm_fb_clear+0x88>
ffffffff800034e4:	f9400fe0 	ldr	x0, [sp, #24]
ffffffff800034e8:	f9407401 	ldr	x1, [x0, #232]
ffffffff800034ec:	f9401fe0 	ldr	x0, [sp, #56]
ffffffff800034f0:	9ac10802 	udiv	x2, x0, x1
ffffffff800034f4:	9b017c41 	mul	x1, x2, x1
ffffffff800034f8:	cb010002 	sub	x2, x0, x1
ffffffff800034fc:	f9400fe0 	ldr	x0, [sp, #24]
ffffffff80003500:	f9407400 	ldr	x0, [x0, #232]
ffffffff80003504:	f9401fe1 	ldr	x1, [sp, #56]
ffffffff80003508:	9ac00821 	udiv	x1, x1, x0
ffffffff8000350c:	910083e0 	add	x0, sp, #0x20
ffffffff80003510:	aa0103e3 	mov	x3, x1
ffffffff80003514:	aa0003e1 	mov	x1, x0
ffffffff80003518:	f9400fe0 	ldr	x0, [sp, #24]
ffffffff8000351c:	97fffec4 	bl	ffffffff8000302c <push_to_queue>
ffffffff80003520:	f9401fe0 	ldr	x0, [sp, #56]
ffffffff80003524:	91000400 	add	x0, x0, #0x1
ffffffff80003528:	f9001fe0 	str	x0, [sp, #56]
ffffffff8000352c:	f9400fe0 	ldr	x0, [sp, #24]
ffffffff80003530:	f9407001 	ldr	x1, [x0, #224]
ffffffff80003534:	f9400fe0 	ldr	x0, [sp, #24]
ffffffff80003538:	f9407400 	ldr	x0, [x0, #232]
ffffffff8000353c:	9b007c20 	mul	x0, x1, x0
ffffffff80003540:	f9401fe1 	ldr	x1, [sp, #56]
ffffffff80003544:	eb00003f 	cmp	x1, x0
ffffffff80003548:	54fffce3 	b.cc	ffffffff800034e4 <flanterm_fb_clear+0x40>  // b.lo, b.ul, b.last
ffffffff8000354c:	39405fe0 	ldrb	w0, [sp, #23]
ffffffff80003550:	12000000 	and	w0, w0, #0x1
ffffffff80003554:	7100001f 	cmp	w0, #0x0
ffffffff80003558:	540000a0 	b.eq	ffffffff8000356c <flanterm_fb_clear+0xc8>  // b.none
ffffffff8000355c:	f9401be0 	ldr	x0, [sp, #48]
ffffffff80003560:	f9016c1f 	str	xzr, [x0, #728]
ffffffff80003564:	f9401be0 	ldr	x0, [sp, #48]
ffffffff80003568:	f901701f 	str	xzr, [x0, #736]
ffffffff8000356c:	d503201f 	nop
ffffffff80003570:	a8c47bfd 	ldp	x29, x30, [sp], #64
ffffffff80003574:	d65f03c0 	ret

ffffffff80003578 <flanterm_fb_set_cursor_pos>:
ffffffff80003578:	d100c3ff 	sub	sp, sp, #0x30
ffffffff8000357c:	f9000fe0 	str	x0, [sp, #24]
ffffffff80003580:	f9000be1 	str	x1, [sp, #16]
ffffffff80003584:	f90007e2 	str	x2, [sp, #8]
ffffffff80003588:	f9400fe0 	ldr	x0, [sp, #24]
ffffffff8000358c:	f90017e0 	str	x0, [sp, #40]
ffffffff80003590:	f9400fe0 	ldr	x0, [sp, #24]
ffffffff80003594:	f9407400 	ldr	x0, [x0, #232]
ffffffff80003598:	f9400be1 	ldr	x1, [sp, #16]
ffffffff8000359c:	eb00003f 	cmp	x1, x0
ffffffff800035a0:	54000143 	b.cc	ffffffff800035c8 <flanterm_fb_set_cursor_pos+0x50>  // b.lo, b.ul, b.last
ffffffff800035a4:	f9400be0 	ldr	x0, [sp, #16]
ffffffff800035a8:	7100001f 	cmp	w0, #0x0
ffffffff800035ac:	5400006a 	b.ge	ffffffff800035b8 <flanterm_fb_set_cursor_pos+0x40>  // b.tcont
ffffffff800035b0:	f9000bff 	str	xzr, [sp, #16]
ffffffff800035b4:	14000005 	b	ffffffff800035c8 <flanterm_fb_set_cursor_pos+0x50>
ffffffff800035b8:	f9400fe0 	ldr	x0, [sp, #24]
ffffffff800035bc:	f9407400 	ldr	x0, [x0, #232]
ffffffff800035c0:	d1000400 	sub	x0, x0, #0x1
ffffffff800035c4:	f9000be0 	str	x0, [sp, #16]
ffffffff800035c8:	f9400fe0 	ldr	x0, [sp, #24]
ffffffff800035cc:	f9407000 	ldr	x0, [x0, #224]
ffffffff800035d0:	f94007e1 	ldr	x1, [sp, #8]
ffffffff800035d4:	eb00003f 	cmp	x1, x0
ffffffff800035d8:	54000143 	b.cc	ffffffff80003600 <flanterm_fb_set_cursor_pos+0x88>  // b.lo, b.ul, b.last
ffffffff800035dc:	f94007e0 	ldr	x0, [sp, #8]
ffffffff800035e0:	7100001f 	cmp	w0, #0x0
ffffffff800035e4:	5400006a 	b.ge	ffffffff800035f0 <flanterm_fb_set_cursor_pos+0x78>  // b.tcont
ffffffff800035e8:	f90007ff 	str	xzr, [sp, #8]
ffffffff800035ec:	14000005 	b	ffffffff80003600 <flanterm_fb_set_cursor_pos+0x88>
ffffffff800035f0:	f9400fe0 	ldr	x0, [sp, #24]
ffffffff800035f4:	f9407000 	ldr	x0, [x0, #224]
ffffffff800035f8:	d1000400 	sub	x0, x0, #0x1
ffffffff800035fc:	f90007e0 	str	x0, [sp, #8]
ffffffff80003600:	f94017e0 	ldr	x0, [sp, #40]
ffffffff80003604:	f9400be1 	ldr	x1, [sp, #16]
ffffffff80003608:	f9016c01 	str	x1, [x0, #728]
ffffffff8000360c:	f94017e0 	ldr	x0, [sp, #40]
ffffffff80003610:	f94007e1 	ldr	x1, [sp, #8]
ffffffff80003614:	f9017001 	str	x1, [x0, #736]
ffffffff80003618:	d503201f 	nop
ffffffff8000361c:	9100c3ff 	add	sp, sp, #0x30
ffffffff80003620:	d65f03c0 	ret

ffffffff80003624 <flanterm_fb_get_cursor_pos>:
ffffffff80003624:	d100c3ff 	sub	sp, sp, #0x30
ffffffff80003628:	f9000fe0 	str	x0, [sp, #24]
ffffffff8000362c:	f9000be1 	str	x1, [sp, #16]
ffffffff80003630:	f90007e2 	str	x2, [sp, #8]
ffffffff80003634:	f9400fe0 	ldr	x0, [sp, #24]
ffffffff80003638:	f90017e0 	str	x0, [sp, #40]
ffffffff8000363c:	f94017e0 	ldr	x0, [sp, #40]
ffffffff80003640:	f9416c01 	ldr	x1, [x0, #728]
ffffffff80003644:	f9400fe0 	ldr	x0, [sp, #24]
ffffffff80003648:	f9407400 	ldr	x0, [x0, #232]
ffffffff8000364c:	eb00003f 	cmp	x1, x0
ffffffff80003650:	540000a3 	b.cc	ffffffff80003664 <flanterm_fb_get_cursor_pos+0x40>  // b.lo, b.ul, b.last
ffffffff80003654:	f9400fe0 	ldr	x0, [sp, #24]
ffffffff80003658:	f9407400 	ldr	x0, [x0, #232]
ffffffff8000365c:	d1000400 	sub	x0, x0, #0x1
ffffffff80003660:	14000003 	b	ffffffff8000366c <flanterm_fb_get_cursor_pos+0x48>
ffffffff80003664:	f94017e0 	ldr	x0, [sp, #40]
ffffffff80003668:	f9416c00 	ldr	x0, [x0, #728]
ffffffff8000366c:	f9400be1 	ldr	x1, [sp, #16]
ffffffff80003670:	f9000020 	str	x0, [x1]
ffffffff80003674:	f94017e0 	ldr	x0, [sp, #40]
ffffffff80003678:	f9417001 	ldr	x1, [x0, #736]
ffffffff8000367c:	f9400fe0 	ldr	x0, [sp, #24]
ffffffff80003680:	f9407000 	ldr	x0, [x0, #224]
ffffffff80003684:	eb00003f 	cmp	x1, x0
ffffffff80003688:	540000a3 	b.cc	ffffffff8000369c <flanterm_fb_get_cursor_pos+0x78>  // b.lo, b.ul, b.last
ffffffff8000368c:	f9400fe0 	ldr	x0, [sp, #24]
ffffffff80003690:	f9407000 	ldr	x0, [x0, #224]
ffffffff80003694:	d1000400 	sub	x0, x0, #0x1
ffffffff80003698:	14000003 	b	ffffffff800036a4 <flanterm_fb_get_cursor_pos+0x80>
ffffffff8000369c:	f94017e0 	ldr	x0, [sp, #40]
ffffffff800036a0:	f9417000 	ldr	x0, [x0, #736]
ffffffff800036a4:	f94007e1 	ldr	x1, [sp, #8]
ffffffff800036a8:	f9000020 	str	x0, [x1]
ffffffff800036ac:	d503201f 	nop
ffffffff800036b0:	9100c3ff 	add	sp, sp, #0x30
ffffffff800036b4:	d65f03c0 	ret

ffffffff800036b8 <flanterm_fb_move_character>:
ffffffff800036b8:	a9ba7bfd 	stp	x29, x30, [sp, #-96]!
ffffffff800036bc:	910003fd 	mov	x29, sp
ffffffff800036c0:	f9001fe0 	str	x0, [sp, #56]
ffffffff800036c4:	f9001be1 	str	x1, [sp, #48]
ffffffff800036c8:	f90017e2 	str	x2, [sp, #40]
ffffffff800036cc:	f90013e3 	str	x3, [sp, #32]
ffffffff800036d0:	f9000fe4 	str	x4, [sp, #24]
ffffffff800036d4:	f9401fe0 	ldr	x0, [sp, #56]
ffffffff800036d8:	f9002be0 	str	x0, [sp, #80]
ffffffff800036dc:	f9401fe0 	ldr	x0, [sp, #56]
ffffffff800036e0:	f9407400 	ldr	x0, [x0, #232]
ffffffff800036e4:	f94013e1 	ldr	x1, [sp, #32]
ffffffff800036e8:	eb00003f 	cmp	x1, x0
ffffffff800036ec:	54000682 	b.cs	ffffffff800037bc <flanterm_fb_move_character+0x104>  // b.hs, b.nlast
ffffffff800036f0:	f9401fe0 	ldr	x0, [sp, #56]
ffffffff800036f4:	f9407000 	ldr	x0, [x0, #224]
ffffffff800036f8:	f9400fe1 	ldr	x1, [sp, #24]
ffffffff800036fc:	eb00003f 	cmp	x1, x0
ffffffff80003700:	540005e2 	b.cs	ffffffff800037bc <flanterm_fb_move_character+0x104>  // b.hs, b.nlast
ffffffff80003704:	f9401fe0 	ldr	x0, [sp, #56]
ffffffff80003708:	f9407400 	ldr	x0, [x0, #232]
ffffffff8000370c:	f9401be1 	ldr	x1, [sp, #48]
ffffffff80003710:	eb00003f 	cmp	x1, x0
ffffffff80003714:	54000542 	b.cs	ffffffff800037bc <flanterm_fb_move_character+0x104>  // b.hs, b.nlast
ffffffff80003718:	f9401fe0 	ldr	x0, [sp, #56]
ffffffff8000371c:	f9407000 	ldr	x0, [x0, #224]
ffffffff80003720:	f94017e1 	ldr	x1, [sp, #40]
ffffffff80003724:	eb00003f 	cmp	x1, x0
ffffffff80003728:	540004a2 	b.cs	ffffffff800037bc <flanterm_fb_move_character+0x104>  // b.hs, b.nlast
ffffffff8000372c:	f9401fe0 	ldr	x0, [sp, #56]
ffffffff80003730:	f9407401 	ldr	x1, [x0, #232]
ffffffff80003734:	f9400fe0 	ldr	x0, [sp, #24]
ffffffff80003738:	9b007c20 	mul	x0, x1, x0
ffffffff8000373c:	f94013e1 	ldr	x1, [sp, #32]
ffffffff80003740:	8b000020 	add	x0, x1, x0
ffffffff80003744:	f90027e0 	str	x0, [sp, #72]
ffffffff80003748:	f9402be0 	ldr	x0, [sp, #80]
ffffffff8000374c:	f9416401 	ldr	x1, [x0, #712]
ffffffff80003750:	f94027e0 	ldr	x0, [sp, #72]
ffffffff80003754:	d37df000 	lsl	x0, x0, #3
ffffffff80003758:	8b000020 	add	x0, x1, x0
ffffffff8000375c:	f9400000 	ldr	x0, [x0]
ffffffff80003760:	f90023e0 	str	x0, [sp, #64]
ffffffff80003764:	f94023e0 	ldr	x0, [sp, #64]
ffffffff80003768:	f100001f 	cmp	x0, #0x0
ffffffff8000376c:	540000a0 	b.eq	ffffffff80003780 <flanterm_fb_move_character+0xc8>  // b.none
ffffffff80003770:	f94023e0 	ldr	x0, [sp, #64]
ffffffff80003774:	91004000 	add	x0, x0, #0x10
ffffffff80003778:	f9002fe0 	str	x0, [sp, #88]
ffffffff8000377c:	1400000a 	b	ffffffff800037a4 <flanterm_fb_move_character+0xec>
ffffffff80003780:	f9402be0 	ldr	x0, [sp, #80]
ffffffff80003784:	f9415802 	ldr	x2, [x0, #688]
ffffffff80003788:	f94027e1 	ldr	x1, [sp, #72]
ffffffff8000378c:	aa0103e0 	mov	x0, x1
ffffffff80003790:	d37ff800 	lsl	x0, x0, #1
ffffffff80003794:	8b010000 	add	x0, x0, x1
ffffffff80003798:	d37ef400 	lsl	x0, x0, #2
ffffffff8000379c:	8b000040 	add	x0, x2, x0
ffffffff800037a0:	f9002fe0 	str	x0, [sp, #88]
ffffffff800037a4:	f94017e3 	ldr	x3, [sp, #40]
ffffffff800037a8:	f9401be2 	ldr	x2, [sp, #48]
ffffffff800037ac:	f9402fe1 	ldr	x1, [sp, #88]
ffffffff800037b0:	f9401fe0 	ldr	x0, [sp, #56]
ffffffff800037b4:	97fffe1e 	bl	ffffffff8000302c <push_to_queue>
ffffffff800037b8:	14000002 	b	ffffffff800037c0 <flanterm_fb_move_character+0x108>
ffffffff800037bc:	d503201f 	nop
ffffffff800037c0:	a8c67bfd 	ldp	x29, x30, [sp], #96
ffffffff800037c4:	d65f03c0 	ret

ffffffff800037c8 <flanterm_fb_set_text_fg>:
ffffffff800037c8:	d10083ff 	sub	sp, sp, #0x20
ffffffff800037cc:	f90007e0 	str	x0, [sp, #8]
ffffffff800037d0:	f90003e1 	str	x1, [sp]
ffffffff800037d4:	f94007e0 	ldr	x0, [sp, #8]
ffffffff800037d8:	f9000fe0 	str	x0, [sp, #24]
ffffffff800037dc:	f9400fe1 	ldr	x1, [sp, #24]
ffffffff800037e0:	f94003e0 	ldr	x0, [sp]
ffffffff800037e4:	91023000 	add	x0, x0, #0x8c
ffffffff800037e8:	d37ef400 	lsl	x0, x0, #2
ffffffff800037ec:	8b000020 	add	x0, x1, x0
ffffffff800037f0:	b9400801 	ldr	w1, [x0, #8]
ffffffff800037f4:	f9400fe0 	ldr	x0, [sp, #24]
ffffffff800037f8:	b902d001 	str	w1, [x0, #720]
ffffffff800037fc:	d503201f 	nop
ffffffff80003800:	910083ff 	add	sp, sp, #0x20
ffffffff80003804:	d65f03c0 	ret

ffffffff80003808 <flanterm_fb_set_text_bg>:
ffffffff80003808:	d10083ff 	sub	sp, sp, #0x20
ffffffff8000380c:	f90007e0 	str	x0, [sp, #8]
ffffffff80003810:	f90003e1 	str	x1, [sp]
ffffffff80003814:	f94007e0 	ldr	x0, [sp, #8]
ffffffff80003818:	f9000fe0 	str	x0, [sp, #24]
ffffffff8000381c:	f9400fe1 	ldr	x1, [sp, #24]
ffffffff80003820:	f94003e0 	ldr	x0, [sp]
ffffffff80003824:	91023000 	add	x0, x0, #0x8c
ffffffff80003828:	d37ef400 	lsl	x0, x0, #2
ffffffff8000382c:	8b000020 	add	x0, x1, x0
ffffffff80003830:	b9400801 	ldr	w1, [x0, #8]
ffffffff80003834:	f9400fe0 	ldr	x0, [sp, #24]
ffffffff80003838:	b902d401 	str	w1, [x0, #724]
ffffffff8000383c:	d503201f 	nop
ffffffff80003840:	910083ff 	add	sp, sp, #0x20
ffffffff80003844:	d65f03c0 	ret

ffffffff80003848 <flanterm_fb_set_text_fg_bright>:
ffffffff80003848:	d10083ff 	sub	sp, sp, #0x20
ffffffff8000384c:	f90007e0 	str	x0, [sp, #8]
ffffffff80003850:	f90003e1 	str	x1, [sp]
ffffffff80003854:	f94007e0 	ldr	x0, [sp, #8]
ffffffff80003858:	f9000fe0 	str	x0, [sp, #24]
ffffffff8000385c:	f9400fe1 	ldr	x1, [sp, #24]
ffffffff80003860:	f94003e0 	ldr	x0, [sp]
ffffffff80003864:	91025000 	add	x0, x0, #0x94
ffffffff80003868:	d37ef400 	lsl	x0, x0, #2
ffffffff8000386c:	8b000020 	add	x0, x1, x0
ffffffff80003870:	b9400801 	ldr	w1, [x0, #8]
ffffffff80003874:	f9400fe0 	ldr	x0, [sp, #24]
ffffffff80003878:	b902d001 	str	w1, [x0, #720]
ffffffff8000387c:	d503201f 	nop
ffffffff80003880:	910083ff 	add	sp, sp, #0x20
ffffffff80003884:	d65f03c0 	ret

ffffffff80003888 <flanterm_fb_set_text_bg_bright>:
ffffffff80003888:	d10083ff 	sub	sp, sp, #0x20
ffffffff8000388c:	f90007e0 	str	x0, [sp, #8]
ffffffff80003890:	f90003e1 	str	x1, [sp]
ffffffff80003894:	f94007e0 	ldr	x0, [sp, #8]
ffffffff80003898:	f9000fe0 	str	x0, [sp, #24]
ffffffff8000389c:	f9400fe1 	ldr	x1, [sp, #24]
ffffffff800038a0:	f94003e0 	ldr	x0, [sp]
ffffffff800038a4:	91025000 	add	x0, x0, #0x94
ffffffff800038a8:	d37ef400 	lsl	x0, x0, #2
ffffffff800038ac:	8b000020 	add	x0, x1, x0
ffffffff800038b0:	b9400801 	ldr	w1, [x0, #8]
ffffffff800038b4:	f9400fe0 	ldr	x0, [sp, #24]
ffffffff800038b8:	b902d401 	str	w1, [x0, #724]
ffffffff800038bc:	d503201f 	nop
ffffffff800038c0:	910083ff 	add	sp, sp, #0x20
ffffffff800038c4:	d65f03c0 	ret

ffffffff800038c8 <flanterm_fb_set_text_fg_rgb>:
ffffffff800038c8:	d10083ff 	sub	sp, sp, #0x20
ffffffff800038cc:	f90007e0 	str	x0, [sp, #8]
ffffffff800038d0:	b90007e1 	str	w1, [sp, #4]
ffffffff800038d4:	f94007e0 	ldr	x0, [sp, #8]
ffffffff800038d8:	f9000fe0 	str	x0, [sp, #24]
ffffffff800038dc:	f9400fe0 	ldr	x0, [sp, #24]
ffffffff800038e0:	b94007e1 	ldr	w1, [sp, #4]
ffffffff800038e4:	b902d001 	str	w1, [x0, #720]
ffffffff800038e8:	d503201f 	nop
ffffffff800038ec:	910083ff 	add	sp, sp, #0x20
ffffffff800038f0:	d65f03c0 	ret

ffffffff800038f4 <flanterm_fb_set_text_bg_rgb>:
ffffffff800038f4:	d10083ff 	sub	sp, sp, #0x20
ffffffff800038f8:	f90007e0 	str	x0, [sp, #8]
ffffffff800038fc:	b90007e1 	str	w1, [sp, #4]
ffffffff80003900:	f94007e0 	ldr	x0, [sp, #8]
ffffffff80003904:	f9000fe0 	str	x0, [sp, #24]
ffffffff80003908:	f9400fe0 	ldr	x0, [sp, #24]
ffffffff8000390c:	b94007e1 	ldr	w1, [sp, #4]
ffffffff80003910:	b902d401 	str	w1, [x0, #724]
ffffffff80003914:	d503201f 	nop
ffffffff80003918:	910083ff 	add	sp, sp, #0x20
ffffffff8000391c:	d65f03c0 	ret

ffffffff80003920 <flanterm_fb_set_text_fg_default>:
ffffffff80003920:	d10083ff 	sub	sp, sp, #0x20
ffffffff80003924:	f90007e0 	str	x0, [sp, #8]
ffffffff80003928:	f94007e0 	ldr	x0, [sp, #8]
ffffffff8000392c:	f9000fe0 	str	x0, [sp, #24]
ffffffff80003930:	f9400fe0 	ldr	x0, [sp, #24]
ffffffff80003934:	b9427801 	ldr	w1, [x0, #632]
ffffffff80003938:	f9400fe0 	ldr	x0, [sp, #24]
ffffffff8000393c:	b902d001 	str	w1, [x0, #720]
ffffffff80003940:	d503201f 	nop
ffffffff80003944:	910083ff 	add	sp, sp, #0x20
ffffffff80003948:	d65f03c0 	ret

ffffffff8000394c <flanterm_fb_set_text_bg_default>:
ffffffff8000394c:	d10083ff 	sub	sp, sp, #0x20
ffffffff80003950:	f90007e0 	str	x0, [sp, #8]
ffffffff80003954:	f94007e0 	ldr	x0, [sp, #8]
ffffffff80003958:	f9000fe0 	str	x0, [sp, #24]
ffffffff8000395c:	f9400fe0 	ldr	x0, [sp, #24]
ffffffff80003960:	12800001 	mov	w1, #0xffffffff            	// #-1
ffffffff80003964:	b902d401 	str	w1, [x0, #724]
ffffffff80003968:	d503201f 	nop
ffffffff8000396c:	910083ff 	add	sp, sp, #0x20
ffffffff80003970:	d65f03c0 	ret

ffffffff80003974 <flanterm_fb_set_text_fg_default_bright>:
ffffffff80003974:	d10083ff 	sub	sp, sp, #0x20
ffffffff80003978:	f90007e0 	str	x0, [sp, #8]
ffffffff8000397c:	f94007e0 	ldr	x0, [sp, #8]
ffffffff80003980:	f9000fe0 	str	x0, [sp, #24]
ffffffff80003984:	f9400fe0 	ldr	x0, [sp, #24]
ffffffff80003988:	b9428001 	ldr	w1, [x0, #640]
ffffffff8000398c:	f9400fe0 	ldr	x0, [sp, #24]
ffffffff80003990:	b902d001 	str	w1, [x0, #720]
ffffffff80003994:	d503201f 	nop
ffffffff80003998:	910083ff 	add	sp, sp, #0x20
ffffffff8000399c:	d65f03c0 	ret

ffffffff800039a0 <flanterm_fb_set_text_bg_default_bright>:
ffffffff800039a0:	d10083ff 	sub	sp, sp, #0x20
ffffffff800039a4:	f90007e0 	str	x0, [sp, #8]
ffffffff800039a8:	f94007e0 	ldr	x0, [sp, #8]
ffffffff800039ac:	f9000fe0 	str	x0, [sp, #24]
ffffffff800039b0:	f9400fe0 	ldr	x0, [sp, #24]
ffffffff800039b4:	b9428401 	ldr	w1, [x0, #644]
ffffffff800039b8:	f9400fe0 	ldr	x0, [sp, #24]
ffffffff800039bc:	b902d401 	str	w1, [x0, #724]
ffffffff800039c0:	d503201f 	nop
ffffffff800039c4:	910083ff 	add	sp, sp, #0x20
ffffffff800039c8:	d65f03c0 	ret

ffffffff800039cc <draw_cursor>:
ffffffff800039cc:	a9bb7bfd 	stp	x29, x30, [sp, #-80]!
ffffffff800039d0:	910003fd 	mov	x29, sp
ffffffff800039d4:	f9000fe0 	str	x0, [sp, #24]
ffffffff800039d8:	f9400fe0 	ldr	x0, [sp, #24]
ffffffff800039dc:	f90027e0 	str	x0, [sp, #72]
ffffffff800039e0:	f94027e0 	ldr	x0, [sp, #72]
ffffffff800039e4:	f9416c01 	ldr	x1, [x0, #728]
ffffffff800039e8:	f9400fe0 	ldr	x0, [sp, #24]
ffffffff800039ec:	f9407400 	ldr	x0, [x0, #232]
ffffffff800039f0:	eb00003f 	cmp	x1, x0
ffffffff800039f4:	54000b02 	b.cs	ffffffff80003b54 <draw_cursor+0x188>  // b.hs, b.nlast
ffffffff800039f8:	f94027e0 	ldr	x0, [sp, #72]
ffffffff800039fc:	f9417001 	ldr	x1, [x0, #736]
ffffffff80003a00:	f9400fe0 	ldr	x0, [sp, #24]
ffffffff80003a04:	f9407000 	ldr	x0, [x0, #224]
ffffffff80003a08:	eb00003f 	cmp	x1, x0
ffffffff80003a0c:	54000a42 	b.cs	ffffffff80003b54 <draw_cursor+0x188>  // b.hs, b.nlast
ffffffff80003a10:	f94027e0 	ldr	x0, [sp, #72]
ffffffff80003a14:	f9416c01 	ldr	x1, [x0, #728]
ffffffff80003a18:	f94027e0 	ldr	x0, [sp, #72]
ffffffff80003a1c:	f9417002 	ldr	x2, [x0, #736]
ffffffff80003a20:	f9400fe0 	ldr	x0, [sp, #24]
ffffffff80003a24:	f9407400 	ldr	x0, [x0, #232]
ffffffff80003a28:	9b007c40 	mul	x0, x2, x0
ffffffff80003a2c:	8b000020 	add	x0, x1, x0
ffffffff80003a30:	f90023e0 	str	x0, [sp, #64]
ffffffff80003a34:	f94027e0 	ldr	x0, [sp, #72]
ffffffff80003a38:	f9416401 	ldr	x1, [x0, #712]
ffffffff80003a3c:	f94023e0 	ldr	x0, [sp, #64]
ffffffff80003a40:	d37df000 	lsl	x0, x0, #3
ffffffff80003a44:	8b000020 	add	x0, x1, x0
ffffffff80003a48:	f9400000 	ldr	x0, [x0]
ffffffff80003a4c:	f9001fe0 	str	x0, [sp, #56]
ffffffff80003a50:	f9401fe0 	ldr	x0, [sp, #56]
ffffffff80003a54:	f100001f 	cmp	x0, #0x0
ffffffff80003a58:	54000120 	b.eq	ffffffff80003a7c <draw_cursor+0xb0>  // b.none
ffffffff80003a5c:	f9401fe0 	ldr	x0, [sp, #56]
ffffffff80003a60:	91004001 	add	x1, x0, #0x10
ffffffff80003a64:	9100a3e0 	add	x0, sp, #0x28
ffffffff80003a68:	f9400022 	ldr	x2, [x1]
ffffffff80003a6c:	f9000002 	str	x2, [x0]
ffffffff80003a70:	b9400821 	ldr	w1, [x1, #8]
ffffffff80003a74:	b9000801 	str	w1, [x0, #8]
ffffffff80003a78:	1400000e 	b	ffffffff80003ab0 <draw_cursor+0xe4>
ffffffff80003a7c:	f94027e0 	ldr	x0, [sp, #72]
ffffffff80003a80:	f9415802 	ldr	x2, [x0, #688]
ffffffff80003a84:	f94023e1 	ldr	x1, [sp, #64]
ffffffff80003a88:	aa0103e0 	mov	x0, x1
ffffffff80003a8c:	d37ff800 	lsl	x0, x0, #1
ffffffff80003a90:	8b010000 	add	x0, x0, x1
ffffffff80003a94:	d37ef400 	lsl	x0, x0, #2
ffffffff80003a98:	8b000041 	add	x1, x2, x0
ffffffff80003a9c:	9100a3e0 	add	x0, sp, #0x28
ffffffff80003aa0:	f9400022 	ldr	x2, [x1]
ffffffff80003aa4:	f9000002 	str	x2, [x0]
ffffffff80003aa8:	b9400821 	ldr	w1, [x1, #8]
ffffffff80003aac:	b9000801 	str	w1, [x0, #8]
ffffffff80003ab0:	b9402fe0 	ldr	w0, [sp, #44]
ffffffff80003ab4:	b90037e0 	str	w0, [sp, #52]
ffffffff80003ab8:	b94033e0 	ldr	w0, [sp, #48]
ffffffff80003abc:	b9002fe0 	str	w0, [sp, #44]
ffffffff80003ac0:	b94037e0 	ldr	w0, [sp, #52]
ffffffff80003ac4:	b90033e0 	str	w0, [sp, #48]
ffffffff80003ac8:	f94027e0 	ldr	x0, [sp, #72]
ffffffff80003acc:	f9416c01 	ldr	x1, [x0, #728]
ffffffff80003ad0:	f94027e0 	ldr	x0, [sp, #72]
ffffffff80003ad4:	f9417002 	ldr	x2, [x0, #736]
ffffffff80003ad8:	9100a3e0 	add	x0, sp, #0x28
ffffffff80003adc:	aa0203e3 	mov	x3, x2
ffffffff80003ae0:	aa0103e2 	mov	x2, x1
ffffffff80003ae4:	aa0003e1 	mov	x1, x0
ffffffff80003ae8:	f9400fe0 	ldr	x0, [sp, #24]
ffffffff80003aec:	97fffc8d 	bl	ffffffff80002d20 <plot_char>
ffffffff80003af0:	f9401fe0 	ldr	x0, [sp, #56]
ffffffff80003af4:	f100001f 	cmp	x0, #0x0
ffffffff80003af8:	54000300 	b.eq	ffffffff80003b58 <draw_cursor+0x18c>  // b.none
ffffffff80003afc:	f94027e0 	ldr	x0, [sp, #72]
ffffffff80003b00:	f9415802 	ldr	x2, [x0, #688]
ffffffff80003b04:	f94023e1 	ldr	x1, [sp, #64]
ffffffff80003b08:	aa0103e0 	mov	x0, x1
ffffffff80003b0c:	d37ff800 	lsl	x0, x0, #1
ffffffff80003b10:	8b010000 	add	x0, x0, x1
ffffffff80003b14:	d37ef400 	lsl	x0, x0, #2
ffffffff80003b18:	8b000042 	add	x2, x2, x0
ffffffff80003b1c:	f9401fe0 	ldr	x0, [sp, #56]
ffffffff80003b20:	91004001 	add	x1, x0, #0x10
ffffffff80003b24:	aa0203e0 	mov	x0, x2
ffffffff80003b28:	f9400022 	ldr	x2, [x1]
ffffffff80003b2c:	f9000002 	str	x2, [x0]
ffffffff80003b30:	b9400821 	ldr	w1, [x1, #8]
ffffffff80003b34:	b9000801 	str	w1, [x0, #8]
ffffffff80003b38:	f94027e0 	ldr	x0, [sp, #72]
ffffffff80003b3c:	f9416401 	ldr	x1, [x0, #712]
ffffffff80003b40:	f94023e0 	ldr	x0, [sp, #64]
ffffffff80003b44:	d37df000 	lsl	x0, x0, #3
ffffffff80003b48:	8b000020 	add	x0, x1, x0
ffffffff80003b4c:	f900001f 	str	xzr, [x0]
ffffffff80003b50:	14000002 	b	ffffffff80003b58 <draw_cursor+0x18c>
ffffffff80003b54:	d503201f 	nop
ffffffff80003b58:	a8c57bfd 	ldp	x29, x30, [sp], #80
ffffffff80003b5c:	d65f03c0 	ret

ffffffff80003b60 <flanterm_fb_double_buffer_flush>:
ffffffff80003b60:	a9bc7bfd 	stp	x29, x30, [sp, #-64]!
ffffffff80003b64:	910003fd 	mov	x29, sp
ffffffff80003b68:	f9000fe0 	str	x0, [sp, #24]
ffffffff80003b6c:	f9400fe0 	ldr	x0, [sp, #24]
ffffffff80003b70:	f9001be0 	str	x0, [sp, #48]
ffffffff80003b74:	f9400fe0 	ldr	x0, [sp, #24]
ffffffff80003b78:	39402400 	ldrb	w0, [x0, #9]
ffffffff80003b7c:	12000000 	and	w0, w0, #0x1
ffffffff80003b80:	7100001f 	cmp	w0, #0x0
ffffffff80003b84:	54000060 	b.eq	ffffffff80003b90 <flanterm_fb_double_buffer_flush+0x30>  // b.none
ffffffff80003b88:	f9400fe0 	ldr	x0, [sp, #24]
ffffffff80003b8c:	97ffff90 	bl	ffffffff800039cc <draw_cursor>
ffffffff80003b90:	f9001fff 	str	xzr, [sp, #56]
ffffffff80003b94:	1400003b 	b	ffffffff80003c80 <flanterm_fb_double_buffer_flush+0x120>
ffffffff80003b98:	f9401be0 	ldr	x0, [sp, #48]
ffffffff80003b9c:	f9415c01 	ldr	x1, [x0, #696]
ffffffff80003ba0:	f9401fe0 	ldr	x0, [sp, #56]
ffffffff80003ba4:	d37be800 	lsl	x0, x0, #5
ffffffff80003ba8:	8b000020 	add	x0, x1, x0
ffffffff80003bac:	f90017e0 	str	x0, [sp, #40]
ffffffff80003bb0:	f94017e0 	ldr	x0, [sp, #40]
ffffffff80003bb4:	f9400401 	ldr	x1, [x0, #8]
ffffffff80003bb8:	f9400fe0 	ldr	x0, [sp, #24]
ffffffff80003bbc:	f9407400 	ldr	x0, [x0, #232]
ffffffff80003bc0:	9b007c21 	mul	x1, x1, x0
ffffffff80003bc4:	f94017e0 	ldr	x0, [sp, #40]
ffffffff80003bc8:	f9400000 	ldr	x0, [x0]
ffffffff80003bcc:	8b000020 	add	x0, x1, x0
ffffffff80003bd0:	f90013e0 	str	x0, [sp, #32]
ffffffff80003bd4:	f9401be0 	ldr	x0, [sp, #48]
ffffffff80003bd8:	f9416401 	ldr	x1, [x0, #712]
ffffffff80003bdc:	f94013e0 	ldr	x0, [sp, #32]
ffffffff80003be0:	d37df000 	lsl	x0, x0, #3
ffffffff80003be4:	8b000020 	add	x0, x1, x0
ffffffff80003be8:	f9400000 	ldr	x0, [x0]
ffffffff80003bec:	f100001f 	cmp	x0, #0x0
ffffffff80003bf0:	54000400 	b.eq	ffffffff80003c70 <flanterm_fb_double_buffer_flush+0x110>  // b.none
ffffffff80003bf4:	f94017e0 	ldr	x0, [sp, #40]
ffffffff80003bf8:	91004001 	add	x1, x0, #0x10
ffffffff80003bfc:	f94017e0 	ldr	x0, [sp, #40]
ffffffff80003c00:	f9400002 	ldr	x2, [x0]
ffffffff80003c04:	f94017e0 	ldr	x0, [sp, #40]
ffffffff80003c08:	f9400400 	ldr	x0, [x0, #8]
ffffffff80003c0c:	aa0003e3 	mov	x3, x0
ffffffff80003c10:	f9400fe0 	ldr	x0, [sp, #24]
ffffffff80003c14:	97fffc43 	bl	ffffffff80002d20 <plot_char>
ffffffff80003c18:	f9401be0 	ldr	x0, [sp, #48]
ffffffff80003c1c:	f9415802 	ldr	x2, [x0, #688]
ffffffff80003c20:	f94013e1 	ldr	x1, [sp, #32]
ffffffff80003c24:	aa0103e0 	mov	x0, x1
ffffffff80003c28:	d37ff800 	lsl	x0, x0, #1
ffffffff80003c2c:	8b010000 	add	x0, x0, x1
ffffffff80003c30:	d37ef400 	lsl	x0, x0, #2
ffffffff80003c34:	8b000042 	add	x2, x2, x0
ffffffff80003c38:	f94017e0 	ldr	x0, [sp, #40]
ffffffff80003c3c:	91004001 	add	x1, x0, #0x10
ffffffff80003c40:	aa0203e0 	mov	x0, x2
ffffffff80003c44:	f9400022 	ldr	x2, [x1]
ffffffff80003c48:	f9000002 	str	x2, [x0]
ffffffff80003c4c:	b9400821 	ldr	w1, [x1, #8]
ffffffff80003c50:	b9000801 	str	w1, [x0, #8]
ffffffff80003c54:	f9401be0 	ldr	x0, [sp, #48]
ffffffff80003c58:	f9416401 	ldr	x1, [x0, #712]
ffffffff80003c5c:	f94013e0 	ldr	x0, [sp, #32]
ffffffff80003c60:	d37df000 	lsl	x0, x0, #3
ffffffff80003c64:	8b000020 	add	x0, x1, x0
ffffffff80003c68:	f900001f 	str	xzr, [x0]
ffffffff80003c6c:	14000002 	b	ffffffff80003c74 <flanterm_fb_double_buffer_flush+0x114>
ffffffff80003c70:	d503201f 	nop
ffffffff80003c74:	f9401fe0 	ldr	x0, [sp, #56]
ffffffff80003c78:	91000400 	add	x0, x0, #0x1
ffffffff80003c7c:	f9001fe0 	str	x0, [sp, #56]
ffffffff80003c80:	f9401be0 	ldr	x0, [sp, #48]
ffffffff80003c84:	f9416000 	ldr	x0, [x0, #704]
ffffffff80003c88:	f9401fe1 	ldr	x1, [sp, #56]
ffffffff80003c8c:	eb00003f 	cmp	x1, x0
ffffffff80003c90:	54fff843 	b.cc	ffffffff80003b98 <flanterm_fb_double_buffer_flush+0x38>  // b.lo, b.ul, b.last
ffffffff80003c94:	f9401be0 	ldr	x0, [sp, #48]
ffffffff80003c98:	f9418001 	ldr	x1, [x0, #768]
ffffffff80003c9c:	f9401be0 	ldr	x0, [sp, #48]
ffffffff80003ca0:	f9416c00 	ldr	x0, [x0, #728]
ffffffff80003ca4:	eb00003f 	cmp	x1, x0
ffffffff80003ca8:	540001c1 	b.ne	ffffffff80003ce0 <flanterm_fb_double_buffer_flush+0x180>  // b.any
ffffffff80003cac:	f9401be0 	ldr	x0, [sp, #48]
ffffffff80003cb0:	f9418401 	ldr	x1, [x0, #776]
ffffffff80003cb4:	f9401be0 	ldr	x0, [sp, #48]
ffffffff80003cb8:	f9417000 	ldr	x0, [x0, #736]
ffffffff80003cbc:	eb00003f 	cmp	x1, x0
ffffffff80003cc0:	54000101 	b.ne	ffffffff80003ce0 <flanterm_fb_double_buffer_flush+0x180>  // b.any
ffffffff80003cc4:	f9400fe0 	ldr	x0, [sp, #24]
ffffffff80003cc8:	39402400 	ldrb	w0, [x0, #9]
ffffffff80003ccc:	52000000 	eor	w0, w0, #0x1
ffffffff80003cd0:	12001c00 	and	w0, w0, #0xff
ffffffff80003cd4:	12000000 	and	w0, w0, #0x1
ffffffff80003cd8:	7100001f 	cmp	w0, #0x0
ffffffff80003cdc:	54000460 	b.eq	ffffffff80003d68 <flanterm_fb_double_buffer_flush+0x208>  // b.none
ffffffff80003ce0:	f9401be0 	ldr	x0, [sp, #48]
ffffffff80003ce4:	f9418001 	ldr	x1, [x0, #768]
ffffffff80003ce8:	f9400fe0 	ldr	x0, [sp, #24]
ffffffff80003cec:	f9407400 	ldr	x0, [x0, #232]
ffffffff80003cf0:	eb00003f 	cmp	x1, x0
ffffffff80003cf4:	540003a2 	b.cs	ffffffff80003d68 <flanterm_fb_double_buffer_flush+0x208>  // b.hs, b.nlast
ffffffff80003cf8:	f9401be0 	ldr	x0, [sp, #48]
ffffffff80003cfc:	f9418401 	ldr	x1, [x0, #776]
ffffffff80003d00:	f9400fe0 	ldr	x0, [sp, #24]
ffffffff80003d04:	f9407000 	ldr	x0, [x0, #224]
ffffffff80003d08:	eb00003f 	cmp	x1, x0
ffffffff80003d0c:	540002e2 	b.cs	ffffffff80003d68 <flanterm_fb_double_buffer_flush+0x208>  // b.hs, b.nlast
ffffffff80003d10:	f9401be0 	ldr	x0, [sp, #48]
ffffffff80003d14:	f9415802 	ldr	x2, [x0, #688]
ffffffff80003d18:	f9401be0 	ldr	x0, [sp, #48]
ffffffff80003d1c:	f9418001 	ldr	x1, [x0, #768]
ffffffff80003d20:	f9401be0 	ldr	x0, [sp, #48]
ffffffff80003d24:	f9418403 	ldr	x3, [x0, #776]
ffffffff80003d28:	f9400fe0 	ldr	x0, [sp, #24]
ffffffff80003d2c:	f9407400 	ldr	x0, [x0, #232]
ffffffff80003d30:	9b007c60 	mul	x0, x3, x0
ffffffff80003d34:	8b000021 	add	x1, x1, x0
ffffffff80003d38:	aa0103e0 	mov	x0, x1
ffffffff80003d3c:	d37ff800 	lsl	x0, x0, #1
ffffffff80003d40:	8b010000 	add	x0, x0, x1
ffffffff80003d44:	d37ef400 	lsl	x0, x0, #2
ffffffff80003d48:	8b000041 	add	x1, x2, x0
ffffffff80003d4c:	f9401be0 	ldr	x0, [sp, #48]
ffffffff80003d50:	f9418002 	ldr	x2, [x0, #768]
ffffffff80003d54:	f9401be0 	ldr	x0, [sp, #48]
ffffffff80003d58:	f9418400 	ldr	x0, [x0, #776]
ffffffff80003d5c:	aa0003e3 	mov	x3, x0
ffffffff80003d60:	f9400fe0 	ldr	x0, [sp, #24]
ffffffff80003d64:	97fffbef 	bl	ffffffff80002d20 <plot_char>
ffffffff80003d68:	f9401be0 	ldr	x0, [sp, #48]
ffffffff80003d6c:	f9416c01 	ldr	x1, [x0, #728]
ffffffff80003d70:	f9401be0 	ldr	x0, [sp, #48]
ffffffff80003d74:	f9018001 	str	x1, [x0, #768]
ffffffff80003d78:	f9401be0 	ldr	x0, [sp, #48]
ffffffff80003d7c:	f9417001 	ldr	x1, [x0, #736]
ffffffff80003d80:	f9401be0 	ldr	x0, [sp, #48]
ffffffff80003d84:	f9018401 	str	x1, [x0, #776]
ffffffff80003d88:	f9401be0 	ldr	x0, [sp, #48]
ffffffff80003d8c:	f901601f 	str	xzr, [x0, #704]
ffffffff80003d90:	d503201f 	nop
ffffffff80003d94:	a8c47bfd 	ldp	x29, x30, [sp], #64
ffffffff80003d98:	d65f03c0 	ret

ffffffff80003d9c <flanterm_fb_raw_putchar>:
ffffffff80003d9c:	a9bc7bfd 	stp	x29, x30, [sp, #-64]!
ffffffff80003da0:	910003fd 	mov	x29, sp
ffffffff80003da4:	f9000fe0 	str	x0, [sp, #24]
ffffffff80003da8:	39005fe1 	strb	w1, [sp, #23]
ffffffff80003dac:	f9400fe0 	ldr	x0, [sp, #24]
ffffffff80003db0:	f9001fe0 	str	x0, [sp, #56]
ffffffff80003db4:	f9401fe0 	ldr	x0, [sp, #56]
ffffffff80003db8:	f9416c01 	ldr	x1, [x0, #728]
ffffffff80003dbc:	f9400fe0 	ldr	x0, [sp, #24]
ffffffff80003dc0:	f9407400 	ldr	x0, [x0, #232]
ffffffff80003dc4:	eb00003f 	cmp	x1, x0
ffffffff80003dc8:	54000583 	b.cc	ffffffff80003e78 <flanterm_fb_raw_putchar+0xdc>  // b.lo, b.ul, b.last
ffffffff80003dcc:	f9401fe0 	ldr	x0, [sp, #56]
ffffffff80003dd0:	f9417001 	ldr	x1, [x0, #736]
ffffffff80003dd4:	f9400fe0 	ldr	x0, [sp, #24]
ffffffff80003dd8:	f9403800 	ldr	x0, [x0, #112]
ffffffff80003ddc:	d1000400 	sub	x0, x0, #0x1
ffffffff80003de0:	eb00003f 	cmp	x1, x0
ffffffff80003de4:	540000c3 	b.cc	ffffffff80003dfc <flanterm_fb_raw_putchar+0x60>  // b.lo, b.ul, b.last
ffffffff80003de8:	f9400fe0 	ldr	x0, [sp, #24]
ffffffff80003dec:	39402800 	ldrb	w0, [x0, #10]
ffffffff80003df0:	12000000 	and	w0, w0, #0x1
ffffffff80003df4:	7100001f 	cmp	w0, #0x0
ffffffff80003df8:	54000400 	b.eq	ffffffff80003e78 <flanterm_fb_raw_putchar+0xdc>  // b.none
ffffffff80003dfc:	f9401fe0 	ldr	x0, [sp, #56]
ffffffff80003e00:	f9016c1f 	str	xzr, [x0, #728]
ffffffff80003e04:	f9401fe0 	ldr	x0, [sp, #56]
ffffffff80003e08:	f9417000 	ldr	x0, [x0, #736]
ffffffff80003e0c:	91000401 	add	x1, x0, #0x1
ffffffff80003e10:	f9401fe0 	ldr	x0, [sp, #56]
ffffffff80003e14:	f9017001 	str	x1, [x0, #736]
ffffffff80003e18:	f9401fe0 	ldr	x0, [sp, #56]
ffffffff80003e1c:	f9417001 	ldr	x1, [x0, #736]
ffffffff80003e20:	f9400fe0 	ldr	x0, [sp, #24]
ffffffff80003e24:	f9403800 	ldr	x0, [x0, #112]
ffffffff80003e28:	eb00003f 	cmp	x1, x0
ffffffff80003e2c:	54000101 	b.ne	ffffffff80003e4c <flanterm_fb_raw_putchar+0xb0>  // b.any
ffffffff80003e30:	f9401fe0 	ldr	x0, [sp, #56]
ffffffff80003e34:	f9417000 	ldr	x0, [x0, #736]
ffffffff80003e38:	d1000401 	sub	x1, x0, #0x1
ffffffff80003e3c:	f9401fe0 	ldr	x0, [sp, #56]
ffffffff80003e40:	f9017001 	str	x1, [x0, #736]
ffffffff80003e44:	f9400fe0 	ldr	x0, [sp, #24]
ffffffff80003e48:	97fffd35 	bl	ffffffff8000331c <flanterm_fb_scroll>
ffffffff80003e4c:	f9401fe0 	ldr	x0, [sp, #56]
ffffffff80003e50:	f9417001 	ldr	x1, [x0, #736]
ffffffff80003e54:	f9400fe0 	ldr	x0, [sp, #24]
ffffffff80003e58:	f9407400 	ldr	x0, [x0, #232]
ffffffff80003e5c:	eb00003f 	cmp	x1, x0
ffffffff80003e60:	540000c3 	b.cc	ffffffff80003e78 <flanterm_fb_raw_putchar+0xdc>  // b.lo, b.ul, b.last
ffffffff80003e64:	f9400fe0 	ldr	x0, [sp, #24]
ffffffff80003e68:	f9407400 	ldr	x0, [x0, #232]
ffffffff80003e6c:	d1000401 	sub	x1, x0, #0x1
ffffffff80003e70:	f9401fe0 	ldr	x0, [sp, #56]
ffffffff80003e74:	f9017001 	str	x1, [x0, #736]
ffffffff80003e78:	39405fe0 	ldrb	w0, [sp, #23]
ffffffff80003e7c:	b9002be0 	str	w0, [sp, #40]
ffffffff80003e80:	f9401fe0 	ldr	x0, [sp, #56]
ffffffff80003e84:	b942d000 	ldr	w0, [x0, #720]
ffffffff80003e88:	b9002fe0 	str	w0, [sp, #44]
ffffffff80003e8c:	f9401fe0 	ldr	x0, [sp, #56]
ffffffff80003e90:	b942d400 	ldr	w0, [x0, #724]
ffffffff80003e94:	b90033e0 	str	w0, [sp, #48]
ffffffff80003e98:	f9401fe0 	ldr	x0, [sp, #56]
ffffffff80003e9c:	f9416c00 	ldr	x0, [x0, #728]
ffffffff80003ea0:	91000402 	add	x2, x0, #0x1
ffffffff80003ea4:	f9401fe1 	ldr	x1, [sp, #56]
ffffffff80003ea8:	f9016c22 	str	x2, [x1, #728]
ffffffff80003eac:	f9401fe1 	ldr	x1, [sp, #56]
ffffffff80003eb0:	f9417022 	ldr	x2, [x1, #736]
ffffffff80003eb4:	9100a3e1 	add	x1, sp, #0x28
ffffffff80003eb8:	aa0203e3 	mov	x3, x2
ffffffff80003ebc:	aa0003e2 	mov	x2, x0
ffffffff80003ec0:	f9400fe0 	ldr	x0, [sp, #24]
ffffffff80003ec4:	97fffc5a 	bl	ffffffff8000302c <push_to_queue>
ffffffff80003ec8:	d503201f 	nop
ffffffff80003ecc:	a8c47bfd 	ldp	x29, x30, [sp], #64
ffffffff80003ed0:	d65f03c0 	ret

ffffffff80003ed4 <flanterm_fb_full_refresh>:
ffffffff80003ed4:	a9bb7bfd 	stp	x29, x30, [sp, #-80]!
ffffffff80003ed8:	910003fd 	mov	x29, sp
ffffffff80003edc:	f9000fe0 	str	x0, [sp, #24]
ffffffff80003ee0:	f9400fe0 	ldr	x0, [sp, #24]
ffffffff80003ee4:	f9001be0 	str	x0, [sp, #48]
ffffffff80003ee8:	f90027ff 	str	xzr, [sp, #72]
ffffffff80003eec:	14000025 	b	ffffffff80003f80 <flanterm_fb_full_refresh+0xac>
ffffffff80003ef0:	f90023ff 	str	xzr, [sp, #64]
ffffffff80003ef4:	1400001b 	b	ffffffff80003f60 <flanterm_fb_full_refresh+0x8c>
ffffffff80003ef8:	f9401be0 	ldr	x0, [sp, #48]
ffffffff80003efc:	f9414801 	ldr	x1, [x0, #656]
ffffffff80003f00:	f9401be0 	ldr	x0, [sp, #48]
ffffffff80003f04:	f9410002 	ldr	x2, [x0, #512]
ffffffff80003f08:	f94027e0 	ldr	x0, [sp, #72]
ffffffff80003f0c:	9b007c42 	mul	x2, x2, x0
ffffffff80003f10:	f94023e0 	ldr	x0, [sp, #64]
ffffffff80003f14:	8b000040 	add	x0, x2, x0
ffffffff80003f18:	d37ef400 	lsl	x0, x0, #2
ffffffff80003f1c:	8b000021 	add	x1, x1, x0
ffffffff80003f20:	f9401be0 	ldr	x0, [sp, #48]
ffffffff80003f24:	f940f802 	ldr	x2, [x0, #496]
ffffffff80003f28:	f9401be0 	ldr	x0, [sp, #48]
ffffffff80003f2c:	f940fc00 	ldr	x0, [x0, #504]
ffffffff80003f30:	d342fc03 	lsr	x3, x0, #2
ffffffff80003f34:	f94027e0 	ldr	x0, [sp, #72]
ffffffff80003f38:	9b007c63 	mul	x3, x3, x0
ffffffff80003f3c:	f94023e0 	ldr	x0, [sp, #64]
ffffffff80003f40:	8b000060 	add	x0, x3, x0
ffffffff80003f44:	d37ef400 	lsl	x0, x0, #2
ffffffff80003f48:	8b000040 	add	x0, x2, x0
ffffffff80003f4c:	b9400021 	ldr	w1, [x1]
ffffffff80003f50:	b9000001 	str	w1, [x0]
ffffffff80003f54:	f94023e0 	ldr	x0, [sp, #64]
ffffffff80003f58:	91000400 	add	x0, x0, #0x1
ffffffff80003f5c:	f90023e0 	str	x0, [sp, #64]
ffffffff80003f60:	f9401be0 	ldr	x0, [sp, #48]
ffffffff80003f64:	f9410000 	ldr	x0, [x0, #512]
ffffffff80003f68:	f94023e1 	ldr	x1, [sp, #64]
ffffffff80003f6c:	eb00003f 	cmp	x1, x0
ffffffff80003f70:	54fffc43 	b.cc	ffffffff80003ef8 <flanterm_fb_full_refresh+0x24>  // b.lo, b.ul, b.last
ffffffff80003f74:	f94027e0 	ldr	x0, [sp, #72]
ffffffff80003f78:	91000400 	add	x0, x0, #0x1
ffffffff80003f7c:	f90027e0 	str	x0, [sp, #72]
ffffffff80003f80:	f9401be0 	ldr	x0, [sp, #48]
ffffffff80003f84:	f9410400 	ldr	x0, [x0, #520]
ffffffff80003f88:	f94027e1 	ldr	x1, [sp, #72]
ffffffff80003f8c:	eb00003f 	cmp	x1, x0
ffffffff80003f90:	54fffb03 	b.cc	ffffffff80003ef0 <flanterm_fb_full_refresh+0x1c>  // b.lo, b.ul, b.last
ffffffff80003f94:	f9001fff 	str	xzr, [sp, #56]
ffffffff80003f98:	1400001d 	b	ffffffff8000400c <flanterm_fb_full_refresh+0x138>
ffffffff80003f9c:	f9400fe0 	ldr	x0, [sp, #24]
ffffffff80003fa0:	f9407401 	ldr	x1, [x0, #232]
ffffffff80003fa4:	f9401fe0 	ldr	x0, [sp, #56]
ffffffff80003fa8:	9ac10802 	udiv	x2, x0, x1
ffffffff80003fac:	9b017c41 	mul	x1, x2, x1
ffffffff80003fb0:	cb010000 	sub	x0, x0, x1
ffffffff80003fb4:	f90017e0 	str	x0, [sp, #40]
ffffffff80003fb8:	f9400fe0 	ldr	x0, [sp, #24]
ffffffff80003fbc:	f9407400 	ldr	x0, [x0, #232]
ffffffff80003fc0:	f9401fe1 	ldr	x1, [sp, #56]
ffffffff80003fc4:	9ac00820 	udiv	x0, x1, x0
ffffffff80003fc8:	f90013e0 	str	x0, [sp, #32]
ffffffff80003fcc:	f9401be0 	ldr	x0, [sp, #48]
ffffffff80003fd0:	f9415802 	ldr	x2, [x0, #688]
ffffffff80003fd4:	f9401fe1 	ldr	x1, [sp, #56]
ffffffff80003fd8:	aa0103e0 	mov	x0, x1
ffffffff80003fdc:	d37ff800 	lsl	x0, x0, #1
ffffffff80003fe0:	8b010000 	add	x0, x0, x1
ffffffff80003fe4:	d37ef400 	lsl	x0, x0, #2
ffffffff80003fe8:	8b000040 	add	x0, x2, x0
ffffffff80003fec:	f94013e3 	ldr	x3, [sp, #32]
ffffffff80003ff0:	f94017e2 	ldr	x2, [sp, #40]
ffffffff80003ff4:	aa0003e1 	mov	x1, x0
ffffffff80003ff8:	f9400fe0 	ldr	x0, [sp, #24]
ffffffff80003ffc:	97fffb49 	bl	ffffffff80002d20 <plot_char>
ffffffff80004000:	f9401fe0 	ldr	x0, [sp, #56]
ffffffff80004004:	91000400 	add	x0, x0, #0x1
ffffffff80004008:	f9001fe0 	str	x0, [sp, #56]
ffffffff8000400c:	f9400fe0 	ldr	x0, [sp, #24]
ffffffff80004010:	f9407001 	ldr	x1, [x0, #224]
ffffffff80004014:	f9400fe0 	ldr	x0, [sp, #24]
ffffffff80004018:	f9407400 	ldr	x0, [x0, #232]
ffffffff8000401c:	9b007c20 	mul	x0, x1, x0
ffffffff80004020:	f9401fe1 	ldr	x1, [sp, #56]
ffffffff80004024:	eb00003f 	cmp	x1, x0
ffffffff80004028:	54fffba3 	b.cc	ffffffff80003f9c <flanterm_fb_full_refresh+0xc8>  // b.lo, b.ul, b.last
ffffffff8000402c:	f9400fe0 	ldr	x0, [sp, #24]
ffffffff80004030:	39402400 	ldrb	w0, [x0, #9]
ffffffff80004034:	12000000 	and	w0, w0, #0x1
ffffffff80004038:	7100001f 	cmp	w0, #0x0
ffffffff8000403c:	54000060 	b.eq	ffffffff80004048 <flanterm_fb_full_refresh+0x174>  // b.none
ffffffff80004040:	f9400fe0 	ldr	x0, [sp, #24]
ffffffff80004044:	97fffe62 	bl	ffffffff800039cc <draw_cursor>
ffffffff80004048:	d503201f 	nop
ffffffff8000404c:	a8c57bfd 	ldp	x29, x30, [sp], #80
ffffffff80004050:	d65f03c0 	ret

ffffffff80004054 <flanterm_fb_deinit>:
ffffffff80004054:	a9bd7bfd 	stp	x29, x30, [sp, #-48]!
ffffffff80004058:	910003fd 	mov	x29, sp
ffffffff8000405c:	f9000fe0 	str	x0, [sp, #24]
ffffffff80004060:	f9000be1 	str	x1, [sp, #16]
ffffffff80004064:	f9400fe0 	ldr	x0, [sp, #24]
ffffffff80004068:	f90017e0 	str	x0, [sp, #40]
ffffffff8000406c:	f9400be0 	ldr	x0, [sp, #16]
ffffffff80004070:	f100001f 	cmp	x0, #0x0
ffffffff80004074:	540006c0 	b.eq	ffffffff8000414c <flanterm_fb_deinit+0xf8>  // b.none
ffffffff80004078:	f94017e0 	ldr	x0, [sp, #40]
ffffffff8000407c:	f9411003 	ldr	x3, [x0, #544]
ffffffff80004080:	f94017e0 	ldr	x0, [sp, #40]
ffffffff80004084:	f9410c00 	ldr	x0, [x0, #536]
ffffffff80004088:	f9400be2 	ldr	x2, [sp, #16]
ffffffff8000408c:	aa0003e1 	mov	x1, x0
ffffffff80004090:	aa0303e0 	mov	x0, x3
ffffffff80004094:	d63f0040 	blr	x2
ffffffff80004098:	f94017e0 	ldr	x0, [sp, #40]
ffffffff8000409c:	f9411803 	ldr	x3, [x0, #560]
ffffffff800040a0:	f94017e0 	ldr	x0, [sp, #40]
ffffffff800040a4:	f9411400 	ldr	x0, [x0, #552]
ffffffff800040a8:	f9400be2 	ldr	x2, [sp, #16]
ffffffff800040ac:	aa0003e1 	mov	x1, x0
ffffffff800040b0:	aa0303e0 	mov	x0, x3
ffffffff800040b4:	d63f0040 	blr	x2
ffffffff800040b8:	f94017e0 	ldr	x0, [sp, #40]
ffffffff800040bc:	f9415803 	ldr	x3, [x0, #688]
ffffffff800040c0:	f94017e0 	ldr	x0, [sp, #40]
ffffffff800040c4:	f9414c00 	ldr	x0, [x0, #664]
ffffffff800040c8:	f9400be2 	ldr	x2, [sp, #16]
ffffffff800040cc:	aa0003e1 	mov	x1, x0
ffffffff800040d0:	aa0303e0 	mov	x0, x3
ffffffff800040d4:	d63f0040 	blr	x2
ffffffff800040d8:	f94017e0 	ldr	x0, [sp, #40]
ffffffff800040dc:	f9415c03 	ldr	x3, [x0, #696]
ffffffff800040e0:	f94017e0 	ldr	x0, [sp, #40]
ffffffff800040e4:	f9415000 	ldr	x0, [x0, #672]
ffffffff800040e8:	f9400be2 	ldr	x2, [sp, #16]
ffffffff800040ec:	aa0003e1 	mov	x1, x0
ffffffff800040f0:	aa0303e0 	mov	x0, x3
ffffffff800040f4:	d63f0040 	blr	x2
ffffffff800040f8:	f94017e0 	ldr	x0, [sp, #40]
ffffffff800040fc:	f9416403 	ldr	x3, [x0, #712]
ffffffff80004100:	f94017e0 	ldr	x0, [sp, #40]
ffffffff80004104:	f9415400 	ldr	x0, [x0, #680]
ffffffff80004108:	f9400be2 	ldr	x2, [sp, #16]
ffffffff8000410c:	aa0003e1 	mov	x1, x0
ffffffff80004110:	aa0303e0 	mov	x0, x3
ffffffff80004114:	d63f0040 	blr	x2
ffffffff80004118:	f94017e0 	ldr	x0, [sp, #40]
ffffffff8000411c:	f9414803 	ldr	x3, [x0, #656]
ffffffff80004120:	f94017e0 	ldr	x0, [sp, #40]
ffffffff80004124:	f9414400 	ldr	x0, [x0, #648]
ffffffff80004128:	f9400be2 	ldr	x2, [sp, #16]
ffffffff8000412c:	aa0003e1 	mov	x1, x0
ffffffff80004130:	aa0303e0 	mov	x0, x3
ffffffff80004134:	d63f0040 	blr	x2
ffffffff80004138:	f9400be2 	ldr	x2, [sp, #16]
ffffffff8000413c:	d2806201 	mov	x1, #0x310                 	// #784
ffffffff80004140:	f94017e0 	ldr	x0, [sp, #40]
ffffffff80004144:	d63f0040 	blr	x2
ffffffff80004148:	14000002 	b	ffffffff80004150 <flanterm_fb_deinit+0xfc>
ffffffff8000414c:	d503201f 	nop
ffffffff80004150:	a8c37bfd 	ldp	x29, x30, [sp], #48
ffffffff80004154:	d65f03c0 	ret

ffffffff80004158 <flanterm_fb_init>:
ffffffff80004158:	a9b37bfd 	stp	x29, x30, [sp, #-208]!
ffffffff8000415c:	910003fd 	mov	x29, sp
ffffffff80004160:	f90027e0 	str	x0, [sp, #72]
ffffffff80004164:	f90023e1 	str	x1, [sp, #64]
ffffffff80004168:	f9001fe2 	str	x2, [sp, #56]
ffffffff8000416c:	f9001be3 	str	x3, [sp, #48]
ffffffff80004170:	f90017e4 	str	x4, [sp, #40]
ffffffff80004174:	f90013e5 	str	x5, [sp, #32]
ffffffff80004178:	f9000fe6 	str	x6, [sp, #24]
ffffffff8000417c:	f9000be7 	str	x7, [sp, #16]
ffffffff80004180:	90020140 	adrp	x0, ffffffff8402c000 <bump_alloc_pool+0x3ffffe0>
ffffffff80004184:	91008000 	add	x0, x0, #0x20
ffffffff80004188:	f9400000 	ldr	x0, [x0]
ffffffff8000418c:	f90043e0 	str	x0, [sp, #128]
ffffffff80004190:	f94027e0 	ldr	x0, [sp, #72]
ffffffff80004194:	f100001f 	cmp	x0, #0x0
ffffffff80004198:	54000081 	b.ne	ffffffff800041a8 <flanterm_fb_init+0x50>  // b.any
ffffffff8000419c:	d0ffffe0 	adrp	x0, ffffffff80002000 <kmalloc+0x31c>
ffffffff800041a0:	912ed000 	add	x0, x0, #0xbb4
ffffffff800041a4:	f90027e0 	str	x0, [sp, #72]
ffffffff800041a8:	f9003fff 	str	xzr, [sp, #120]
ffffffff800041ac:	f94027e1 	ldr	x1, [sp, #72]
ffffffff800041b0:	d2806200 	mov	x0, #0x310                 	// #784
ffffffff800041b4:	d63f0020 	blr	x1
ffffffff800041b8:	f9003fe0 	str	x0, [sp, #120]
ffffffff800041bc:	f9403fe0 	ldr	x0, [sp, #120]
ffffffff800041c0:	f100001f 	cmp	x0, #0x0
ffffffff800041c4:	54005ce0 	b.eq	ffffffff80004d60 <flanterm_fb_init+0xc08>  // b.none
ffffffff800041c8:	f9403fe0 	ldr	x0, [sp, #120]
ffffffff800041cc:	f9003be0 	str	x0, [sp, #112]
ffffffff800041d0:	d2806202 	mov	x2, #0x310                 	// #784
ffffffff800041d4:	52800001 	mov	w1, #0x0                   	// #0
ffffffff800041d8:	f9403fe0 	ldr	x0, [sp, #120]
ffffffff800041dc:	97fff082 	bl	ffffffff800003e4 <memset>
ffffffff800041e0:	f9400be0 	ldr	x0, [sp, #16]
ffffffff800041e4:	f100001f 	cmp	x0, #0x0
ffffffff800041e8:	540002a0 	b.eq	ffffffff8000423c <flanterm_fb_init+0xe4>  // b.none
ffffffff800041ec:	f90067ff 	str	xzr, [sp, #200]
ffffffff800041f0:	1400000f 	b	ffffffff8000422c <flanterm_fb_init+0xd4>
ffffffff800041f4:	f94067e0 	ldr	x0, [sp, #200]
ffffffff800041f8:	d37ef400 	lsl	x0, x0, #2
ffffffff800041fc:	f9400be1 	ldr	x1, [sp, #16]
ffffffff80004200:	8b000020 	add	x0, x1, x0
ffffffff80004204:	b9400001 	ldr	w1, [x0]
ffffffff80004208:	f9403fe2 	ldr	x2, [sp, #120]
ffffffff8000420c:	f94067e0 	ldr	x0, [sp, #200]
ffffffff80004210:	91023000 	add	x0, x0, #0x8c
ffffffff80004214:	d37ef400 	lsl	x0, x0, #2
ffffffff80004218:	8b000040 	add	x0, x2, x0
ffffffff8000421c:	b9000801 	str	w1, [x0, #8]
ffffffff80004220:	f94067e0 	ldr	x0, [sp, #200]
ffffffff80004224:	91000400 	add	x0, x0, #0x1
ffffffff80004228:	f90067e0 	str	x0, [sp, #200]
ffffffff8000422c:	f94067e0 	ldr	x0, [sp, #200]
ffffffff80004230:	f1001c1f 	cmp	x0, #0x7
ffffffff80004234:	54fffe09 	b.ls	ffffffff800041f4 <flanterm_fb_init+0x9c>  // b.plast
ffffffff80004238:	1400001b 	b	ffffffff800042a4 <flanterm_fb_init+0x14c>
ffffffff8000423c:	f9403fe0 	ldr	x0, [sp, #120]
ffffffff80004240:	b902381f 	str	wzr, [x0, #568]
ffffffff80004244:	f9403fe0 	ldr	x0, [sp, #120]
ffffffff80004248:	52a01541 	mov	w1, #0xaa0000              	// #11141120
ffffffff8000424c:	b9023c01 	str	w1, [x0, #572]
ffffffff80004250:	f9403fe0 	ldr	x0, [sp, #120]
ffffffff80004254:	52954001 	mov	w1, #0xaa00                	// #43520
ffffffff80004258:	b9024001 	str	w1, [x0, #576]
ffffffff8000425c:	f9403fe0 	ldr	x0, [sp, #120]
ffffffff80004260:	528aa001 	mov	w1, #0x5500                	// #21760
ffffffff80004264:	72a01541 	movk	w1, #0xaa, lsl #16
ffffffff80004268:	b9024401 	str	w1, [x0, #580]
ffffffff8000426c:	f9403fe0 	ldr	x0, [sp, #120]
ffffffff80004270:	52801541 	mov	w1, #0xaa                  	// #170
ffffffff80004274:	b9024801 	str	w1, [x0, #584]
ffffffff80004278:	f9403fe0 	ldr	x0, [sp, #120]
ffffffff8000427c:	52801541 	mov	w1, #0xaa                  	// #170
ffffffff80004280:	72a01541 	movk	w1, #0xaa, lsl #16
ffffffff80004284:	b9024c01 	str	w1, [x0, #588]
ffffffff80004288:	f9403fe0 	ldr	x0, [sp, #120]
ffffffff8000428c:	52955541 	mov	w1, #0xaaaa                	// #43690
ffffffff80004290:	b9025001 	str	w1, [x0, #592]
ffffffff80004294:	f9403fe0 	ldr	x0, [sp, #120]
ffffffff80004298:	52955541 	mov	w1, #0xaaaa                	// #43690
ffffffff8000429c:	72a01541 	movk	w1, #0xaa, lsl #16
ffffffff800042a0:	b9025401 	str	w1, [x0, #596]
ffffffff800042a4:	f9406be0 	ldr	x0, [sp, #208]
ffffffff800042a8:	f100001f 	cmp	x0, #0x0
ffffffff800042ac:	540002a0 	b.eq	ffffffff80004300 <flanterm_fb_init+0x1a8>  // b.none
ffffffff800042b0:	f90063ff 	str	xzr, [sp, #192]
ffffffff800042b4:	1400000f 	b	ffffffff800042f0 <flanterm_fb_init+0x198>
ffffffff800042b8:	f94063e0 	ldr	x0, [sp, #192]
ffffffff800042bc:	d37ef400 	lsl	x0, x0, #2
ffffffff800042c0:	f9406be1 	ldr	x1, [sp, #208]
ffffffff800042c4:	8b000020 	add	x0, x1, x0
ffffffff800042c8:	b9400001 	ldr	w1, [x0]
ffffffff800042cc:	f9403fe2 	ldr	x2, [sp, #120]
ffffffff800042d0:	f94063e0 	ldr	x0, [sp, #192]
ffffffff800042d4:	91025000 	add	x0, x0, #0x94
ffffffff800042d8:	d37ef400 	lsl	x0, x0, #2
ffffffff800042dc:	8b000040 	add	x0, x2, x0
ffffffff800042e0:	b9000801 	str	w1, [x0, #8]
ffffffff800042e4:	f94063e0 	ldr	x0, [sp, #192]
ffffffff800042e8:	91000400 	add	x0, x0, #0x1
ffffffff800042ec:	f90063e0 	str	x0, [sp, #192]
ffffffff800042f0:	f94063e0 	ldr	x0, [sp, #192]
ffffffff800042f4:	f1001c1f 	cmp	x0, #0x7
ffffffff800042f8:	54fffe09 	b.ls	ffffffff800042b8 <flanterm_fb_init+0x160>  // b.plast
ffffffff800042fc:	1400001f 	b	ffffffff80004378 <flanterm_fb_init+0x220>
ffffffff80004300:	f9403fe0 	ldr	x0, [sp, #120]
ffffffff80004304:	528aaaa1 	mov	w1, #0x5555                	// #21845
ffffffff80004308:	72a00aa1 	movk	w1, #0x55, lsl #16
ffffffff8000430c:	b9025801 	str	w1, [x0, #600]
ffffffff80004310:	f9403fe0 	ldr	x0, [sp, #120]
ffffffff80004314:	528aaaa1 	mov	w1, #0x5555                	// #21845
ffffffff80004318:	72a01fe1 	movk	w1, #0xff, lsl #16
ffffffff8000431c:	b9025c01 	str	w1, [x0, #604]
ffffffff80004320:	f9403fe0 	ldr	x0, [sp, #120]
ffffffff80004324:	529feaa1 	mov	w1, #0xff55                	// #65365
ffffffff80004328:	72a00aa1 	movk	w1, #0x55, lsl #16
ffffffff8000432c:	b9026001 	str	w1, [x0, #608]
ffffffff80004330:	f9403fe0 	ldr	x0, [sp, #120]
ffffffff80004334:	529feaa1 	mov	w1, #0xff55                	// #65365
ffffffff80004338:	72a01fe1 	movk	w1, #0xff, lsl #16
ffffffff8000433c:	b9026401 	str	w1, [x0, #612]
ffffffff80004340:	f9403fe0 	ldr	x0, [sp, #120]
ffffffff80004344:	528abfe1 	mov	w1, #0x55ff                	// #22015
ffffffff80004348:	72a00aa1 	movk	w1, #0x55, lsl #16
ffffffff8000434c:	b9026801 	str	w1, [x0, #616]
ffffffff80004350:	f9403fe0 	ldr	x0, [sp, #120]
ffffffff80004354:	528abfe1 	mov	w1, #0x55ff                	// #22015
ffffffff80004358:	72a01fe1 	movk	w1, #0xff, lsl #16
ffffffff8000435c:	b9026c01 	str	w1, [x0, #620]
ffffffff80004360:	f9403fe0 	ldr	x0, [sp, #120]
ffffffff80004364:	12bff541 	mov	w1, #0x55ffff              	// #5636095
ffffffff80004368:	b9027001 	str	w1, [x0, #624]
ffffffff8000436c:	f9403fe0 	ldr	x0, [sp, #120]
ffffffff80004370:	12bfe001 	mov	w1, #0xffffff              	// #16777215
ffffffff80004374:	b9027401 	str	w1, [x0, #628]
ffffffff80004378:	f9406fe0 	ldr	x0, [sp, #216]
ffffffff8000437c:	f100001f 	cmp	x0, #0x0
ffffffff80004380:	540000c0 	b.eq	ffffffff80004398 <flanterm_fb_init+0x240>  // b.none
ffffffff80004384:	f9406fe0 	ldr	x0, [sp, #216]
ffffffff80004388:	b9400001 	ldr	w1, [x0]
ffffffff8000438c:	f9403fe0 	ldr	x0, [sp, #120]
ffffffff80004390:	b9027c01 	str	w1, [x0, #636]
ffffffff80004394:	14000003 	b	ffffffff800043a0 <flanterm_fb_init+0x248>
ffffffff80004398:	f9403fe0 	ldr	x0, [sp, #120]
ffffffff8000439c:	b9027c1f 	str	wzr, [x0, #636]
ffffffff800043a0:	f94073e0 	ldr	x0, [sp, #224]
ffffffff800043a4:	f100001f 	cmp	x0, #0x0
ffffffff800043a8:	540000c0 	b.eq	ffffffff800043c0 <flanterm_fb_init+0x268>  // b.none
ffffffff800043ac:	f94073e0 	ldr	x0, [sp, #224]
ffffffff800043b0:	b9400001 	ldr	w1, [x0]
ffffffff800043b4:	f9403fe0 	ldr	x0, [sp, #120]
ffffffff800043b8:	b9027801 	str	w1, [x0, #632]
ffffffff800043bc:	14000005 	b	ffffffff800043d0 <flanterm_fb_init+0x278>
ffffffff800043c0:	f9403fe0 	ldr	x0, [sp, #120]
ffffffff800043c4:	52955541 	mov	w1, #0xaaaa                	// #43690
ffffffff800043c8:	72a01541 	movk	w1, #0xaa, lsl #16
ffffffff800043cc:	b9027801 	str	w1, [x0, #632]
ffffffff800043d0:	f94077e0 	ldr	x0, [sp, #232]
ffffffff800043d4:	f100001f 	cmp	x0, #0x0
ffffffff800043d8:	540000c0 	b.eq	ffffffff800043f0 <flanterm_fb_init+0x298>  // b.none
ffffffff800043dc:	f94077e0 	ldr	x0, [sp, #232]
ffffffff800043e0:	b9400001 	ldr	w1, [x0]
ffffffff800043e4:	f9403fe0 	ldr	x0, [sp, #120]
ffffffff800043e8:	b9028401 	str	w1, [x0, #644]
ffffffff800043ec:	14000005 	b	ffffffff80004400 <flanterm_fb_init+0x2a8>
ffffffff800043f0:	f9403fe0 	ldr	x0, [sp, #120]
ffffffff800043f4:	528aaaa1 	mov	w1, #0x5555                	// #21845
ffffffff800043f8:	72a00aa1 	movk	w1, #0x55, lsl #16
ffffffff800043fc:	b9028401 	str	w1, [x0, #644]
ffffffff80004400:	f9407be0 	ldr	x0, [sp, #240]
ffffffff80004404:	f100001f 	cmp	x0, #0x0
ffffffff80004408:	540000c0 	b.eq	ffffffff80004420 <flanterm_fb_init+0x2c8>  // b.none
ffffffff8000440c:	f9407be0 	ldr	x0, [sp, #240]
ffffffff80004410:	b9400001 	ldr	w1, [x0]
ffffffff80004414:	f9403fe0 	ldr	x0, [sp, #120]
ffffffff80004418:	b9028001 	str	w1, [x0, #640]
ffffffff8000441c:	14000004 	b	ffffffff8000442c <flanterm_fb_init+0x2d4>
ffffffff80004420:	f9403fe0 	ldr	x0, [sp, #120]
ffffffff80004424:	12bfe001 	mov	w1, #0xffffff              	// #16777215
ffffffff80004428:	b9028001 	str	w1, [x0, #640]
ffffffff8000442c:	f9403fe0 	ldr	x0, [sp, #120]
ffffffff80004430:	b9427801 	ldr	w1, [x0, #632]
ffffffff80004434:	f9403fe0 	ldr	x0, [sp, #120]
ffffffff80004438:	b902d001 	str	w1, [x0, #720]
ffffffff8000443c:	f9403fe0 	ldr	x0, [sp, #120]
ffffffff80004440:	12800001 	mov	w1, #0xffffffff            	// #-1
ffffffff80004444:	b902d401 	str	w1, [x0, #724]
ffffffff80004448:	f9403fe0 	ldr	x0, [sp, #120]
ffffffff8000444c:	f9401fe1 	ldr	x1, [sp, #56]
ffffffff80004450:	f900f801 	str	x1, [x0, #496]
ffffffff80004454:	f9403fe0 	ldr	x0, [sp, #120]
ffffffff80004458:	f9401be1 	ldr	x1, [sp, #48]
ffffffff8000445c:	f9010001 	str	x1, [x0, #512]
ffffffff80004460:	f9403fe0 	ldr	x0, [sp, #120]
ffffffff80004464:	f94017e1 	ldr	x1, [sp, #40]
ffffffff80004468:	f9010401 	str	x1, [x0, #520]
ffffffff8000446c:	f9403fe0 	ldr	x0, [sp, #120]
ffffffff80004470:	f94013e1 	ldr	x1, [sp, #32]
ffffffff80004474:	f900fc01 	str	x1, [x0, #504]
ffffffff80004478:	f9407fe0 	ldr	x0, [sp, #248]
ffffffff8000447c:	f100001f 	cmp	x0, #0x0
ffffffff80004480:	54000440 	b.eq	ffffffff80004508 <flanterm_fb_init+0x3b0>  // b.none
ffffffff80004484:	f9403fe0 	ldr	x0, [sp, #120]
ffffffff80004488:	f94083e1 	ldr	x1, [sp, #256]
ffffffff8000448c:	f900d801 	str	x1, [x0, #432]
ffffffff80004490:	f9403fe0 	ldr	x0, [sp, #120]
ffffffff80004494:	f94087e1 	ldr	x1, [sp, #264]
ffffffff80004498:	f900dc01 	str	x1, [x0, #440]
ffffffff8000449c:	f94083e1 	ldr	x1, [sp, #256]
ffffffff800044a0:	f94087e0 	ldr	x0, [sp, #264]
ffffffff800044a4:	9b007c20 	mul	x0, x1, x0
ffffffff800044a8:	d378dc00 	lsl	x0, x0, #8
ffffffff800044ac:	d343fc01 	lsr	x1, x0, #3
ffffffff800044b0:	f9403fe0 	ldr	x0, [sp, #120]
ffffffff800044b4:	f9010c01 	str	x1, [x0, #536]
ffffffff800044b8:	f9403fe0 	ldr	x0, [sp, #120]
ffffffff800044bc:	f9410c00 	ldr	x0, [x0, #536]
ffffffff800044c0:	f94027e1 	ldr	x1, [sp, #72]
ffffffff800044c4:	d63f0020 	blr	x1
ffffffff800044c8:	aa0003e1 	mov	x1, x0
ffffffff800044cc:	f9403fe0 	ldr	x0, [sp, #120]
ffffffff800044d0:	f9011001 	str	x1, [x0, #544]
ffffffff800044d4:	f9403fe0 	ldr	x0, [sp, #120]
ffffffff800044d8:	f9411000 	ldr	x0, [x0, #544]
ffffffff800044dc:	f100001f 	cmp	x0, #0x0
ffffffff800044e0:	54004440 	b.eq	ffffffff80004d68 <flanterm_fb_init+0xc10>  // b.none
ffffffff800044e4:	f9403fe0 	ldr	x0, [sp, #120]
ffffffff800044e8:	f9411003 	ldr	x3, [x0, #544]
ffffffff800044ec:	f9403fe0 	ldr	x0, [sp, #120]
ffffffff800044f0:	f9410c00 	ldr	x0, [x0, #536]
ffffffff800044f4:	aa0003e2 	mov	x2, x0
ffffffff800044f8:	f9407fe1 	ldr	x1, [sp, #248]
ffffffff800044fc:	aa0303e0 	mov	x0, x3
ffffffff80004500:	97ffef9d 	bl	ffffffff80000374 <memcpy>
ffffffff80004504:	14000028 	b	ffffffff800045a4 <flanterm_fb_init+0x44c>
ffffffff80004508:	d2800100 	mov	x0, #0x8                   	// #8
ffffffff8000450c:	f90083e0 	str	x0, [sp, #256]
ffffffff80004510:	f9403fe0 	ldr	x0, [sp, #120]
ffffffff80004514:	f94083e1 	ldr	x1, [sp, #256]
ffffffff80004518:	f900d801 	str	x1, [x0, #432]
ffffffff8000451c:	d2800200 	mov	x0, #0x10                  	// #16
ffffffff80004520:	f90087e0 	str	x0, [sp, #264]
ffffffff80004524:	f9403fe0 	ldr	x0, [sp, #120]
ffffffff80004528:	f94087e1 	ldr	x1, [sp, #264]
ffffffff8000452c:	f900dc01 	str	x1, [x0, #440]
ffffffff80004530:	f94083e1 	ldr	x1, [sp, #256]
ffffffff80004534:	f94087e0 	ldr	x0, [sp, #264]
ffffffff80004538:	9b007c20 	mul	x0, x1, x0
ffffffff8000453c:	d378dc00 	lsl	x0, x0, #8
ffffffff80004540:	d343fc01 	lsr	x1, x0, #3
ffffffff80004544:	f9403fe0 	ldr	x0, [sp, #120]
ffffffff80004548:	f9010c01 	str	x1, [x0, #536]
ffffffff8000454c:	d2800020 	mov	x0, #0x1                   	// #1
ffffffff80004550:	f9008be0 	str	x0, [sp, #272]
ffffffff80004554:	f9403fe0 	ldr	x0, [sp, #120]
ffffffff80004558:	f9410c00 	ldr	x0, [x0, #536]
ffffffff8000455c:	f94027e1 	ldr	x1, [sp, #72]
ffffffff80004560:	d63f0020 	blr	x1
ffffffff80004564:	aa0003e1 	mov	x1, x0
ffffffff80004568:	f9403fe0 	ldr	x0, [sp, #120]
ffffffff8000456c:	f9011001 	str	x1, [x0, #544]
ffffffff80004570:	f9403fe0 	ldr	x0, [sp, #120]
ffffffff80004574:	f9411000 	ldr	x0, [x0, #544]
ffffffff80004578:	f100001f 	cmp	x0, #0x0
ffffffff8000457c:	54003fa0 	b.eq	ffffffff80004d70 <flanterm_fb_init+0xc18>  // b.none
ffffffff80004580:	f9403fe0 	ldr	x0, [sp, #120]
ffffffff80004584:	f9411003 	ldr	x3, [x0, #544]
ffffffff80004588:	f9403fe0 	ldr	x0, [sp, #120]
ffffffff8000458c:	f9410c00 	ldr	x0, [x0, #536]
ffffffff80004590:	aa0003e2 	mov	x2, x0
ffffffff80004594:	b00000a0 	adrp	x0, ffffffff80019000 <_exc_lower_32_serror+0xf880>
ffffffff80004598:	91238001 	add	x1, x0, #0x8e0
ffffffff8000459c:	aa0303e0 	mov	x0, x3
ffffffff800045a0:	97ffef75 	bl	ffffffff80000374 <memcpy>
ffffffff800045a4:	f9403fe0 	ldr	x0, [sp, #120]
ffffffff800045a8:	f940d801 	ldr	x1, [x0, #432]
ffffffff800045ac:	f9408be0 	ldr	x0, [sp, #272]
ffffffff800045b0:	8b000021 	add	x1, x1, x0
ffffffff800045b4:	f9403fe0 	ldr	x0, [sp, #120]
ffffffff800045b8:	f900d801 	str	x1, [x0, #432]
ffffffff800045bc:	f9403fe0 	ldr	x0, [sp, #120]
ffffffff800045c0:	f940d801 	ldr	x1, [x0, #432]
ffffffff800045c4:	f94087e0 	ldr	x0, [sp, #264]
ffffffff800045c8:	9b007c20 	mul	x0, x1, x0
ffffffff800045cc:	d378dc01 	lsl	x1, x0, #8
ffffffff800045d0:	f9403fe0 	ldr	x0, [sp, #120]
ffffffff800045d4:	f9011401 	str	x1, [x0, #552]
ffffffff800045d8:	f9403fe0 	ldr	x0, [sp, #120]
ffffffff800045dc:	f9411400 	ldr	x0, [x0, #552]
ffffffff800045e0:	f94027e1 	ldr	x1, [sp, #72]
ffffffff800045e4:	d63f0020 	blr	x1
ffffffff800045e8:	aa0003e1 	mov	x1, x0
ffffffff800045ec:	f9403fe0 	ldr	x0, [sp, #120]
ffffffff800045f0:	f9011801 	str	x1, [x0, #560]
ffffffff800045f4:	f9403fe0 	ldr	x0, [sp, #120]
ffffffff800045f8:	f9411800 	ldr	x0, [x0, #560]
ffffffff800045fc:	f100001f 	cmp	x0, #0x0
ffffffff80004600:	54003bc0 	b.eq	ffffffff80004d78 <flanterm_fb_init+0xc20>  // b.none
ffffffff80004604:	f9005fff 	str	xzr, [sp, #184]
ffffffff80004608:	1400006e 	b	ffffffff800047c0 <flanterm_fb_init+0x668>
ffffffff8000460c:	f9403fe0 	ldr	x0, [sp, #120]
ffffffff80004610:	f9411001 	ldr	x1, [x0, #544]
ffffffff80004614:	f9405fe2 	ldr	x2, [sp, #184]
ffffffff80004618:	f94087e0 	ldr	x0, [sp, #264]
ffffffff8000461c:	9b007c40 	mul	x0, x2, x0
ffffffff80004620:	8b000020 	add	x0, x1, x0
ffffffff80004624:	f90037e0 	str	x0, [sp, #104]
ffffffff80004628:	f9005bff 	str	xzr, [sp, #176]
ffffffff8000462c:	1400005e 	b	ffffffff800047a4 <flanterm_fb_init+0x64c>
ffffffff80004630:	f90057ff 	str	xzr, [sp, #168]
ffffffff80004634:	14000027 	b	ffffffff800046d0 <flanterm_fb_init+0x578>
ffffffff80004638:	f9405fe1 	ldr	x1, [sp, #184]
ffffffff8000463c:	f94087e0 	ldr	x0, [sp, #264]
ffffffff80004640:	9b007c21 	mul	x1, x1, x0
ffffffff80004644:	f9405be0 	ldr	x0, [sp, #176]
ffffffff80004648:	8b000021 	add	x1, x1, x0
ffffffff8000464c:	f9403fe0 	ldr	x0, [sp, #120]
ffffffff80004650:	f940d800 	ldr	x0, [x0, #432]
ffffffff80004654:	9b007c20 	mul	x0, x1, x0
ffffffff80004658:	f94057e1 	ldr	x1, [sp, #168]
ffffffff8000465c:	8b000020 	add	x0, x1, x0
ffffffff80004660:	f9002fe0 	str	x0, [sp, #88]
ffffffff80004664:	f94037e1 	ldr	x1, [sp, #104]
ffffffff80004668:	f9405be0 	ldr	x0, [sp, #176]
ffffffff8000466c:	8b000020 	add	x0, x1, x0
ffffffff80004670:	39400000 	ldrb	w0, [x0]
ffffffff80004674:	2a0003e1 	mov	w1, w0
ffffffff80004678:	f94057e0 	ldr	x0, [sp, #168]
ffffffff8000467c:	2a0003e2 	mov	w2, w0
ffffffff80004680:	52801000 	mov	w0, #0x80                  	// #128
ffffffff80004684:	1ac22800 	asr	w0, w0, w2
ffffffff80004688:	0a000020 	and	w0, w1, w0
ffffffff8000468c:	7100001f 	cmp	w0, #0x0
ffffffff80004690:	54000100 	b.eq	ffffffff800046b0 <flanterm_fb_init+0x558>  // b.none
ffffffff80004694:	f9403fe0 	ldr	x0, [sp, #120]
ffffffff80004698:	f9411801 	ldr	x1, [x0, #560]
ffffffff8000469c:	f9402fe0 	ldr	x0, [sp, #88]
ffffffff800046a0:	8b000020 	add	x0, x1, x0
ffffffff800046a4:	52800021 	mov	w1, #0x1                   	// #1
ffffffff800046a8:	39000001 	strb	w1, [x0]
ffffffff800046ac:	14000006 	b	ffffffff800046c4 <flanterm_fb_init+0x56c>
ffffffff800046b0:	f9403fe0 	ldr	x0, [sp, #120]
ffffffff800046b4:	f9411801 	ldr	x1, [x0, #560]
ffffffff800046b8:	f9402fe0 	ldr	x0, [sp, #88]
ffffffff800046bc:	8b000020 	add	x0, x1, x0
ffffffff800046c0:	3900001f 	strb	wzr, [x0]
ffffffff800046c4:	f94057e0 	ldr	x0, [sp, #168]
ffffffff800046c8:	91000400 	add	x0, x0, #0x1
ffffffff800046cc:	f90057e0 	str	x0, [sp, #168]
ffffffff800046d0:	f94057e0 	ldr	x0, [sp, #168]
ffffffff800046d4:	f1001c1f 	cmp	x0, #0x7
ffffffff800046d8:	54fffb09 	b.ls	ffffffff80004638 <flanterm_fb_init+0x4e0>  // b.plast
ffffffff800046dc:	d2800100 	mov	x0, #0x8                   	// #8
ffffffff800046e0:	f90053e0 	str	x0, [sp, #160]
ffffffff800046e4:	14000028 	b	ffffffff80004784 <flanterm_fb_init+0x62c>
ffffffff800046e8:	f9405fe1 	ldr	x1, [sp, #184]
ffffffff800046ec:	f94087e0 	ldr	x0, [sp, #264]
ffffffff800046f0:	9b007c21 	mul	x1, x1, x0
ffffffff800046f4:	f9405be0 	ldr	x0, [sp, #176]
ffffffff800046f8:	8b000021 	add	x1, x1, x0
ffffffff800046fc:	f9403fe0 	ldr	x0, [sp, #120]
ffffffff80004700:	f940d800 	ldr	x0, [x0, #432]
ffffffff80004704:	9b007c20 	mul	x0, x1, x0
ffffffff80004708:	f94053e1 	ldr	x1, [sp, #160]
ffffffff8000470c:	8b000020 	add	x0, x1, x0
ffffffff80004710:	f90033e0 	str	x0, [sp, #96]
ffffffff80004714:	f9405fe0 	ldr	x0, [sp, #184]
ffffffff80004718:	f102fc1f 	cmp	x0, #0xbf
ffffffff8000471c:	54000249 	b.ls	ffffffff80004764 <flanterm_fb_init+0x60c>  // b.plast
ffffffff80004720:	f9405fe0 	ldr	x0, [sp, #184]
ffffffff80004724:	f1037c1f 	cmp	x0, #0xdf
ffffffff80004728:	540001e8 	b.hi	ffffffff80004764 <flanterm_fb_init+0x60c>  // b.pmore
ffffffff8000472c:	f94037e1 	ldr	x1, [sp, #104]
ffffffff80004730:	f9405be0 	ldr	x0, [sp, #176]
ffffffff80004734:	8b000020 	add	x0, x1, x0
ffffffff80004738:	39400000 	ldrb	w0, [x0]
ffffffff8000473c:	12000001 	and	w1, w0, #0x1
ffffffff80004740:	f9403fe0 	ldr	x0, [sp, #120]
ffffffff80004744:	f9411802 	ldr	x2, [x0, #560]
ffffffff80004748:	f94033e0 	ldr	x0, [sp, #96]
ffffffff8000474c:	8b000040 	add	x0, x2, x0
ffffffff80004750:	7100003f 	cmp	w1, #0x0
ffffffff80004754:	1a9f07e1 	cset	w1, ne	// ne = any
ffffffff80004758:	12001c21 	and	w1, w1, #0xff
ffffffff8000475c:	39000001 	strb	w1, [x0]
ffffffff80004760:	14000006 	b	ffffffff80004778 <flanterm_fb_init+0x620>
ffffffff80004764:	f9403fe0 	ldr	x0, [sp, #120]
ffffffff80004768:	f9411801 	ldr	x1, [x0, #560]
ffffffff8000476c:	f94033e0 	ldr	x0, [sp, #96]
ffffffff80004770:	8b000020 	add	x0, x1, x0
ffffffff80004774:	3900001f 	strb	wzr, [x0]
ffffffff80004778:	f94053e0 	ldr	x0, [sp, #160]
ffffffff8000477c:	91000400 	add	x0, x0, #0x1
ffffffff80004780:	f90053e0 	str	x0, [sp, #160]
ffffffff80004784:	f9403fe0 	ldr	x0, [sp, #120]
ffffffff80004788:	f940d800 	ldr	x0, [x0, #432]
ffffffff8000478c:	f94053e1 	ldr	x1, [sp, #160]
ffffffff80004790:	eb00003f 	cmp	x1, x0
ffffffff80004794:	54fffaa3 	b.cc	ffffffff800046e8 <flanterm_fb_init+0x590>  // b.lo, b.ul, b.last
ffffffff80004798:	f9405be0 	ldr	x0, [sp, #176]
ffffffff8000479c:	91000400 	add	x0, x0, #0x1
ffffffff800047a0:	f9005be0 	str	x0, [sp, #176]
ffffffff800047a4:	f9405be1 	ldr	x1, [sp, #176]
ffffffff800047a8:	f94087e0 	ldr	x0, [sp, #264]
ffffffff800047ac:	eb00003f 	cmp	x1, x0
ffffffff800047b0:	54fff403 	b.cc	ffffffff80004630 <flanterm_fb_init+0x4d8>  // b.lo, b.ul, b.last
ffffffff800047b4:	f9405fe0 	ldr	x0, [sp, #184]
ffffffff800047b8:	91000400 	add	x0, x0, #0x1
ffffffff800047bc:	f9005fe0 	str	x0, [sp, #184]
ffffffff800047c0:	f9405fe0 	ldr	x0, [sp, #184]
ffffffff800047c4:	f103fc1f 	cmp	x0, #0xff
ffffffff800047c8:	54fff229 	b.ls	ffffffff8000460c <flanterm_fb_init+0x4b4>  // b.plast
ffffffff800047cc:	f9403fe0 	ldr	x0, [sp, #120]
ffffffff800047d0:	f9408fe1 	ldr	x1, [sp, #280]
ffffffff800047d4:	f900e801 	str	x1, [x0, #464]
ffffffff800047d8:	f9403fe0 	ldr	x0, [sp, #120]
ffffffff800047dc:	f94093e1 	ldr	x1, [sp, #288]
ffffffff800047e0:	f900ec01 	str	x1, [x0, #472]
ffffffff800047e4:	f9403fe0 	ldr	x0, [sp, #120]
ffffffff800047e8:	f940d801 	ldr	x1, [x0, #432]
ffffffff800047ec:	f9408fe0 	ldr	x0, [sp, #280]
ffffffff800047f0:	9b007c21 	mul	x1, x1, x0
ffffffff800047f4:	f9403fe0 	ldr	x0, [sp, #120]
ffffffff800047f8:	f900e001 	str	x1, [x0, #448]
ffffffff800047fc:	f94087e1 	ldr	x1, [sp, #264]
ffffffff80004800:	f94093e0 	ldr	x0, [sp, #288]
ffffffff80004804:	9b007c21 	mul	x1, x1, x0
ffffffff80004808:	f9403fe0 	ldr	x0, [sp, #120]
ffffffff8000480c:	f900e401 	str	x1, [x0, #456]
ffffffff80004810:	f9403fe0 	ldr	x0, [sp, #120]
ffffffff80004814:	f9410001 	ldr	x1, [x0, #512]
ffffffff80004818:	f94097e0 	ldr	x0, [sp, #296]
ffffffff8000481c:	d37ff800 	lsl	x0, x0, #1
ffffffff80004820:	cb000021 	sub	x1, x1, x0
ffffffff80004824:	f9403fe0 	ldr	x0, [sp, #120]
ffffffff80004828:	f940e000 	ldr	x0, [x0, #448]
ffffffff8000482c:	9ac00821 	udiv	x1, x1, x0
ffffffff80004830:	f9403be0 	ldr	x0, [sp, #112]
ffffffff80004834:	f9007401 	str	x1, [x0, #232]
ffffffff80004838:	f9403fe0 	ldr	x0, [sp, #120]
ffffffff8000483c:	f9410401 	ldr	x1, [x0, #520]
ffffffff80004840:	f94097e0 	ldr	x0, [sp, #296]
ffffffff80004844:	d37ff800 	lsl	x0, x0, #1
ffffffff80004848:	cb000021 	sub	x1, x1, x0
ffffffff8000484c:	f9403fe0 	ldr	x0, [sp, #120]
ffffffff80004850:	f940e400 	ldr	x0, [x0, #456]
ffffffff80004854:	9ac00821 	udiv	x1, x1, x0
ffffffff80004858:	f9403be0 	ldr	x0, [sp, #112]
ffffffff8000485c:	f9007001 	str	x1, [x0, #224]
ffffffff80004860:	f9403fe0 	ldr	x0, [sp, #120]
ffffffff80004864:	f9410001 	ldr	x1, [x0, #512]
ffffffff80004868:	f94097e0 	ldr	x0, [sp, #296]
ffffffff8000486c:	d37ff800 	lsl	x0, x0, #1
ffffffff80004870:	cb000020 	sub	x0, x1, x0
ffffffff80004874:	f9403fe1 	ldr	x1, [sp, #120]
ffffffff80004878:	f940e021 	ldr	x1, [x1, #448]
ffffffff8000487c:	9ac10802 	udiv	x2, x0, x1
ffffffff80004880:	9b017c41 	mul	x1, x2, x1
ffffffff80004884:	cb010000 	sub	x0, x0, x1
ffffffff80004888:	d341fc01 	lsr	x1, x0, #1
ffffffff8000488c:	f94097e0 	ldr	x0, [sp, #296]
ffffffff80004890:	8b000021 	add	x1, x1, x0
ffffffff80004894:	f9403fe0 	ldr	x0, [sp, #120]
ffffffff80004898:	f900f001 	str	x1, [x0, #480]
ffffffff8000489c:	f9403fe0 	ldr	x0, [sp, #120]
ffffffff800048a0:	f9410401 	ldr	x1, [x0, #520]
ffffffff800048a4:	f94097e0 	ldr	x0, [sp, #296]
ffffffff800048a8:	d37ff800 	lsl	x0, x0, #1
ffffffff800048ac:	cb000020 	sub	x0, x1, x0
ffffffff800048b0:	f9403fe1 	ldr	x1, [sp, #120]
ffffffff800048b4:	f940e421 	ldr	x1, [x1, #456]
ffffffff800048b8:	9ac10802 	udiv	x2, x0, x1
ffffffff800048bc:	9b017c41 	mul	x1, x2, x1
ffffffff800048c0:	cb010000 	sub	x0, x0, x1
ffffffff800048c4:	d341fc01 	lsr	x1, x0, #1
ffffffff800048c8:	f94097e0 	ldr	x0, [sp, #296]
ffffffff800048cc:	8b000021 	add	x1, x1, x0
ffffffff800048d0:	f9403fe0 	ldr	x0, [sp, #120]
ffffffff800048d4:	f900f401 	str	x1, [x0, #488]
ffffffff800048d8:	f9403be0 	ldr	x0, [sp, #112]
ffffffff800048dc:	f9407001 	ldr	x1, [x0, #224]
ffffffff800048e0:	f9403be0 	ldr	x0, [sp, #112]
ffffffff800048e4:	f9407400 	ldr	x0, [x0, #232]
ffffffff800048e8:	9b007c21 	mul	x1, x1, x0
ffffffff800048ec:	aa0103e0 	mov	x0, x1
ffffffff800048f0:	d37ff800 	lsl	x0, x0, #1
ffffffff800048f4:	8b010000 	add	x0, x0, x1
ffffffff800048f8:	d37ef400 	lsl	x0, x0, #2
ffffffff800048fc:	aa0003e1 	mov	x1, x0
ffffffff80004900:	f9403fe0 	ldr	x0, [sp, #120]
ffffffff80004904:	f9014c01 	str	x1, [x0, #664]
ffffffff80004908:	f9403fe0 	ldr	x0, [sp, #120]
ffffffff8000490c:	f9414c00 	ldr	x0, [x0, #664]
ffffffff80004910:	f94027e1 	ldr	x1, [sp, #72]
ffffffff80004914:	d63f0020 	blr	x1
ffffffff80004918:	aa0003e1 	mov	x1, x0
ffffffff8000491c:	f9403fe0 	ldr	x0, [sp, #120]
ffffffff80004920:	f9015801 	str	x1, [x0, #688]
ffffffff80004924:	f9403fe0 	ldr	x0, [sp, #120]
ffffffff80004928:	f9415800 	ldr	x0, [x0, #688]
ffffffff8000492c:	f100001f 	cmp	x0, #0x0
ffffffff80004930:	54002280 	b.eq	ffffffff80004d80 <flanterm_fb_init+0xc28>  // b.none
ffffffff80004934:	f9004fff 	str	xzr, [sp, #152]
ffffffff80004938:	14000024 	b	ffffffff800049c8 <flanterm_fb_init+0x870>
ffffffff8000493c:	f9403fe0 	ldr	x0, [sp, #120]
ffffffff80004940:	f9415802 	ldr	x2, [x0, #688]
ffffffff80004944:	f9404fe1 	ldr	x1, [sp, #152]
ffffffff80004948:	aa0103e0 	mov	x0, x1
ffffffff8000494c:	d37ff800 	lsl	x0, x0, #1
ffffffff80004950:	8b010000 	add	x0, x0, x1
ffffffff80004954:	d37ef400 	lsl	x0, x0, #2
ffffffff80004958:	8b000040 	add	x0, x2, x0
ffffffff8000495c:	52800401 	mov	w1, #0x20                  	// #32
ffffffff80004960:	b9000001 	str	w1, [x0]
ffffffff80004964:	f9403fe0 	ldr	x0, [sp, #120]
ffffffff80004968:	f9415802 	ldr	x2, [x0, #688]
ffffffff8000496c:	f9404fe1 	ldr	x1, [sp, #152]
ffffffff80004970:	aa0103e0 	mov	x0, x1
ffffffff80004974:	d37ff800 	lsl	x0, x0, #1
ffffffff80004978:	8b010000 	add	x0, x0, x1
ffffffff8000497c:	d37ef400 	lsl	x0, x0, #2
ffffffff80004980:	8b000040 	add	x0, x2, x0
ffffffff80004984:	f9403fe1 	ldr	x1, [sp, #120]
ffffffff80004988:	b942d021 	ldr	w1, [x1, #720]
ffffffff8000498c:	b9000401 	str	w1, [x0, #4]
ffffffff80004990:	f9403fe0 	ldr	x0, [sp, #120]
ffffffff80004994:	f9415802 	ldr	x2, [x0, #688]
ffffffff80004998:	f9404fe1 	ldr	x1, [sp, #152]
ffffffff8000499c:	aa0103e0 	mov	x0, x1
ffffffff800049a0:	d37ff800 	lsl	x0, x0, #1
ffffffff800049a4:	8b010000 	add	x0, x0, x1
ffffffff800049a8:	d37ef400 	lsl	x0, x0, #2
ffffffff800049ac:	8b000040 	add	x0, x2, x0
ffffffff800049b0:	f9403fe1 	ldr	x1, [sp, #120]
ffffffff800049b4:	b942d421 	ldr	w1, [x1, #724]
ffffffff800049b8:	b9000801 	str	w1, [x0, #8]
ffffffff800049bc:	f9404fe0 	ldr	x0, [sp, #152]
ffffffff800049c0:	91000400 	add	x0, x0, #0x1
ffffffff800049c4:	f9004fe0 	str	x0, [sp, #152]
ffffffff800049c8:	f9403be0 	ldr	x0, [sp, #112]
ffffffff800049cc:	f9407001 	ldr	x1, [x0, #224]
ffffffff800049d0:	f9403be0 	ldr	x0, [sp, #112]
ffffffff800049d4:	f9407400 	ldr	x0, [x0, #232]
ffffffff800049d8:	9b007c20 	mul	x0, x1, x0
ffffffff800049dc:	f9404fe1 	ldr	x1, [sp, #152]
ffffffff800049e0:	eb00003f 	cmp	x1, x0
ffffffff800049e4:	54fffac3 	b.cc	ffffffff8000493c <flanterm_fb_init+0x7e4>  // b.lo, b.ul, b.last
ffffffff800049e8:	f9403be0 	ldr	x0, [sp, #112]
ffffffff800049ec:	f9407001 	ldr	x1, [x0, #224]
ffffffff800049f0:	f9403be0 	ldr	x0, [sp, #112]
ffffffff800049f4:	f9407400 	ldr	x0, [x0, #232]
ffffffff800049f8:	9b007c20 	mul	x0, x1, x0
ffffffff800049fc:	d37be801 	lsl	x1, x0, #5
ffffffff80004a00:	f9403fe0 	ldr	x0, [sp, #120]
ffffffff80004a04:	f9015001 	str	x1, [x0, #672]
ffffffff80004a08:	f9403fe0 	ldr	x0, [sp, #120]
ffffffff80004a0c:	f9415000 	ldr	x0, [x0, #672]
ffffffff80004a10:	f94027e1 	ldr	x1, [sp, #72]
ffffffff80004a14:	d63f0020 	blr	x1
ffffffff80004a18:	aa0003e1 	mov	x1, x0
ffffffff80004a1c:	f9403fe0 	ldr	x0, [sp, #120]
ffffffff80004a20:	f9015c01 	str	x1, [x0, #696]
ffffffff80004a24:	f9403fe0 	ldr	x0, [sp, #120]
ffffffff80004a28:	f9415c00 	ldr	x0, [x0, #696]
ffffffff80004a2c:	f100001f 	cmp	x0, #0x0
ffffffff80004a30:	54001ac0 	b.eq	ffffffff80004d88 <flanterm_fb_init+0xc30>  // b.none
ffffffff80004a34:	f9403fe0 	ldr	x0, [sp, #120]
ffffffff80004a38:	f901601f 	str	xzr, [x0, #704]
ffffffff80004a3c:	f9403fe0 	ldr	x0, [sp, #120]
ffffffff80004a40:	f9415c03 	ldr	x3, [x0, #696]
ffffffff80004a44:	f9403fe0 	ldr	x0, [sp, #120]
ffffffff80004a48:	f9415000 	ldr	x0, [x0, #672]
ffffffff80004a4c:	aa0003e2 	mov	x2, x0
ffffffff80004a50:	52800001 	mov	w1, #0x0                   	// #0
ffffffff80004a54:	aa0303e0 	mov	x0, x3
ffffffff80004a58:	97ffee63 	bl	ffffffff800003e4 <memset>
ffffffff80004a5c:	f9403be0 	ldr	x0, [sp, #112]
ffffffff80004a60:	f9407001 	ldr	x1, [x0, #224]
ffffffff80004a64:	f9403be0 	ldr	x0, [sp, #112]
ffffffff80004a68:	f9407400 	ldr	x0, [x0, #232]
ffffffff80004a6c:	9b007c20 	mul	x0, x1, x0
ffffffff80004a70:	d37df001 	lsl	x1, x0, #3
ffffffff80004a74:	f9403fe0 	ldr	x0, [sp, #120]
ffffffff80004a78:	f9015401 	str	x1, [x0, #680]
ffffffff80004a7c:	f9403fe0 	ldr	x0, [sp, #120]
ffffffff80004a80:	f9415400 	ldr	x0, [x0, #680]
ffffffff80004a84:	f94027e1 	ldr	x1, [sp, #72]
ffffffff80004a88:	d63f0020 	blr	x1
ffffffff80004a8c:	aa0003e1 	mov	x1, x0
ffffffff80004a90:	f9403fe0 	ldr	x0, [sp, #120]
ffffffff80004a94:	f9016401 	str	x1, [x0, #712]
ffffffff80004a98:	f9403fe0 	ldr	x0, [sp, #120]
ffffffff80004a9c:	f9416400 	ldr	x0, [x0, #712]
ffffffff80004aa0:	f100001f 	cmp	x0, #0x0
ffffffff80004aa4:	54001760 	b.eq	ffffffff80004d90 <flanterm_fb_init+0xc38>  // b.none
ffffffff80004aa8:	f9403fe0 	ldr	x0, [sp, #120]
ffffffff80004aac:	f9416403 	ldr	x3, [x0, #712]
ffffffff80004ab0:	f9403fe0 	ldr	x0, [sp, #120]
ffffffff80004ab4:	f9415400 	ldr	x0, [x0, #680]
ffffffff80004ab8:	aa0003e2 	mov	x2, x0
ffffffff80004abc:	52800001 	mov	w1, #0x0                   	// #0
ffffffff80004ac0:	aa0303e0 	mov	x0, x3
ffffffff80004ac4:	97ffee48 	bl	ffffffff800003e4 <memset>
ffffffff80004ac8:	f9403fe0 	ldr	x0, [sp, #120]
ffffffff80004acc:	f9410001 	ldr	x1, [x0, #512]
ffffffff80004ad0:	f9403fe0 	ldr	x0, [sp, #120]
ffffffff80004ad4:	f9410400 	ldr	x0, [x0, #520]
ffffffff80004ad8:	9b007c20 	mul	x0, x1, x0
ffffffff80004adc:	d37ef401 	lsl	x1, x0, #2
ffffffff80004ae0:	f9403fe0 	ldr	x0, [sp, #120]
ffffffff80004ae4:	f9014401 	str	x1, [x0, #648]
ffffffff80004ae8:	f9403fe0 	ldr	x0, [sp, #120]
ffffffff80004aec:	f9414400 	ldr	x0, [x0, #648]
ffffffff80004af0:	f94027e1 	ldr	x1, [sp, #72]
ffffffff80004af4:	d63f0020 	blr	x1
ffffffff80004af8:	aa0003e1 	mov	x1, x0
ffffffff80004afc:	f9403fe0 	ldr	x0, [sp, #120]
ffffffff80004b00:	f9014801 	str	x1, [x0, #656]
ffffffff80004b04:	f9403fe0 	ldr	x0, [sp, #120]
ffffffff80004b08:	f9414800 	ldr	x0, [x0, #656]
ffffffff80004b0c:	f100001f 	cmp	x0, #0x0
ffffffff80004b10:	54001440 	b.eq	ffffffff80004d98 <flanterm_fb_init+0xc40>  // b.none
ffffffff80004b14:	f9400fe0 	ldr	x0, [sp, #24]
ffffffff80004b18:	f100001f 	cmp	x0, #0x0
ffffffff80004b1c:	54000340 	b.eq	ffffffff80004b84 <flanterm_fb_init+0xa2c>  // b.none
ffffffff80004b20:	f9004bff 	str	xzr, [sp, #144]
ffffffff80004b24:	1400000f 	b	ffffffff80004b60 <flanterm_fb_init+0xa08>
ffffffff80004b28:	f9404be0 	ldr	x0, [sp, #144]
ffffffff80004b2c:	d37ef400 	lsl	x0, x0, #2
ffffffff80004b30:	f9400fe1 	ldr	x1, [sp, #24]
ffffffff80004b34:	8b000021 	add	x1, x1, x0
ffffffff80004b38:	f9403fe0 	ldr	x0, [sp, #120]
ffffffff80004b3c:	f9414802 	ldr	x2, [x0, #656]
ffffffff80004b40:	f9404be0 	ldr	x0, [sp, #144]
ffffffff80004b44:	d37ef400 	lsl	x0, x0, #2
ffffffff80004b48:	8b000040 	add	x0, x2, x0
ffffffff80004b4c:	b9400021 	ldr	w1, [x1]
ffffffff80004b50:	b9000001 	str	w1, [x0]
ffffffff80004b54:	f9404be0 	ldr	x0, [sp, #144]
ffffffff80004b58:	91000400 	add	x0, x0, #0x1
ffffffff80004b5c:	f9004be0 	str	x0, [sp, #144]
ffffffff80004b60:	f9403fe0 	ldr	x0, [sp, #120]
ffffffff80004b64:	f9410001 	ldr	x1, [x0, #512]
ffffffff80004b68:	f9403fe0 	ldr	x0, [sp, #120]
ffffffff80004b6c:	f9410400 	ldr	x0, [x0, #520]
ffffffff80004b70:	9b007c20 	mul	x0, x1, x0
ffffffff80004b74:	f9404be1 	ldr	x1, [sp, #144]
ffffffff80004b78:	eb00003f 	cmp	x1, x0
ffffffff80004b7c:	54fffd63 	b.cc	ffffffff80004b28 <flanterm_fb_init+0x9d0>  // b.lo, b.ul, b.last
ffffffff80004b80:	14000016 	b	ffffffff80004bd8 <flanterm_fb_init+0xa80>
ffffffff80004b84:	f90047ff 	str	xzr, [sp, #136]
ffffffff80004b88:	1400000c 	b	ffffffff80004bb8 <flanterm_fb_init+0xa60>
ffffffff80004b8c:	f9403fe0 	ldr	x0, [sp, #120]
ffffffff80004b90:	f9414801 	ldr	x1, [x0, #656]
ffffffff80004b94:	f94047e0 	ldr	x0, [sp, #136]
ffffffff80004b98:	d37ef400 	lsl	x0, x0, #2
ffffffff80004b9c:	8b000020 	add	x0, x1, x0
ffffffff80004ba0:	f9403fe1 	ldr	x1, [sp, #120]
ffffffff80004ba4:	b9427c21 	ldr	w1, [x1, #636]
ffffffff80004ba8:	b9000001 	str	w1, [x0]
ffffffff80004bac:	f94047e0 	ldr	x0, [sp, #136]
ffffffff80004bb0:	91000400 	add	x0, x0, #0x1
ffffffff80004bb4:	f90047e0 	str	x0, [sp, #136]
ffffffff80004bb8:	f9403fe0 	ldr	x0, [sp, #120]
ffffffff80004bbc:	f9410001 	ldr	x1, [x0, #512]
ffffffff80004bc0:	f9403fe0 	ldr	x0, [sp, #120]
ffffffff80004bc4:	f9410400 	ldr	x0, [x0, #520]
ffffffff80004bc8:	9b007c20 	mul	x0, x1, x0
ffffffff80004bcc:	f94047e1 	ldr	x1, [sp, #136]
ffffffff80004bd0:	eb00003f 	cmp	x1, x0
ffffffff80004bd4:	54fffdc3 	b.cc	ffffffff80004b8c <flanterm_fb_init+0xa34>  // b.lo, b.ul, b.last
ffffffff80004bd8:	f9403be0 	ldr	x0, [sp, #112]
ffffffff80004bdc:	f0ffffe1 	adrp	x1, ffffffff80003000 <compare_char+0x44>
ffffffff80004be0:	91367021 	add	x1, x1, #0xd9c
ffffffff80004be4:	f9007801 	str	x1, [x0, #240]
ffffffff80004be8:	f9403be0 	ldr	x0, [sp, #112]
ffffffff80004bec:	f0ffffe1 	adrp	x1, ffffffff80003000 <compare_char+0x44>
ffffffff80004bf0:	91129021 	add	x1, x1, #0x4a4
ffffffff80004bf4:	f9007c01 	str	x1, [x0, #248]
ffffffff80004bf8:	f9403be0 	ldr	x0, [sp, #112]
ffffffff80004bfc:	f0ffffe1 	adrp	x1, ffffffff80003000 <compare_char+0x44>
ffffffff80004c00:	9115e021 	add	x1, x1, #0x578
ffffffff80004c04:	f9008001 	str	x1, [x0, #256]
ffffffff80004c08:	f9403be0 	ldr	x0, [sp, #112]
ffffffff80004c0c:	f0ffffe1 	adrp	x1, ffffffff80003000 <compare_char+0x44>
ffffffff80004c10:	91189021 	add	x1, x1, #0x624
ffffffff80004c14:	f9008401 	str	x1, [x0, #264]
ffffffff80004c18:	f9403be0 	ldr	x0, [sp, #112]
ffffffff80004c1c:	f0ffffe1 	adrp	x1, ffffffff80003000 <compare_char+0x44>
ffffffff80004c20:	911f2021 	add	x1, x1, #0x7c8
ffffffff80004c24:	f9008801 	str	x1, [x0, #272]
ffffffff80004c28:	f9403be0 	ldr	x0, [sp, #112]
ffffffff80004c2c:	f0ffffe1 	adrp	x1, ffffffff80003000 <compare_char+0x44>
ffffffff80004c30:	91202021 	add	x1, x1, #0x808
ffffffff80004c34:	f9008c01 	str	x1, [x0, #280]
ffffffff80004c38:	f9403be0 	ldr	x0, [sp, #112]
ffffffff80004c3c:	f0ffffe1 	adrp	x1, ffffffff80003000 <compare_char+0x44>
ffffffff80004c40:	91212021 	add	x1, x1, #0x848
ffffffff80004c44:	f9009001 	str	x1, [x0, #288]
ffffffff80004c48:	f9403be0 	ldr	x0, [sp, #112]
ffffffff80004c4c:	f0ffffe1 	adrp	x1, ffffffff80003000 <compare_char+0x44>
ffffffff80004c50:	91222021 	add	x1, x1, #0x888
ffffffff80004c54:	f9009401 	str	x1, [x0, #296]
ffffffff80004c58:	f9403be0 	ldr	x0, [sp, #112]
ffffffff80004c5c:	f0ffffe1 	adrp	x1, ffffffff80003000 <compare_char+0x44>
ffffffff80004c60:	91232021 	add	x1, x1, #0x8c8
ffffffff80004c64:	f9009801 	str	x1, [x0, #304]
ffffffff80004c68:	f9403be0 	ldr	x0, [sp, #112]
ffffffff80004c6c:	f0ffffe1 	adrp	x1, ffffffff80003000 <compare_char+0x44>
ffffffff80004c70:	9123d021 	add	x1, x1, #0x8f4
ffffffff80004c74:	f9009c01 	str	x1, [x0, #312]
ffffffff80004c78:	f9403be0 	ldr	x0, [sp, #112]
ffffffff80004c7c:	f0ffffe1 	adrp	x1, ffffffff80003000 <compare_char+0x44>
ffffffff80004c80:	91248021 	add	x1, x1, #0x920
ffffffff80004c84:	f900a001 	str	x1, [x0, #320]
ffffffff80004c88:	f9403be0 	ldr	x0, [sp, #112]
ffffffff80004c8c:	f0ffffe1 	adrp	x1, ffffffff80003000 <compare_char+0x44>
ffffffff80004c90:	91253021 	add	x1, x1, #0x94c
ffffffff80004c94:	f900a401 	str	x1, [x0, #328]
ffffffff80004c98:	f9403be0 	ldr	x0, [sp, #112]
ffffffff80004c9c:	f0ffffe1 	adrp	x1, ffffffff80003000 <compare_char+0x44>
ffffffff80004ca0:	9125d021 	add	x1, x1, #0x974
ffffffff80004ca4:	f900a801 	str	x1, [x0, #336]
ffffffff80004ca8:	f9403be0 	ldr	x0, [sp, #112]
ffffffff80004cac:	f0ffffe1 	adrp	x1, ffffffff80003000 <compare_char+0x44>
ffffffff80004cb0:	91268021 	add	x1, x1, #0x9a0
ffffffff80004cb4:	f900ac01 	str	x1, [x0, #344]
ffffffff80004cb8:	f9403be0 	ldr	x0, [sp, #112]
ffffffff80004cbc:	f0ffffe1 	adrp	x1, ffffffff80003000 <compare_char+0x44>
ffffffff80004cc0:	911ae021 	add	x1, x1, #0x6b8
ffffffff80004cc4:	f900b001 	str	x1, [x0, #352]
ffffffff80004cc8:	f9403be0 	ldr	x0, [sp, #112]
ffffffff80004ccc:	f0ffffe1 	adrp	x1, ffffffff80003000 <compare_char+0x44>
ffffffff80004cd0:	910c7021 	add	x1, x1, #0x31c
ffffffff80004cd4:	f900b401 	str	x1, [x0, #360]
ffffffff80004cd8:	f9403be0 	ldr	x0, [sp, #112]
ffffffff80004cdc:	f0ffffe1 	adrp	x1, ffffffff80003000 <compare_char+0x44>
ffffffff80004ce0:	91060021 	add	x1, x1, #0x180
ffffffff80004ce4:	f900b801 	str	x1, [x0, #368]
ffffffff80004ce8:	f9403be0 	ldr	x0, [sp, #112]
ffffffff80004cec:	d0ffffe1 	adrp	x1, ffffffff80002000 <kmalloc+0x31c>
ffffffff80004cf0:	91337021 	add	x1, x1, #0xcdc
ffffffff80004cf4:	f900bc01 	str	x1, [x0, #376]
ffffffff80004cf8:	f9403be0 	ldr	x0, [sp, #112]
ffffffff80004cfc:	d0ffffe1 	adrp	x1, ffffffff80002000 <kmalloc+0x31c>
ffffffff80004d00:	91309021 	add	x1, x1, #0xc24
ffffffff80004d04:	f900c001 	str	x1, [x0, #384]
ffffffff80004d08:	f9403be0 	ldr	x0, [sp, #112]
ffffffff80004d0c:	d0ffffe1 	adrp	x1, ffffffff80002000 <kmalloc+0x31c>
ffffffff80004d10:	91320021 	add	x1, x1, #0xc80
ffffffff80004d14:	f900c401 	str	x1, [x0, #392]
ffffffff80004d18:	f9403be0 	ldr	x0, [sp, #112]
ffffffff80004d1c:	f0ffffe1 	adrp	x1, ffffffff80003000 <compare_char+0x44>
ffffffff80004d20:	912d8021 	add	x1, x1, #0xb60
ffffffff80004d24:	f900c801 	str	x1, [x0, #400]
ffffffff80004d28:	f9403be0 	ldr	x0, [sp, #112]
ffffffff80004d2c:	f0ffffe1 	adrp	x1, ffffffff80003000 <compare_char+0x44>
ffffffff80004d30:	913b5021 	add	x1, x1, #0xed4
ffffffff80004d34:	f900cc01 	str	x1, [x0, #408]
ffffffff80004d38:	f9403be0 	ldr	x0, [sp, #112]
ffffffff80004d3c:	90000001 	adrp	x1, ffffffff80004000 <flanterm_fb_full_refresh+0x12c>
ffffffff80004d40:	91015021 	add	x1, x1, #0x54
ffffffff80004d44:	f900d001 	str	x1, [x0, #416]
ffffffff80004d48:	f9403be0 	ldr	x0, [sp, #112]
ffffffff80004d4c:	94000076 	bl	ffffffff80004f24 <flanterm_context_reinit>
ffffffff80004d50:	f9403be0 	ldr	x0, [sp, #112]
ffffffff80004d54:	97fffc60 	bl	ffffffff80003ed4 <flanterm_fb_full_refresh>
ffffffff80004d58:	f9403be0 	ldr	x0, [sp, #112]
ffffffff80004d5c:	14000070 	b	ffffffff80004f1c <flanterm_fb_init+0xdc4>
ffffffff80004d60:	d503201f 	nop
ffffffff80004d64:	1400000e 	b	ffffffff80004d9c <flanterm_fb_init+0xc44>
ffffffff80004d68:	d503201f 	nop
ffffffff80004d6c:	1400000c 	b	ffffffff80004d9c <flanterm_fb_init+0xc44>
ffffffff80004d70:	d503201f 	nop
ffffffff80004d74:	1400000a 	b	ffffffff80004d9c <flanterm_fb_init+0xc44>
ffffffff80004d78:	d503201f 	nop
ffffffff80004d7c:	14000008 	b	ffffffff80004d9c <flanterm_fb_init+0xc44>
ffffffff80004d80:	d503201f 	nop
ffffffff80004d84:	14000006 	b	ffffffff80004d9c <flanterm_fb_init+0xc44>
ffffffff80004d88:	d503201f 	nop
ffffffff80004d8c:	14000004 	b	ffffffff80004d9c <flanterm_fb_init+0xc44>
ffffffff80004d90:	d503201f 	nop
ffffffff80004d94:	14000002 	b	ffffffff80004d9c <flanterm_fb_init+0xc44>
ffffffff80004d98:	d503201f 	nop
ffffffff80004d9c:	f94027e1 	ldr	x1, [sp, #72]
ffffffff80004da0:	d0ffffe0 	adrp	x0, ffffffff80002000 <kmalloc+0x31c>
ffffffff80004da4:	912ed000 	add	x0, x0, #0xbb4
ffffffff80004da8:	eb00003f 	cmp	x1, x0
ffffffff80004dac:	540000e1 	b.ne	ffffffff80004dc8 <flanterm_fb_init+0xc70>  // b.any
ffffffff80004db0:	90020140 	adrp	x0, ffffffff8402c000 <bump_alloc_pool+0x3ffffe0>
ffffffff80004db4:	91008000 	add	x0, x0, #0x20
ffffffff80004db8:	f94043e1 	ldr	x1, [sp, #128]
ffffffff80004dbc:	f9000001 	str	x1, [x0]
ffffffff80004dc0:	d2800000 	mov	x0, #0x0                   	// #0
ffffffff80004dc4:	14000056 	b	ffffffff80004f1c <flanterm_fb_init+0xdc4>
ffffffff80004dc8:	f94023e0 	ldr	x0, [sp, #64]
ffffffff80004dcc:	f100001f 	cmp	x0, #0x0
ffffffff80004dd0:	54000061 	b.ne	ffffffff80004ddc <flanterm_fb_init+0xc84>  // b.any
ffffffff80004dd4:	d2800000 	mov	x0, #0x0                   	// #0
ffffffff80004dd8:	14000051 	b	ffffffff80004f1c <flanterm_fb_init+0xdc4>
ffffffff80004ddc:	f9403fe0 	ldr	x0, [sp, #120]
ffffffff80004de0:	f9414800 	ldr	x0, [x0, #656]
ffffffff80004de4:	f100001f 	cmp	x0, #0x0
ffffffff80004de8:	54000120 	b.eq	ffffffff80004e0c <flanterm_fb_init+0xcb4>  // b.none
ffffffff80004dec:	f9403fe0 	ldr	x0, [sp, #120]
ffffffff80004df0:	f9414803 	ldr	x3, [x0, #656]
ffffffff80004df4:	f9403fe0 	ldr	x0, [sp, #120]
ffffffff80004df8:	f9414400 	ldr	x0, [x0, #648]
ffffffff80004dfc:	f94023e2 	ldr	x2, [sp, #64]
ffffffff80004e00:	aa0003e1 	mov	x1, x0
ffffffff80004e04:	aa0303e0 	mov	x0, x3
ffffffff80004e08:	d63f0040 	blr	x2
ffffffff80004e0c:	f9403fe0 	ldr	x0, [sp, #120]
ffffffff80004e10:	f9416400 	ldr	x0, [x0, #712]
ffffffff80004e14:	f100001f 	cmp	x0, #0x0
ffffffff80004e18:	54000120 	b.eq	ffffffff80004e3c <flanterm_fb_init+0xce4>  // b.none
ffffffff80004e1c:	f9403fe0 	ldr	x0, [sp, #120]
ffffffff80004e20:	f9416403 	ldr	x3, [x0, #712]
ffffffff80004e24:	f9403fe0 	ldr	x0, [sp, #120]
ffffffff80004e28:	f9415400 	ldr	x0, [x0, #680]
ffffffff80004e2c:	f94023e2 	ldr	x2, [sp, #64]
ffffffff80004e30:	aa0003e1 	mov	x1, x0
ffffffff80004e34:	aa0303e0 	mov	x0, x3
ffffffff80004e38:	d63f0040 	blr	x2
ffffffff80004e3c:	f9403fe0 	ldr	x0, [sp, #120]
ffffffff80004e40:	f9415c00 	ldr	x0, [x0, #696]
ffffffff80004e44:	f100001f 	cmp	x0, #0x0
ffffffff80004e48:	54000120 	b.eq	ffffffff80004e6c <flanterm_fb_init+0xd14>  // b.none
ffffffff80004e4c:	f9403fe0 	ldr	x0, [sp, #120]
ffffffff80004e50:	f9415c03 	ldr	x3, [x0, #696]
ffffffff80004e54:	f9403fe0 	ldr	x0, [sp, #120]
ffffffff80004e58:	f9415000 	ldr	x0, [x0, #672]
ffffffff80004e5c:	f94023e2 	ldr	x2, [sp, #64]
ffffffff80004e60:	aa0003e1 	mov	x1, x0
ffffffff80004e64:	aa0303e0 	mov	x0, x3
ffffffff80004e68:	d63f0040 	blr	x2
ffffffff80004e6c:	f9403fe0 	ldr	x0, [sp, #120]
ffffffff80004e70:	f9415800 	ldr	x0, [x0, #688]
ffffffff80004e74:	f100001f 	cmp	x0, #0x0
ffffffff80004e78:	54000120 	b.eq	ffffffff80004e9c <flanterm_fb_init+0xd44>  // b.none
ffffffff80004e7c:	f9403fe0 	ldr	x0, [sp, #120]
ffffffff80004e80:	f9415803 	ldr	x3, [x0, #688]
ffffffff80004e84:	f9403fe0 	ldr	x0, [sp, #120]
ffffffff80004e88:	f9414c00 	ldr	x0, [x0, #664]
ffffffff80004e8c:	f94023e2 	ldr	x2, [sp, #64]
ffffffff80004e90:	aa0003e1 	mov	x1, x0
ffffffff80004e94:	aa0303e0 	mov	x0, x3
ffffffff80004e98:	d63f0040 	blr	x2
ffffffff80004e9c:	f9403fe0 	ldr	x0, [sp, #120]
ffffffff80004ea0:	f9411800 	ldr	x0, [x0, #560]
ffffffff80004ea4:	f100001f 	cmp	x0, #0x0
ffffffff80004ea8:	54000120 	b.eq	ffffffff80004ecc <flanterm_fb_init+0xd74>  // b.none
ffffffff80004eac:	f9403fe0 	ldr	x0, [sp, #120]
ffffffff80004eb0:	f9411803 	ldr	x3, [x0, #560]
ffffffff80004eb4:	f9403fe0 	ldr	x0, [sp, #120]
ffffffff80004eb8:	f9411400 	ldr	x0, [x0, #552]
ffffffff80004ebc:	f94023e2 	ldr	x2, [sp, #64]
ffffffff80004ec0:	aa0003e1 	mov	x1, x0
ffffffff80004ec4:	aa0303e0 	mov	x0, x3
ffffffff80004ec8:	d63f0040 	blr	x2
ffffffff80004ecc:	f9403fe0 	ldr	x0, [sp, #120]
ffffffff80004ed0:	f9411000 	ldr	x0, [x0, #544]
ffffffff80004ed4:	f100001f 	cmp	x0, #0x0
ffffffff80004ed8:	54000120 	b.eq	ffffffff80004efc <flanterm_fb_init+0xda4>  // b.none
ffffffff80004edc:	f9403fe0 	ldr	x0, [sp, #120]
ffffffff80004ee0:	f9411003 	ldr	x3, [x0, #544]
ffffffff80004ee4:	f9403fe0 	ldr	x0, [sp, #120]
ffffffff80004ee8:	f9410c00 	ldr	x0, [x0, #536]
ffffffff80004eec:	f94023e2 	ldr	x2, [sp, #64]
ffffffff80004ef0:	aa0003e1 	mov	x1, x0
ffffffff80004ef4:	aa0303e0 	mov	x0, x3
ffffffff80004ef8:	d63f0040 	blr	x2
ffffffff80004efc:	f9403fe0 	ldr	x0, [sp, #120]
ffffffff80004f00:	f100001f 	cmp	x0, #0x0
ffffffff80004f04:	540000a0 	b.eq	ffffffff80004f18 <flanterm_fb_init+0xdc0>  // b.none
ffffffff80004f08:	f94023e2 	ldr	x2, [sp, #64]
ffffffff80004f0c:	d2806201 	mov	x1, #0x310                 	// #784
ffffffff80004f10:	f9403fe0 	ldr	x0, [sp, #120]
ffffffff80004f14:	d63f0040 	blr	x2
ffffffff80004f18:	d2800000 	mov	x0, #0x0                   	// #0
ffffffff80004f1c:	a8cd7bfd 	ldp	x29, x30, [sp], #208
ffffffff80004f20:	d65f03c0 	ret

ffffffff80004f24 <flanterm_context_reinit>:
ffffffff80004f24:	d10043ff 	sub	sp, sp, #0x10
ffffffff80004f28:	f90007e0 	str	x0, [sp, #8]
ffffffff80004f2c:	f94007e0 	ldr	x0, [sp, #8]
ffffffff80004f30:	d2800101 	mov	x1, #0x8                   	// #8
ffffffff80004f34:	f9000001 	str	x1, [x0]
ffffffff80004f38:	f94007e0 	ldr	x0, [sp, #8]
ffffffff80004f3c:	52800021 	mov	w1, #0x1                   	// #1
ffffffff80004f40:	39002001 	strb	w1, [x0, #8]
ffffffff80004f44:	f94007e0 	ldr	x0, [sp, #8]
ffffffff80004f48:	52800021 	mov	w1, #0x1                   	// #1
ffffffff80004f4c:	39002401 	strb	w1, [x0, #9]
ffffffff80004f50:	f94007e0 	ldr	x0, [sp, #8]
ffffffff80004f54:	52800021 	mov	w1, #0x1                   	// #1
ffffffff80004f58:	39002801 	strb	w1, [x0, #10]
ffffffff80004f5c:	f94007e0 	ldr	x0, [sp, #8]
ffffffff80004f60:	39002c1f 	strb	wzr, [x0, #11]
ffffffff80004f64:	f94007e0 	ldr	x0, [sp, #8]
ffffffff80004f68:	3900301f 	strb	wzr, [x0, #12]
ffffffff80004f6c:	f94007e0 	ldr	x0, [sp, #8]
ffffffff80004f70:	3900341f 	strb	wzr, [x0, #13]
ffffffff80004f74:	f94007e0 	ldr	x0, [sp, #8]
ffffffff80004f78:	3900381f 	strb	wzr, [x0, #14]
ffffffff80004f7c:	f94007e0 	ldr	x0, [sp, #8]
ffffffff80004f80:	39003c1f 	strb	wzr, [x0, #15]
ffffffff80004f84:	f94007e0 	ldr	x0, [sp, #8]
ffffffff80004f88:	3900401f 	strb	wzr, [x0, #16]
ffffffff80004f8c:	f94007e0 	ldr	x0, [sp, #8]
ffffffff80004f90:	3900441f 	strb	wzr, [x0, #17]
ffffffff80004f94:	f94007e0 	ldr	x0, [sp, #8]
ffffffff80004f98:	3900481f 	strb	wzr, [x0, #18]
ffffffff80004f9c:	f94007e0 	ldr	x0, [sp, #8]
ffffffff80004fa0:	39004c1f 	strb	wzr, [x0, #19]
ffffffff80004fa4:	f94007e0 	ldr	x0, [sp, #8]
ffffffff80004fa8:	3900501f 	strb	wzr, [x0, #20]
ffffffff80004fac:	f94007e0 	ldr	x0, [sp, #8]
ffffffff80004fb0:	3900541f 	strb	wzr, [x0, #21]
ffffffff80004fb4:	f94007e0 	ldr	x0, [sp, #8]
ffffffff80004fb8:	3900581f 	strb	wzr, [x0, #22]
ffffffff80004fbc:	f94007e0 	ldr	x0, [sp, #8]
ffffffff80004fc0:	f900101f 	str	xzr, [x0, #32]
ffffffff80004fc4:	f94007e0 	ldr	x0, [sp, #8]
ffffffff80004fc8:	3900a01f 	strb	wzr, [x0, #40]
ffffffff80004fcc:	f94007e0 	ldr	x0, [sp, #8]
ffffffff80004fd0:	3900a41f 	strb	wzr, [x0, #41]
ffffffff80004fd4:	f94007e0 	ldr	x0, [sp, #8]
ffffffff80004fd8:	52800021 	mov	w1, #0x1                   	// #1
ffffffff80004fdc:	3900a801 	strb	w1, [x0, #42]
ffffffff80004fe0:	f94007e0 	ldr	x0, [sp, #8]
ffffffff80004fe4:	f900181f 	str	xzr, [x0, #48]
ffffffff80004fe8:	f94007e0 	ldr	x0, [sp, #8]
ffffffff80004fec:	f9001c1f 	str	xzr, [x0, #56]
ffffffff80004ff0:	f94007e0 	ldr	x0, [sp, #8]
ffffffff80004ff4:	f900201f 	str	xzr, [x0, #64]
ffffffff80004ff8:	f94007e0 	ldr	x0, [sp, #8]
ffffffff80004ffc:	f900241f 	str	xzr, [x0, #72]
ffffffff80005000:	f94007e0 	ldr	x0, [sp, #8]
ffffffff80005004:	f900281f 	str	xzr, [x0, #80]
ffffffff80005008:	f94007e0 	ldr	x0, [sp, #8]
ffffffff8000500c:	92800001 	mov	x1, #0xffffffffffffffff    	// #-1
ffffffff80005010:	f9002c01 	str	x1, [x0, #88]
ffffffff80005014:	f94007e0 	ldr	x0, [sp, #8]
ffffffff80005018:	92800001 	mov	x1, #0xffffffffffffffff    	// #-1
ffffffff8000501c:	f9003001 	str	x1, [x0, #96]
ffffffff80005020:	f94007e0 	ldr	x0, [sp, #8]
ffffffff80005024:	f900341f 	str	xzr, [x0, #104]
ffffffff80005028:	f94007e0 	ldr	x0, [sp, #8]
ffffffff8000502c:	f9407001 	ldr	x1, [x0, #224]
ffffffff80005030:	f94007e0 	ldr	x0, [sp, #8]
ffffffff80005034:	f9003801 	str	x1, [x0, #112]
ffffffff80005038:	f94007e0 	ldr	x0, [sp, #8]
ffffffff8000503c:	d2800201 	mov	x1, #0x10                  	// #16
ffffffff80005040:	f9005c01 	str	x1, [x0, #184]
ffffffff80005044:	d503201f 	nop
ffffffff80005048:	910043ff 	add	sp, sp, #0x10
ffffffff8000504c:	d65f03c0 	ret

ffffffff80005050 <flanterm_write>:
ffffffff80005050:	a9bc7bfd 	stp	x29, x30, [sp, #-64]!
ffffffff80005054:	910003fd 	mov	x29, sp
ffffffff80005058:	f90017e0 	str	x0, [sp, #40]
ffffffff8000505c:	f90013e1 	str	x1, [sp, #32]
ffffffff80005060:	f9000fe2 	str	x2, [sp, #24]
ffffffff80005064:	f9001fff 	str	xzr, [sp, #56]
ffffffff80005068:	1400000b 	b	ffffffff80005094 <flanterm_write+0x44>
ffffffff8000506c:	f94013e1 	ldr	x1, [sp, #32]
ffffffff80005070:	f9401fe0 	ldr	x0, [sp, #56]
ffffffff80005074:	8b000020 	add	x0, x1, x0
ffffffff80005078:	39400000 	ldrb	w0, [x0]
ffffffff8000507c:	2a0003e1 	mov	w1, w0
ffffffff80005080:	f94017e0 	ldr	x0, [sp, #40]
ffffffff80005084:	94000d26 	bl	ffffffff8000851c <flanterm_putchar>
ffffffff80005088:	f9401fe0 	ldr	x0, [sp, #56]
ffffffff8000508c:	91000400 	add	x0, x0, #0x1
ffffffff80005090:	f9001fe0 	str	x0, [sp, #56]
ffffffff80005094:	f9401fe1 	ldr	x1, [sp, #56]
ffffffff80005098:	f9400fe0 	ldr	x0, [sp, #24]
ffffffff8000509c:	eb00003f 	cmp	x1, x0
ffffffff800050a0:	54fffe63 	b.cc	ffffffff8000506c <flanterm_write+0x1c>  // b.lo, b.ul, b.last
ffffffff800050a4:	f94017e0 	ldr	x0, [sp, #40]
ffffffff800050a8:	39402000 	ldrb	w0, [x0, #8]
ffffffff800050ac:	12000000 	and	w0, w0, #0x1
ffffffff800050b0:	7100001f 	cmp	w0, #0x0
ffffffff800050b4:	540000a0 	b.eq	ffffffff800050c8 <flanterm_write+0x78>  // b.none
ffffffff800050b8:	f94017e0 	ldr	x0, [sp, #40]
ffffffff800050bc:	f940c801 	ldr	x1, [x0, #400]
ffffffff800050c0:	f94017e0 	ldr	x0, [sp, #40]
ffffffff800050c4:	d63f0020 	blr	x1
ffffffff800050c8:	d503201f 	nop
ffffffff800050cc:	a8c47bfd 	ldp	x29, x30, [sp], #64
ffffffff800050d0:	d65f03c0 	ret

ffffffff800050d4 <sgr>:
ffffffff800050d4:	a9bc7bfd 	stp	x29, x30, [sp, #-64]!
ffffffff800050d8:	910003fd 	mov	x29, sp
ffffffff800050dc:	f9000fe0 	str	x0, [sp, #24]
ffffffff800050e0:	f9001fff 	str	xzr, [sp, #56]
ffffffff800050e4:	f9400fe0 	ldr	x0, [sp, #24]
ffffffff800050e8:	f9402000 	ldr	x0, [x0, #64]
ffffffff800050ec:	f100001f 	cmp	x0, #0x0
ffffffff800050f0:	54006b21 	b.ne	ffffffff80005e54 <sgr+0xd80>  // b.any
ffffffff800050f4:	1400000a 	b	ffffffff8000511c <sgr+0x48>
ffffffff800050f8:	f9400fe1 	ldr	x1, [sp, #24]
ffffffff800050fc:	f9401fe0 	ldr	x0, [sp, #56]
ffffffff80005100:	91007000 	add	x0, x0, #0x1c
ffffffff80005104:	d37ef400 	lsl	x0, x0, #2
ffffffff80005108:	8b000020 	add	x0, x1, x0
ffffffff8000510c:	b9400800 	ldr	w0, [x0, #8]
ffffffff80005110:	7100001f 	cmp	w0, #0x0
ffffffff80005114:	54000401 	b.ne	ffffffff80005194 <sgr+0xc0>  // b.any
ffffffff80005118:	d503201f 	nop
ffffffff8000511c:	f9400fe0 	ldr	x0, [sp, #24]
ffffffff80005120:	39405000 	ldrb	w0, [x0, #20]
ffffffff80005124:	12000000 	and	w0, w0, #0x1
ffffffff80005128:	7100001f 	cmp	w0, #0x0
ffffffff8000512c:	540000e0 	b.eq	ffffffff80005148 <sgr+0x74>  // b.none
ffffffff80005130:	f9400fe0 	ldr	x0, [sp, #24]
ffffffff80005134:	3900501f 	strb	wzr, [x0, #20]
ffffffff80005138:	f9400fe0 	ldr	x0, [sp, #24]
ffffffff8000513c:	f940bc01 	ldr	x1, [x0, #376]
ffffffff80005140:	f9400fe0 	ldr	x0, [sp, #24]
ffffffff80005144:	d63f0020 	blr	x1
ffffffff80005148:	f9400fe0 	ldr	x0, [sp, #24]
ffffffff8000514c:	3900481f 	strb	wzr, [x0, #18]
ffffffff80005150:	f9400fe0 	ldr	x0, [sp, #24]
ffffffff80005154:	39004c1f 	strb	wzr, [x0, #19]
ffffffff80005158:	f9400fe0 	ldr	x0, [sp, #24]
ffffffff8000515c:	92800001 	mov	x1, #0xffffffffffffffff    	// #-1
ffffffff80005160:	f9002c01 	str	x1, [x0, #88]
ffffffff80005164:	f9400fe0 	ldr	x0, [sp, #24]
ffffffff80005168:	92800001 	mov	x1, #0xffffffffffffffff    	// #-1
ffffffff8000516c:	f9003001 	str	x1, [x0, #96]
ffffffff80005170:	f9400fe0 	ldr	x0, [sp, #24]
ffffffff80005174:	f940a401 	ldr	x1, [x0, #328]
ffffffff80005178:	f9400fe0 	ldr	x0, [sp, #24]
ffffffff8000517c:	d63f0020 	blr	x1
ffffffff80005180:	f9400fe0 	ldr	x0, [sp, #24]
ffffffff80005184:	f940a001 	ldr	x1, [x0, #320]
ffffffff80005188:	f9400fe0 	ldr	x0, [sp, #24]
ffffffff8000518c:	d63f0020 	blr	x1
ffffffff80005190:	1400032d 	b	ffffffff80005e44 <sgr+0xd70>
ffffffff80005194:	f9400fe1 	ldr	x1, [sp, #24]
ffffffff80005198:	f9401fe0 	ldr	x0, [sp, #56]
ffffffff8000519c:	91007000 	add	x0, x0, #0x1c
ffffffff800051a0:	d37ef400 	lsl	x0, x0, #2
ffffffff800051a4:	8b000020 	add	x0, x1, x0
ffffffff800051a8:	b9400800 	ldr	w0, [x0, #8]
ffffffff800051ac:	7100041f 	cmp	w0, #0x1
ffffffff800051b0:	54000601 	b.ne	ffffffff80005270 <sgr+0x19c>  // b.any
ffffffff800051b4:	f9400fe0 	ldr	x0, [sp, #24]
ffffffff800051b8:	52800021 	mov	w1, #0x1                   	// #1
ffffffff800051bc:	39004801 	strb	w1, [x0, #18]
ffffffff800051c0:	f9400fe0 	ldr	x0, [sp, #24]
ffffffff800051c4:	f9402c00 	ldr	x0, [x0, #88]
ffffffff800051c8:	b100041f 	cmn	x0, #0x1
ffffffff800051cc:	54000300 	b.eq	ffffffff8000522c <sgr+0x158>  // b.none
ffffffff800051d0:	f9400fe0 	ldr	x0, [sp, #24]
ffffffff800051d4:	39405000 	ldrb	w0, [x0, #20]
ffffffff800051d8:	52000000 	eor	w0, w0, #0x1
ffffffff800051dc:	12001c00 	and	w0, w0, #0xff
ffffffff800051e0:	12000000 	and	w0, w0, #0x1
ffffffff800051e4:	7100001f 	cmp	w0, #0x0
ffffffff800051e8:	54000120 	b.eq	ffffffff8000520c <sgr+0x138>  // b.none
ffffffff800051ec:	f9400fe0 	ldr	x0, [sp, #24]
ffffffff800051f0:	f9409002 	ldr	x2, [x0, #288]
ffffffff800051f4:	f9400fe0 	ldr	x0, [sp, #24]
ffffffff800051f8:	f9402c00 	ldr	x0, [x0, #88]
ffffffff800051fc:	aa0003e1 	mov	x1, x0
ffffffff80005200:	f9400fe0 	ldr	x0, [sp, #24]
ffffffff80005204:	d63f0040 	blr	x2
ffffffff80005208:	1400030f 	b	ffffffff80005e44 <sgr+0xd70>
ffffffff8000520c:	f9400fe0 	ldr	x0, [sp, #24]
ffffffff80005210:	f9409402 	ldr	x2, [x0, #296]
ffffffff80005214:	f9400fe0 	ldr	x0, [sp, #24]
ffffffff80005218:	f9402c00 	ldr	x0, [x0, #88]
ffffffff8000521c:	aa0003e1 	mov	x1, x0
ffffffff80005220:	f9400fe0 	ldr	x0, [sp, #24]
ffffffff80005224:	d63f0040 	blr	x2
ffffffff80005228:	14000307 	b	ffffffff80005e44 <sgr+0xd70>
ffffffff8000522c:	f9400fe0 	ldr	x0, [sp, #24]
ffffffff80005230:	39405000 	ldrb	w0, [x0, #20]
ffffffff80005234:	52000000 	eor	w0, w0, #0x1
ffffffff80005238:	12001c00 	and	w0, w0, #0xff
ffffffff8000523c:	12000000 	and	w0, w0, #0x1
ffffffff80005240:	7100001f 	cmp	w0, #0x0
ffffffff80005244:	540000c0 	b.eq	ffffffff8000525c <sgr+0x188>  // b.none
ffffffff80005248:	f9400fe0 	ldr	x0, [sp, #24]
ffffffff8000524c:	f940a801 	ldr	x1, [x0, #336]
ffffffff80005250:	f9400fe0 	ldr	x0, [sp, #24]
ffffffff80005254:	d63f0020 	blr	x1
ffffffff80005258:	140002fb 	b	ffffffff80005e44 <sgr+0xd70>
ffffffff8000525c:	f9400fe0 	ldr	x0, [sp, #24]
ffffffff80005260:	f940ac01 	ldr	x1, [x0, #344]
ffffffff80005264:	f9400fe0 	ldr	x0, [sp, #24]
ffffffff80005268:	d63f0020 	blr	x1
ffffffff8000526c:	140002f6 	b	ffffffff80005e44 <sgr+0xd70>
ffffffff80005270:	f9400fe1 	ldr	x1, [sp, #24]
ffffffff80005274:	f9401fe0 	ldr	x0, [sp, #56]
ffffffff80005278:	91007000 	add	x0, x0, #0x1c
ffffffff8000527c:	d37ef400 	lsl	x0, x0, #2
ffffffff80005280:	8b000020 	add	x0, x1, x0
ffffffff80005284:	b9400800 	ldr	w0, [x0, #8]
ffffffff80005288:	7100141f 	cmp	w0, #0x5
ffffffff8000528c:	54000601 	b.ne	ffffffff8000534c <sgr+0x278>  // b.any
ffffffff80005290:	f9400fe0 	ldr	x0, [sp, #24]
ffffffff80005294:	52800021 	mov	w1, #0x1                   	// #1
ffffffff80005298:	39004c01 	strb	w1, [x0, #19]
ffffffff8000529c:	f9400fe0 	ldr	x0, [sp, #24]
ffffffff800052a0:	f9403000 	ldr	x0, [x0, #96]
ffffffff800052a4:	b100041f 	cmn	x0, #0x1
ffffffff800052a8:	54000300 	b.eq	ffffffff80005308 <sgr+0x234>  // b.none
ffffffff800052ac:	f9400fe0 	ldr	x0, [sp, #24]
ffffffff800052b0:	39405000 	ldrb	w0, [x0, #20]
ffffffff800052b4:	52000000 	eor	w0, w0, #0x1
ffffffff800052b8:	12001c00 	and	w0, w0, #0xff
ffffffff800052bc:	12000000 	and	w0, w0, #0x1
ffffffff800052c0:	7100001f 	cmp	w0, #0x0
ffffffff800052c4:	54000120 	b.eq	ffffffff800052e8 <sgr+0x214>  // b.none
ffffffff800052c8:	f9400fe0 	ldr	x0, [sp, #24]
ffffffff800052cc:	f9409402 	ldr	x2, [x0, #296]
ffffffff800052d0:	f9400fe0 	ldr	x0, [sp, #24]
ffffffff800052d4:	f9403000 	ldr	x0, [x0, #96]
ffffffff800052d8:	aa0003e1 	mov	x1, x0
ffffffff800052dc:	f9400fe0 	ldr	x0, [sp, #24]
ffffffff800052e0:	d63f0040 	blr	x2
ffffffff800052e4:	140002d8 	b	ffffffff80005e44 <sgr+0xd70>
ffffffff800052e8:	f9400fe0 	ldr	x0, [sp, #24]
ffffffff800052ec:	f9409002 	ldr	x2, [x0, #288]
ffffffff800052f0:	f9400fe0 	ldr	x0, [sp, #24]
ffffffff800052f4:	f9403000 	ldr	x0, [x0, #96]
ffffffff800052f8:	aa0003e1 	mov	x1, x0
ffffffff800052fc:	f9400fe0 	ldr	x0, [sp, #24]
ffffffff80005300:	d63f0040 	blr	x2
ffffffff80005304:	140002d0 	b	ffffffff80005e44 <sgr+0xd70>
ffffffff80005308:	f9400fe0 	ldr	x0, [sp, #24]
ffffffff8000530c:	39405000 	ldrb	w0, [x0, #20]
ffffffff80005310:	52000000 	eor	w0, w0, #0x1
ffffffff80005314:	12001c00 	and	w0, w0, #0xff
ffffffff80005318:	12000000 	and	w0, w0, #0x1
ffffffff8000531c:	7100001f 	cmp	w0, #0x0
ffffffff80005320:	540000c0 	b.eq	ffffffff80005338 <sgr+0x264>  // b.none
ffffffff80005324:	f9400fe0 	ldr	x0, [sp, #24]
ffffffff80005328:	f940ac01 	ldr	x1, [x0, #344]
ffffffff8000532c:	f9400fe0 	ldr	x0, [sp, #24]
ffffffff80005330:	d63f0020 	blr	x1
ffffffff80005334:	140002c4 	b	ffffffff80005e44 <sgr+0xd70>
ffffffff80005338:	f9400fe0 	ldr	x0, [sp, #24]
ffffffff8000533c:	f940a801 	ldr	x1, [x0, #336]
ffffffff80005340:	f9400fe0 	ldr	x0, [sp, #24]
ffffffff80005344:	d63f0020 	blr	x1
ffffffff80005348:	140002bf 	b	ffffffff80005e44 <sgr+0xd70>
ffffffff8000534c:	f9400fe1 	ldr	x1, [sp, #24]
ffffffff80005350:	f9401fe0 	ldr	x0, [sp, #56]
ffffffff80005354:	91007000 	add	x0, x0, #0x1c
ffffffff80005358:	d37ef400 	lsl	x0, x0, #2
ffffffff8000535c:	8b000020 	add	x0, x1, x0
ffffffff80005360:	b9400800 	ldr	w0, [x0, #8]
ffffffff80005364:	7100581f 	cmp	w0, #0x16
ffffffff80005368:	540005e1 	b.ne	ffffffff80005424 <sgr+0x350>  // b.any
ffffffff8000536c:	f9400fe0 	ldr	x0, [sp, #24]
ffffffff80005370:	3900481f 	strb	wzr, [x0, #18]
ffffffff80005374:	f9400fe0 	ldr	x0, [sp, #24]
ffffffff80005378:	f9402c00 	ldr	x0, [x0, #88]
ffffffff8000537c:	b100041f 	cmn	x0, #0x1
ffffffff80005380:	54000300 	b.eq	ffffffff800053e0 <sgr+0x30c>  // b.none
ffffffff80005384:	f9400fe0 	ldr	x0, [sp, #24]
ffffffff80005388:	39405000 	ldrb	w0, [x0, #20]
ffffffff8000538c:	52000000 	eor	w0, w0, #0x1
ffffffff80005390:	12001c00 	and	w0, w0, #0xff
ffffffff80005394:	12000000 	and	w0, w0, #0x1
ffffffff80005398:	7100001f 	cmp	w0, #0x0
ffffffff8000539c:	54000120 	b.eq	ffffffff800053c0 <sgr+0x2ec>  // b.none
ffffffff800053a0:	f9400fe0 	ldr	x0, [sp, #24]
ffffffff800053a4:	f9408802 	ldr	x2, [x0, #272]
ffffffff800053a8:	f9400fe0 	ldr	x0, [sp, #24]
ffffffff800053ac:	f9402c00 	ldr	x0, [x0, #88]
ffffffff800053b0:	aa0003e1 	mov	x1, x0
ffffffff800053b4:	f9400fe0 	ldr	x0, [sp, #24]
ffffffff800053b8:	d63f0040 	blr	x2
ffffffff800053bc:	140002a2 	b	ffffffff80005e44 <sgr+0xd70>
ffffffff800053c0:	f9400fe0 	ldr	x0, [sp, #24]
ffffffff800053c4:	f9408c02 	ldr	x2, [x0, #280]
ffffffff800053c8:	f9400fe0 	ldr	x0, [sp, #24]
ffffffff800053cc:	f9402c00 	ldr	x0, [x0, #88]
ffffffff800053d0:	aa0003e1 	mov	x1, x0
ffffffff800053d4:	f9400fe0 	ldr	x0, [sp, #24]
ffffffff800053d8:	d63f0040 	blr	x2
ffffffff800053dc:	1400029a 	b	ffffffff80005e44 <sgr+0xd70>
ffffffff800053e0:	f9400fe0 	ldr	x0, [sp, #24]
ffffffff800053e4:	39405000 	ldrb	w0, [x0, #20]
ffffffff800053e8:	52000000 	eor	w0, w0, #0x1
ffffffff800053ec:	12001c00 	and	w0, w0, #0xff
ffffffff800053f0:	12000000 	and	w0, w0, #0x1
ffffffff800053f4:	7100001f 	cmp	w0, #0x0
ffffffff800053f8:	540000c0 	b.eq	ffffffff80005410 <sgr+0x33c>  // b.none
ffffffff800053fc:	f9400fe0 	ldr	x0, [sp, #24]
ffffffff80005400:	f940a001 	ldr	x1, [x0, #320]
ffffffff80005404:	f9400fe0 	ldr	x0, [sp, #24]
ffffffff80005408:	d63f0020 	blr	x1
ffffffff8000540c:	1400028e 	b	ffffffff80005e44 <sgr+0xd70>
ffffffff80005410:	f9400fe0 	ldr	x0, [sp, #24]
ffffffff80005414:	f940a401 	ldr	x1, [x0, #328]
ffffffff80005418:	f9400fe0 	ldr	x0, [sp, #24]
ffffffff8000541c:	d63f0020 	blr	x1
ffffffff80005420:	14000289 	b	ffffffff80005e44 <sgr+0xd70>
ffffffff80005424:	f9400fe1 	ldr	x1, [sp, #24]
ffffffff80005428:	f9401fe0 	ldr	x0, [sp, #56]
ffffffff8000542c:	91007000 	add	x0, x0, #0x1c
ffffffff80005430:	d37ef400 	lsl	x0, x0, #2
ffffffff80005434:	8b000020 	add	x0, x1, x0
ffffffff80005438:	b9400800 	ldr	w0, [x0, #8]
ffffffff8000543c:	7100641f 	cmp	w0, #0x19
ffffffff80005440:	540005e1 	b.ne	ffffffff800054fc <sgr+0x428>  // b.any
ffffffff80005444:	f9400fe0 	ldr	x0, [sp, #24]
ffffffff80005448:	39004c1f 	strb	wzr, [x0, #19]
ffffffff8000544c:	f9400fe0 	ldr	x0, [sp, #24]
ffffffff80005450:	f9403000 	ldr	x0, [x0, #96]
ffffffff80005454:	b100041f 	cmn	x0, #0x1
ffffffff80005458:	54000300 	b.eq	ffffffff800054b8 <sgr+0x3e4>  // b.none
ffffffff8000545c:	f9400fe0 	ldr	x0, [sp, #24]
ffffffff80005460:	39405000 	ldrb	w0, [x0, #20]
ffffffff80005464:	52000000 	eor	w0, w0, #0x1
ffffffff80005468:	12001c00 	and	w0, w0, #0xff
ffffffff8000546c:	12000000 	and	w0, w0, #0x1
ffffffff80005470:	7100001f 	cmp	w0, #0x0
ffffffff80005474:	54000120 	b.eq	ffffffff80005498 <sgr+0x3c4>  // b.none
ffffffff80005478:	f9400fe0 	ldr	x0, [sp, #24]
ffffffff8000547c:	f9408c02 	ldr	x2, [x0, #280]
ffffffff80005480:	f9400fe0 	ldr	x0, [sp, #24]
ffffffff80005484:	f9403000 	ldr	x0, [x0, #96]
ffffffff80005488:	aa0003e1 	mov	x1, x0
ffffffff8000548c:	f9400fe0 	ldr	x0, [sp, #24]
ffffffff80005490:	d63f0040 	blr	x2
ffffffff80005494:	1400026c 	b	ffffffff80005e44 <sgr+0xd70>
ffffffff80005498:	f9400fe0 	ldr	x0, [sp, #24]
ffffffff8000549c:	f9408802 	ldr	x2, [x0, #272]
ffffffff800054a0:	f9400fe0 	ldr	x0, [sp, #24]
ffffffff800054a4:	f9403000 	ldr	x0, [x0, #96]
ffffffff800054a8:	aa0003e1 	mov	x1, x0
ffffffff800054ac:	f9400fe0 	ldr	x0, [sp, #24]
ffffffff800054b0:	d63f0040 	blr	x2
ffffffff800054b4:	14000264 	b	ffffffff80005e44 <sgr+0xd70>
ffffffff800054b8:	f9400fe0 	ldr	x0, [sp, #24]
ffffffff800054bc:	39405000 	ldrb	w0, [x0, #20]
ffffffff800054c0:	52000000 	eor	w0, w0, #0x1
ffffffff800054c4:	12001c00 	and	w0, w0, #0xff
ffffffff800054c8:	12000000 	and	w0, w0, #0x1
ffffffff800054cc:	7100001f 	cmp	w0, #0x0
ffffffff800054d0:	540000c0 	b.eq	ffffffff800054e8 <sgr+0x414>  // b.none
ffffffff800054d4:	f9400fe0 	ldr	x0, [sp, #24]
ffffffff800054d8:	f940a401 	ldr	x1, [x0, #328]
ffffffff800054dc:	f9400fe0 	ldr	x0, [sp, #24]
ffffffff800054e0:	d63f0020 	blr	x1
ffffffff800054e4:	14000258 	b	ffffffff80005e44 <sgr+0xd70>
ffffffff800054e8:	f9400fe0 	ldr	x0, [sp, #24]
ffffffff800054ec:	f940a001 	ldr	x1, [x0, #320]
ffffffff800054f0:	f9400fe0 	ldr	x0, [sp, #24]
ffffffff800054f4:	d63f0020 	blr	x1
ffffffff800054f8:	14000253 	b	ffffffff80005e44 <sgr+0xd70>
ffffffff800054fc:	f9400fe1 	ldr	x1, [sp, #24]
ffffffff80005500:	f9401fe0 	ldr	x0, [sp, #56]
ffffffff80005504:	91007000 	add	x0, x0, #0x1c
ffffffff80005508:	d37ef400 	lsl	x0, x0, #2
ffffffff8000550c:	8b000020 	add	x0, x1, x0
ffffffff80005510:	b9400800 	ldr	w0, [x0, #8]
ffffffff80005514:	7100741f 	cmp	w0, #0x1d
ffffffff80005518:	54000a49 	b.ls	ffffffff80005660 <sgr+0x58c>  // b.plast
ffffffff8000551c:	f9400fe1 	ldr	x1, [sp, #24]
ffffffff80005520:	f9401fe0 	ldr	x0, [sp, #56]
ffffffff80005524:	91007000 	add	x0, x0, #0x1c
ffffffff80005528:	d37ef400 	lsl	x0, x0, #2
ffffffff8000552c:	8b000020 	add	x0, x1, x0
ffffffff80005530:	b9400800 	ldr	w0, [x0, #8]
ffffffff80005534:	7100941f 	cmp	w0, #0x25
ffffffff80005538:	54000948 	b.hi	ffffffff80005660 <sgr+0x58c>  // b.pmore
ffffffff8000553c:	d28003c0 	mov	x0, #0x1e                  	// #30
ffffffff80005540:	f9001be0 	str	x0, [sp, #48]
ffffffff80005544:	f9400fe1 	ldr	x1, [sp, #24]
ffffffff80005548:	f9401fe0 	ldr	x0, [sp, #56]
ffffffff8000554c:	91007000 	add	x0, x0, #0x1c
ffffffff80005550:	d37ef400 	lsl	x0, x0, #2
ffffffff80005554:	8b000020 	add	x0, x1, x0
ffffffff80005558:	b9400800 	ldr	w0, [x0, #8]
ffffffff8000555c:	2a0003e1 	mov	w1, w0
ffffffff80005560:	f9401be0 	ldr	x0, [sp, #48]
ffffffff80005564:	cb000021 	sub	x1, x1, x0
ffffffff80005568:	f9400fe0 	ldr	x0, [sp, #24]
ffffffff8000556c:	f9002c01 	str	x1, [x0, #88]
ffffffff80005570:	f9400fe0 	ldr	x0, [sp, #24]
ffffffff80005574:	39405000 	ldrb	w0, [x0, #20]
ffffffff80005578:	12000000 	and	w0, w0, #0x1
ffffffff8000557c:	7100001f 	cmp	w0, #0x0
ffffffff80005580:	54000b61 	b.ne	ffffffff800056ec <sgr+0x618>  // b.any
ffffffff80005584:	d503201f 	nop
ffffffff80005588:	14000002 	b	ffffffff80005590 <sgr+0x4bc>
ffffffff8000558c:	d503201f 	nop
ffffffff80005590:	f9400fe0 	ldr	x0, [sp, #24]
ffffffff80005594:	39404800 	ldrb	w0, [x0, #18]
ffffffff80005598:	12000000 	and	w0, w0, #0x1
ffffffff8000559c:	7100001f 	cmp	w0, #0x0
ffffffff800055a0:	54000100 	b.eq	ffffffff800055c0 <sgr+0x4ec>  // b.none
ffffffff800055a4:	f9400fe0 	ldr	x0, [sp, #24]
ffffffff800055a8:	39405000 	ldrb	w0, [x0, #20]
ffffffff800055ac:	52000000 	eor	w0, w0, #0x1
ffffffff800055b0:	12001c00 	and	w0, w0, #0xff
ffffffff800055b4:	12000000 	and	w0, w0, #0x1
ffffffff800055b8:	7100001f 	cmp	w0, #0x0
ffffffff800055bc:	54000161 	b.ne	ffffffff800055e8 <sgr+0x514>  // b.any
ffffffff800055c0:	f9400fe0 	ldr	x0, [sp, #24]
ffffffff800055c4:	39404c00 	ldrb	w0, [x0, #19]
ffffffff800055c8:	12000000 	and	w0, w0, #0x1
ffffffff800055cc:	7100001f 	cmp	w0, #0x0
ffffffff800055d0:	540002a0 	b.eq	ffffffff80005624 <sgr+0x550>  // b.none
ffffffff800055d4:	f9400fe0 	ldr	x0, [sp, #24]
ffffffff800055d8:	39405000 	ldrb	w0, [x0, #20]
ffffffff800055dc:	12000000 	and	w0, w0, #0x1
ffffffff800055e0:	7100001f 	cmp	w0, #0x0
ffffffff800055e4:	54000200 	b.eq	ffffffff80005624 <sgr+0x550>  // b.none
ffffffff800055e8:	f9400fe0 	ldr	x0, [sp, #24]
ffffffff800055ec:	f9409002 	ldr	x2, [x0, #288]
ffffffff800055f0:	f9400fe1 	ldr	x1, [sp, #24]
ffffffff800055f4:	f9401fe0 	ldr	x0, [sp, #56]
ffffffff800055f8:	91007000 	add	x0, x0, #0x1c
ffffffff800055fc:	d37ef400 	lsl	x0, x0, #2
ffffffff80005600:	8b000020 	add	x0, x1, x0
ffffffff80005604:	b9400800 	ldr	w0, [x0, #8]
ffffffff80005608:	2a0003e1 	mov	w1, w0
ffffffff8000560c:	f9401be0 	ldr	x0, [sp, #48]
ffffffff80005610:	cb000020 	sub	x0, x1, x0
ffffffff80005614:	aa0003e1 	mov	x1, x0
ffffffff80005618:	f9400fe0 	ldr	x0, [sp, #24]
ffffffff8000561c:	d63f0040 	blr	x2
ffffffff80005620:	14000209 	b	ffffffff80005e44 <sgr+0xd70>
ffffffff80005624:	f9400fe0 	ldr	x0, [sp, #24]
ffffffff80005628:	f9408802 	ldr	x2, [x0, #272]
ffffffff8000562c:	f9400fe1 	ldr	x1, [sp, #24]
ffffffff80005630:	f9401fe0 	ldr	x0, [sp, #56]
ffffffff80005634:	91007000 	add	x0, x0, #0x1c
ffffffff80005638:	d37ef400 	lsl	x0, x0, #2
ffffffff8000563c:	8b000020 	add	x0, x1, x0
ffffffff80005640:	b9400800 	ldr	w0, [x0, #8]
ffffffff80005644:	2a0003e1 	mov	w1, w0
ffffffff80005648:	f9401be0 	ldr	x0, [sp, #48]
ffffffff8000564c:	cb000020 	sub	x0, x1, x0
ffffffff80005650:	aa0003e1 	mov	x1, x0
ffffffff80005654:	f9400fe0 	ldr	x0, [sp, #24]
ffffffff80005658:	d63f0040 	blr	x2
ffffffff8000565c:	140001fa 	b	ffffffff80005e44 <sgr+0xd70>
ffffffff80005660:	f9400fe1 	ldr	x1, [sp, #24]
ffffffff80005664:	f9401fe0 	ldr	x0, [sp, #56]
ffffffff80005668:	91007000 	add	x0, x0, #0x1c
ffffffff8000566c:	d37ef400 	lsl	x0, x0, #2
ffffffff80005670:	8b000020 	add	x0, x1, x0
ffffffff80005674:	b9400800 	ldr	w0, [x0, #8]
ffffffff80005678:	71009c1f 	cmp	w0, #0x27
ffffffff8000567c:	54000a29 	b.ls	ffffffff800057c0 <sgr+0x6ec>  // b.plast
ffffffff80005680:	f9400fe1 	ldr	x1, [sp, #24]
ffffffff80005684:	f9401fe0 	ldr	x0, [sp, #56]
ffffffff80005688:	91007000 	add	x0, x0, #0x1c
ffffffff8000568c:	d37ef400 	lsl	x0, x0, #2
ffffffff80005690:	8b000020 	add	x0, x1, x0
ffffffff80005694:	b9400800 	ldr	w0, [x0, #8]
ffffffff80005698:	7100bc1f 	cmp	w0, #0x2f
ffffffff8000569c:	54000928 	b.hi	ffffffff800057c0 <sgr+0x6ec>  // b.pmore
ffffffff800056a0:	d2800500 	mov	x0, #0x28                  	// #40
ffffffff800056a4:	f9001be0 	str	x0, [sp, #48]
ffffffff800056a8:	f9400fe1 	ldr	x1, [sp, #24]
ffffffff800056ac:	f9401fe0 	ldr	x0, [sp, #56]
ffffffff800056b0:	91007000 	add	x0, x0, #0x1c
ffffffff800056b4:	d37ef400 	lsl	x0, x0, #2
ffffffff800056b8:	8b000020 	add	x0, x1, x0
ffffffff800056bc:	b9400800 	ldr	w0, [x0, #8]
ffffffff800056c0:	2a0003e1 	mov	w1, w0
ffffffff800056c4:	f9401be0 	ldr	x0, [sp, #48]
ffffffff800056c8:	cb000021 	sub	x1, x1, x0
ffffffff800056cc:	f9400fe0 	ldr	x0, [sp, #24]
ffffffff800056d0:	f9003001 	str	x1, [x0, #96]
ffffffff800056d4:	f9400fe0 	ldr	x0, [sp, #24]
ffffffff800056d8:	39405000 	ldrb	w0, [x0, #20]
ffffffff800056dc:	12000000 	and	w0, w0, #0x1
ffffffff800056e0:	7100001f 	cmp	w0, #0x0
ffffffff800056e4:	54fff541 	b.ne	ffffffff8000558c <sgr+0x4b8>  // b.any
ffffffff800056e8:	14000002 	b	ffffffff800056f0 <sgr+0x61c>
ffffffff800056ec:	d503201f 	nop
ffffffff800056f0:	f9400fe0 	ldr	x0, [sp, #24]
ffffffff800056f4:	39404800 	ldrb	w0, [x0, #18]
ffffffff800056f8:	12000000 	and	w0, w0, #0x1
ffffffff800056fc:	7100001f 	cmp	w0, #0x0
ffffffff80005700:	540000c0 	b.eq	ffffffff80005718 <sgr+0x644>  // b.none
ffffffff80005704:	f9400fe0 	ldr	x0, [sp, #24]
ffffffff80005708:	39405000 	ldrb	w0, [x0, #20]
ffffffff8000570c:	12000000 	and	w0, w0, #0x1
ffffffff80005710:	7100001f 	cmp	w0, #0x0
ffffffff80005714:	540001a1 	b.ne	ffffffff80005748 <sgr+0x674>  // b.any
ffffffff80005718:	f9400fe0 	ldr	x0, [sp, #24]
ffffffff8000571c:	39404c00 	ldrb	w0, [x0, #19]
ffffffff80005720:	12000000 	and	w0, w0, #0x1
ffffffff80005724:	7100001f 	cmp	w0, #0x0
ffffffff80005728:	540002e0 	b.eq	ffffffff80005784 <sgr+0x6b0>  // b.none
ffffffff8000572c:	f9400fe0 	ldr	x0, [sp, #24]
ffffffff80005730:	39405000 	ldrb	w0, [x0, #20]
ffffffff80005734:	52000000 	eor	w0, w0, #0x1
ffffffff80005738:	12001c00 	and	w0, w0, #0xff
ffffffff8000573c:	12000000 	and	w0, w0, #0x1
ffffffff80005740:	7100001f 	cmp	w0, #0x0
ffffffff80005744:	54000200 	b.eq	ffffffff80005784 <sgr+0x6b0>  // b.none
ffffffff80005748:	f9400fe0 	ldr	x0, [sp, #24]
ffffffff8000574c:	f9409402 	ldr	x2, [x0, #296]
ffffffff80005750:	f9400fe1 	ldr	x1, [sp, #24]
ffffffff80005754:	f9401fe0 	ldr	x0, [sp, #56]
ffffffff80005758:	91007000 	add	x0, x0, #0x1c
ffffffff8000575c:	d37ef400 	lsl	x0, x0, #2
ffffffff80005760:	8b000020 	add	x0, x1, x0
ffffffff80005764:	b9400800 	ldr	w0, [x0, #8]
ffffffff80005768:	2a0003e1 	mov	w1, w0
ffffffff8000576c:	f9401be0 	ldr	x0, [sp, #48]
ffffffff80005770:	cb000020 	sub	x0, x1, x0
ffffffff80005774:	aa0003e1 	mov	x1, x0
ffffffff80005778:	f9400fe0 	ldr	x0, [sp, #24]
ffffffff8000577c:	d63f0040 	blr	x2
ffffffff80005780:	140001b1 	b	ffffffff80005e44 <sgr+0xd70>
ffffffff80005784:	f9400fe0 	ldr	x0, [sp, #24]
ffffffff80005788:	f9408c02 	ldr	x2, [x0, #280]
ffffffff8000578c:	f9400fe1 	ldr	x1, [sp, #24]
ffffffff80005790:	f9401fe0 	ldr	x0, [sp, #56]
ffffffff80005794:	91007000 	add	x0, x0, #0x1c
ffffffff80005798:	d37ef400 	lsl	x0, x0, #2
ffffffff8000579c:	8b000020 	add	x0, x1, x0
ffffffff800057a0:	b9400800 	ldr	w0, [x0, #8]
ffffffff800057a4:	2a0003e1 	mov	w1, w0
ffffffff800057a8:	f9401be0 	ldr	x0, [sp, #48]
ffffffff800057ac:	cb000020 	sub	x0, x1, x0
ffffffff800057b0:	aa0003e1 	mov	x1, x0
ffffffff800057b4:	f9400fe0 	ldr	x0, [sp, #24]
ffffffff800057b8:	d63f0040 	blr	x2
ffffffff800057bc:	140001a2 	b	ffffffff80005e44 <sgr+0xd70>
ffffffff800057c0:	f9400fe1 	ldr	x1, [sp, #24]
ffffffff800057c4:	f9401fe0 	ldr	x0, [sp, #56]
ffffffff800057c8:	91007000 	add	x0, x0, #0x1c
ffffffff800057cc:	d37ef400 	lsl	x0, x0, #2
ffffffff800057d0:	8b000020 	add	x0, x1, x0
ffffffff800057d4:	b9400800 	ldr	w0, [x0, #8]
ffffffff800057d8:	7101641f 	cmp	w0, #0x59
ffffffff800057dc:	540005a9 	b.ls	ffffffff80005890 <sgr+0x7bc>  // b.plast
ffffffff800057e0:	f9400fe1 	ldr	x1, [sp, #24]
ffffffff800057e4:	f9401fe0 	ldr	x0, [sp, #56]
ffffffff800057e8:	91007000 	add	x0, x0, #0x1c
ffffffff800057ec:	d37ef400 	lsl	x0, x0, #2
ffffffff800057f0:	8b000020 	add	x0, x1, x0
ffffffff800057f4:	b9400800 	ldr	w0, [x0, #8]
ffffffff800057f8:	7101841f 	cmp	w0, #0x61
ffffffff800057fc:	540004a8 	b.hi	ffffffff80005890 <sgr+0x7bc>  // b.pmore
ffffffff80005800:	d2800b40 	mov	x0, #0x5a                  	// #90
ffffffff80005804:	f9001be0 	str	x0, [sp, #48]
ffffffff80005808:	f9400fe1 	ldr	x1, [sp, #24]
ffffffff8000580c:	f9401fe0 	ldr	x0, [sp, #56]
ffffffff80005810:	91007000 	add	x0, x0, #0x1c
ffffffff80005814:	d37ef400 	lsl	x0, x0, #2
ffffffff80005818:	8b000020 	add	x0, x1, x0
ffffffff8000581c:	b9400800 	ldr	w0, [x0, #8]
ffffffff80005820:	2a0003e1 	mov	w1, w0
ffffffff80005824:	f9401be0 	ldr	x0, [sp, #48]
ffffffff80005828:	cb000021 	sub	x1, x1, x0
ffffffff8000582c:	f9400fe0 	ldr	x0, [sp, #24]
ffffffff80005830:	f9002c01 	str	x1, [x0, #88]
ffffffff80005834:	f9400fe0 	ldr	x0, [sp, #24]
ffffffff80005838:	39405000 	ldrb	w0, [x0, #20]
ffffffff8000583c:	12000000 	and	w0, w0, #0x1
ffffffff80005840:	7100001f 	cmp	w0, #0x0
ffffffff80005844:	540006c1 	b.ne	ffffffff8000591c <sgr+0x848>  // b.any
ffffffff80005848:	d503201f 	nop
ffffffff8000584c:	14000002 	b	ffffffff80005854 <sgr+0x780>
ffffffff80005850:	d503201f 	nop
ffffffff80005854:	f9400fe0 	ldr	x0, [sp, #24]
ffffffff80005858:	f9409002 	ldr	x2, [x0, #288]
ffffffff8000585c:	f9400fe1 	ldr	x1, [sp, #24]
ffffffff80005860:	f9401fe0 	ldr	x0, [sp, #56]
ffffffff80005864:	91007000 	add	x0, x0, #0x1c
ffffffff80005868:	d37ef400 	lsl	x0, x0, #2
ffffffff8000586c:	8b000020 	add	x0, x1, x0
ffffffff80005870:	b9400800 	ldr	w0, [x0, #8]
ffffffff80005874:	2a0003e1 	mov	w1, w0
ffffffff80005878:	f9401be0 	ldr	x0, [sp, #48]
ffffffff8000587c:	cb000020 	sub	x0, x1, x0
ffffffff80005880:	aa0003e1 	mov	x1, x0
ffffffff80005884:	f9400fe0 	ldr	x0, [sp, #24]
ffffffff80005888:	d63f0040 	blr	x2
ffffffff8000588c:	1400016e 	b	ffffffff80005e44 <sgr+0xd70>
ffffffff80005890:	f9400fe1 	ldr	x1, [sp, #24]
ffffffff80005894:	f9401fe0 	ldr	x0, [sp, #56]
ffffffff80005898:	91007000 	add	x0, x0, #0x1c
ffffffff8000589c:	d37ef400 	lsl	x0, x0, #2
ffffffff800058a0:	8b000020 	add	x0, x1, x0
ffffffff800058a4:	b9400800 	ldr	w0, [x0, #8]
ffffffff800058a8:	71018c1f 	cmp	w0, #0x63
ffffffff800058ac:	54000589 	b.ls	ffffffff8000595c <sgr+0x888>  // b.plast
ffffffff800058b0:	f9400fe1 	ldr	x1, [sp, #24]
ffffffff800058b4:	f9401fe0 	ldr	x0, [sp, #56]
ffffffff800058b8:	91007000 	add	x0, x0, #0x1c
ffffffff800058bc:	d37ef400 	lsl	x0, x0, #2
ffffffff800058c0:	8b000020 	add	x0, x1, x0
ffffffff800058c4:	b9400800 	ldr	w0, [x0, #8]
ffffffff800058c8:	7101ac1f 	cmp	w0, #0x6b
ffffffff800058cc:	54000488 	b.hi	ffffffff8000595c <sgr+0x888>  // b.pmore
ffffffff800058d0:	d2800c80 	mov	x0, #0x64                  	// #100
ffffffff800058d4:	f9001be0 	str	x0, [sp, #48]
ffffffff800058d8:	f9400fe1 	ldr	x1, [sp, #24]
ffffffff800058dc:	f9401fe0 	ldr	x0, [sp, #56]
ffffffff800058e0:	91007000 	add	x0, x0, #0x1c
ffffffff800058e4:	d37ef400 	lsl	x0, x0, #2
ffffffff800058e8:	8b000020 	add	x0, x1, x0
ffffffff800058ec:	b9400800 	ldr	w0, [x0, #8]
ffffffff800058f0:	2a0003e1 	mov	w1, w0
ffffffff800058f4:	f9401be0 	ldr	x0, [sp, #48]
ffffffff800058f8:	cb000021 	sub	x1, x1, x0
ffffffff800058fc:	f9400fe0 	ldr	x0, [sp, #24]
ffffffff80005900:	f9003001 	str	x1, [x0, #96]
ffffffff80005904:	f9400fe0 	ldr	x0, [sp, #24]
ffffffff80005908:	39405000 	ldrb	w0, [x0, #20]
ffffffff8000590c:	12000000 	and	w0, w0, #0x1
ffffffff80005910:	7100001f 	cmp	w0, #0x0
ffffffff80005914:	54fff9e1 	b.ne	ffffffff80005850 <sgr+0x77c>  // b.any
ffffffff80005918:	14000002 	b	ffffffff80005920 <sgr+0x84c>
ffffffff8000591c:	d503201f 	nop
ffffffff80005920:	f9400fe0 	ldr	x0, [sp, #24]
ffffffff80005924:	f9409402 	ldr	x2, [x0, #296]
ffffffff80005928:	f9400fe1 	ldr	x1, [sp, #24]
ffffffff8000592c:	f9401fe0 	ldr	x0, [sp, #56]
ffffffff80005930:	91007000 	add	x0, x0, #0x1c
ffffffff80005934:	d37ef400 	lsl	x0, x0, #2
ffffffff80005938:	8b000020 	add	x0, x1, x0
ffffffff8000593c:	b9400800 	ldr	w0, [x0, #8]
ffffffff80005940:	2a0003e1 	mov	w1, w0
ffffffff80005944:	f9401be0 	ldr	x0, [sp, #48]
ffffffff80005948:	cb000020 	sub	x0, x1, x0
ffffffff8000594c:	aa0003e1 	mov	x1, x0
ffffffff80005950:	f9400fe0 	ldr	x0, [sp, #24]
ffffffff80005954:	d63f0040 	blr	x2
ffffffff80005958:	1400013b 	b	ffffffff80005e44 <sgr+0xd70>
ffffffff8000595c:	f9400fe1 	ldr	x1, [sp, #24]
ffffffff80005960:	f9401fe0 	ldr	x0, [sp, #56]
ffffffff80005964:	91007000 	add	x0, x0, #0x1c
ffffffff80005968:	d37ef400 	lsl	x0, x0, #2
ffffffff8000596c:	8b000020 	add	x0, x1, x0
ffffffff80005970:	b9400800 	ldr	w0, [x0, #8]
ffffffff80005974:	71009c1f 	cmp	w0, #0x27
ffffffff80005978:	540004e1 	b.ne	ffffffff80005a14 <sgr+0x940>  // b.any
ffffffff8000597c:	f9400fe0 	ldr	x0, [sp, #24]
ffffffff80005980:	92800001 	mov	x1, #0xffffffffffffffff    	// #-1
ffffffff80005984:	f9002c01 	str	x1, [x0, #88]
ffffffff80005988:	f9400fe0 	ldr	x0, [sp, #24]
ffffffff8000598c:	39405000 	ldrb	w0, [x0, #20]
ffffffff80005990:	12000000 	and	w0, w0, #0x1
ffffffff80005994:	7100001f 	cmp	w0, #0x0
ffffffff80005998:	540000a0 	b.eq	ffffffff800059ac <sgr+0x8d8>  // b.none
ffffffff8000599c:	f9400fe0 	ldr	x0, [sp, #24]
ffffffff800059a0:	f940bc01 	ldr	x1, [x0, #376]
ffffffff800059a4:	f9400fe0 	ldr	x0, [sp, #24]
ffffffff800059a8:	d63f0020 	blr	x1
ffffffff800059ac:	f9400fe0 	ldr	x0, [sp, #24]
ffffffff800059b0:	39404800 	ldrb	w0, [x0, #18]
ffffffff800059b4:	52000000 	eor	w0, w0, #0x1
ffffffff800059b8:	12001c00 	and	w0, w0, #0xff
ffffffff800059bc:	12000000 	and	w0, w0, #0x1
ffffffff800059c0:	7100001f 	cmp	w0, #0x0
ffffffff800059c4:	540000c0 	b.eq	ffffffff800059dc <sgr+0x908>  // b.none
ffffffff800059c8:	f9400fe0 	ldr	x0, [sp, #24]
ffffffff800059cc:	f940a001 	ldr	x1, [x0, #320]
ffffffff800059d0:	f9400fe0 	ldr	x0, [sp, #24]
ffffffff800059d4:	d63f0020 	blr	x1
ffffffff800059d8:	14000005 	b	ffffffff800059ec <sgr+0x918>
ffffffff800059dc:	f9400fe0 	ldr	x0, [sp, #24]
ffffffff800059e0:	f940a801 	ldr	x1, [x0, #336]
ffffffff800059e4:	f9400fe0 	ldr	x0, [sp, #24]
ffffffff800059e8:	d63f0020 	blr	x1
ffffffff800059ec:	f9400fe0 	ldr	x0, [sp, #24]
ffffffff800059f0:	39405000 	ldrb	w0, [x0, #20]
ffffffff800059f4:	12000000 	and	w0, w0, #0x1
ffffffff800059f8:	7100001f 	cmp	w0, #0x0
ffffffff800059fc:	54002160 	b.eq	ffffffff80005e28 <sgr+0xd54>  // b.none
ffffffff80005a00:	f9400fe0 	ldr	x0, [sp, #24]
ffffffff80005a04:	f940bc01 	ldr	x1, [x0, #376]
ffffffff80005a08:	f9400fe0 	ldr	x0, [sp, #24]
ffffffff80005a0c:	d63f0020 	blr	x1
ffffffff80005a10:	14000106 	b	ffffffff80005e28 <sgr+0xd54>
ffffffff80005a14:	f9400fe1 	ldr	x1, [sp, #24]
ffffffff80005a18:	f9401fe0 	ldr	x0, [sp, #56]
ffffffff80005a1c:	91007000 	add	x0, x0, #0x1c
ffffffff80005a20:	d37ef400 	lsl	x0, x0, #2
ffffffff80005a24:	8b000020 	add	x0, x1, x0
ffffffff80005a28:	b9400800 	ldr	w0, [x0, #8]
ffffffff80005a2c:	7100c41f 	cmp	w0, #0x31
ffffffff80005a30:	540004e1 	b.ne	ffffffff80005acc <sgr+0x9f8>  // b.any
ffffffff80005a34:	f9400fe0 	ldr	x0, [sp, #24]
ffffffff80005a38:	92800001 	mov	x1, #0xffffffffffffffff    	// #-1
ffffffff80005a3c:	f9003001 	str	x1, [x0, #96]
ffffffff80005a40:	f9400fe0 	ldr	x0, [sp, #24]
ffffffff80005a44:	39405000 	ldrb	w0, [x0, #20]
ffffffff80005a48:	12000000 	and	w0, w0, #0x1
ffffffff80005a4c:	7100001f 	cmp	w0, #0x0
ffffffff80005a50:	540000a0 	b.eq	ffffffff80005a64 <sgr+0x990>  // b.none
ffffffff80005a54:	f9400fe0 	ldr	x0, [sp, #24]
ffffffff80005a58:	f940bc01 	ldr	x1, [x0, #376]
ffffffff80005a5c:	f9400fe0 	ldr	x0, [sp, #24]
ffffffff80005a60:	d63f0020 	blr	x1
ffffffff80005a64:	f9400fe0 	ldr	x0, [sp, #24]
ffffffff80005a68:	39404c00 	ldrb	w0, [x0, #19]
ffffffff80005a6c:	52000000 	eor	w0, w0, #0x1
ffffffff80005a70:	12001c00 	and	w0, w0, #0xff
ffffffff80005a74:	12000000 	and	w0, w0, #0x1
ffffffff80005a78:	7100001f 	cmp	w0, #0x0
ffffffff80005a7c:	540000c0 	b.eq	ffffffff80005a94 <sgr+0x9c0>  // b.none
ffffffff80005a80:	f9400fe0 	ldr	x0, [sp, #24]
ffffffff80005a84:	f940a401 	ldr	x1, [x0, #328]
ffffffff80005a88:	f9400fe0 	ldr	x0, [sp, #24]
ffffffff80005a8c:	d63f0020 	blr	x1
ffffffff80005a90:	14000005 	b	ffffffff80005aa4 <sgr+0x9d0>
ffffffff80005a94:	f9400fe0 	ldr	x0, [sp, #24]
ffffffff80005a98:	f940ac01 	ldr	x1, [x0, #344]
ffffffff80005a9c:	f9400fe0 	ldr	x0, [sp, #24]
ffffffff80005aa0:	d63f0020 	blr	x1
ffffffff80005aa4:	f9400fe0 	ldr	x0, [sp, #24]
ffffffff80005aa8:	39405000 	ldrb	w0, [x0, #20]
ffffffff80005aac:	12000000 	and	w0, w0, #0x1
ffffffff80005ab0:	7100001f 	cmp	w0, #0x0
ffffffff80005ab4:	54001be0 	b.eq	ffffffff80005e30 <sgr+0xd5c>  // b.none
ffffffff80005ab8:	f9400fe0 	ldr	x0, [sp, #24]
ffffffff80005abc:	f940bc01 	ldr	x1, [x0, #376]
ffffffff80005ac0:	f9400fe0 	ldr	x0, [sp, #24]
ffffffff80005ac4:	d63f0020 	blr	x1
ffffffff80005ac8:	140000da 	b	ffffffff80005e30 <sgr+0xd5c>
ffffffff80005acc:	f9400fe1 	ldr	x1, [sp, #24]
ffffffff80005ad0:	f9401fe0 	ldr	x0, [sp, #56]
ffffffff80005ad4:	91007000 	add	x0, x0, #0x1c
ffffffff80005ad8:	d37ef400 	lsl	x0, x0, #2
ffffffff80005adc:	8b000020 	add	x0, x1, x0
ffffffff80005ae0:	b9400800 	ldr	w0, [x0, #8]
ffffffff80005ae4:	71001c1f 	cmp	w0, #0x7
ffffffff80005ae8:	54000201 	b.ne	ffffffff80005b28 <sgr+0xa54>  // b.any
ffffffff80005aec:	f9400fe0 	ldr	x0, [sp, #24]
ffffffff80005af0:	39405000 	ldrb	w0, [x0, #20]
ffffffff80005af4:	52000000 	eor	w0, w0, #0x1
ffffffff80005af8:	12001c00 	and	w0, w0, #0xff
ffffffff80005afc:	12000000 	and	w0, w0, #0x1
ffffffff80005b00:	7100001f 	cmp	w0, #0x0
ffffffff80005b04:	540019a0 	b.eq	ffffffff80005e38 <sgr+0xd64>  // b.none
ffffffff80005b08:	f9400fe0 	ldr	x0, [sp, #24]
ffffffff80005b0c:	52800021 	mov	w1, #0x1                   	// #1
ffffffff80005b10:	39005001 	strb	w1, [x0, #20]
ffffffff80005b14:	f9400fe0 	ldr	x0, [sp, #24]
ffffffff80005b18:	f940bc01 	ldr	x1, [x0, #376]
ffffffff80005b1c:	f9400fe0 	ldr	x0, [sp, #24]
ffffffff80005b20:	d63f0020 	blr	x1
ffffffff80005b24:	140000c5 	b	ffffffff80005e38 <sgr+0xd64>
ffffffff80005b28:	f9400fe1 	ldr	x1, [sp, #24]
ffffffff80005b2c:	f9401fe0 	ldr	x0, [sp, #56]
ffffffff80005b30:	91007000 	add	x0, x0, #0x1c
ffffffff80005b34:	d37ef400 	lsl	x0, x0, #2
ffffffff80005b38:	8b000020 	add	x0, x1, x0
ffffffff80005b3c:	b9400800 	ldr	w0, [x0, #8]
ffffffff80005b40:	71006c1f 	cmp	w0, #0x1b
ffffffff80005b44:	540001a1 	b.ne	ffffffff80005b78 <sgr+0xaa4>  // b.any
ffffffff80005b48:	f9400fe0 	ldr	x0, [sp, #24]
ffffffff80005b4c:	39405000 	ldrb	w0, [x0, #20]
ffffffff80005b50:	12000000 	and	w0, w0, #0x1
ffffffff80005b54:	7100001f 	cmp	w0, #0x0
ffffffff80005b58:	54001740 	b.eq	ffffffff80005e40 <sgr+0xd6c>  // b.none
ffffffff80005b5c:	f9400fe0 	ldr	x0, [sp, #24]
ffffffff80005b60:	3900501f 	strb	wzr, [x0, #20]
ffffffff80005b64:	f9400fe0 	ldr	x0, [sp, #24]
ffffffff80005b68:	f940bc01 	ldr	x1, [x0, #376]
ffffffff80005b6c:	f9400fe0 	ldr	x0, [sp, #24]
ffffffff80005b70:	d63f0020 	blr	x1
ffffffff80005b74:	140000b3 	b	ffffffff80005e40 <sgr+0xd6c>
ffffffff80005b78:	f9400fe1 	ldr	x1, [sp, #24]
ffffffff80005b7c:	f9401fe0 	ldr	x0, [sp, #56]
ffffffff80005b80:	91007000 	add	x0, x0, #0x1c
ffffffff80005b84:	d37ef400 	lsl	x0, x0, #2
ffffffff80005b88:	8b000020 	add	x0, x1, x0
ffffffff80005b8c:	b9400800 	ldr	w0, [x0, #8]
ffffffff80005b90:	7100981f 	cmp	w0, #0x26
ffffffff80005b94:	54000120 	b.eq	ffffffff80005bb8 <sgr+0xae4>  // b.none
ffffffff80005b98:	f9400fe1 	ldr	x1, [sp, #24]
ffffffff80005b9c:	f9401fe0 	ldr	x0, [sp, #56]
ffffffff80005ba0:	91007000 	add	x0, x0, #0x1c
ffffffff80005ba4:	d37ef400 	lsl	x0, x0, #2
ffffffff80005ba8:	8b000020 	add	x0, x1, x0
ffffffff80005bac:	b9400800 	ldr	w0, [x0, #8]
ffffffff80005bb0:	7100c01f 	cmp	w0, #0x30
ffffffff80005bb4:	54001481 	b.ne	ffffffff80005e44 <sgr+0xd70>  // b.any
ffffffff80005bb8:	f9400fe1 	ldr	x1, [sp, #24]
ffffffff80005bbc:	f9401fe0 	ldr	x0, [sp, #56]
ffffffff80005bc0:	91007000 	add	x0, x0, #0x1c
ffffffff80005bc4:	d37ef400 	lsl	x0, x0, #2
ffffffff80005bc8:	8b000020 	add	x0, x1, x0
ffffffff80005bcc:	b9400800 	ldr	w0, [x0, #8]
ffffffff80005bd0:	7100981f 	cmp	w0, #0x26
ffffffff80005bd4:	1a9f17e0 	cset	w0, eq	// eq = none
ffffffff80005bd8:	3900bfe0 	strb	w0, [sp, #47]
ffffffff80005bdc:	f9401fe0 	ldr	x0, [sp, #56]
ffffffff80005be0:	91000400 	add	x0, x0, #0x1
ffffffff80005be4:	f9001fe0 	str	x0, [sp, #56]
ffffffff80005be8:	f9400fe0 	ldr	x0, [sp, #24]
ffffffff80005bec:	f9402000 	ldr	x0, [x0, #64]
ffffffff80005bf0:	f9401fe1 	ldr	x1, [sp, #56]
ffffffff80005bf4:	eb00003f 	cmp	x1, x0
ffffffff80005bf8:	540013c2 	b.cs	ffffffff80005e70 <sgr+0xd9c>  // b.hs, b.nlast
ffffffff80005bfc:	f9400fe1 	ldr	x1, [sp, #24]
ffffffff80005c00:	f9401fe0 	ldr	x0, [sp, #56]
ffffffff80005c04:	91007000 	add	x0, x0, #0x1c
ffffffff80005c08:	d37ef400 	lsl	x0, x0, #2
ffffffff80005c0c:	8b000020 	add	x0, x1, x0
ffffffff80005c10:	b9400800 	ldr	w0, [x0, #8]
ffffffff80005c14:	7100081f 	cmp	w0, #0x2
ffffffff80005c18:	54000080 	b.eq	ffffffff80005c28 <sgr+0xb54>  // b.none
ffffffff80005c1c:	7100141f 	cmp	w0, #0x5
ffffffff80005c20:	54000720 	b.eq	ffffffff80005d04 <sgr+0xc30>  // b.none
ffffffff80005c24:	14000088 	b	ffffffff80005e44 <sgr+0xd70>
ffffffff80005c28:	f9401fe0 	ldr	x0, [sp, #56]
ffffffff80005c2c:	91000c01 	add	x1, x0, #0x3
ffffffff80005c30:	f9400fe0 	ldr	x0, [sp, #24]
ffffffff80005c34:	f9402000 	ldr	x0, [x0, #64]
ffffffff80005c38:	eb00003f 	cmp	x1, x0
ffffffff80005c3c:	540011e2 	b.cs	ffffffff80005e78 <sgr+0xda4>  // b.hs, b.nlast
ffffffff80005c40:	b90023ff 	str	wzr, [sp, #32]
ffffffff80005c44:	f9401fe0 	ldr	x0, [sp, #56]
ffffffff80005c48:	91000400 	add	x0, x0, #0x1
ffffffff80005c4c:	f9400fe1 	ldr	x1, [sp, #24]
ffffffff80005c50:	91007000 	add	x0, x0, #0x1c
ffffffff80005c54:	d37ef400 	lsl	x0, x0, #2
ffffffff80005c58:	8b000020 	add	x0, x1, x0
ffffffff80005c5c:	b9400800 	ldr	w0, [x0, #8]
ffffffff80005c60:	53103c00 	lsl	w0, w0, #16
ffffffff80005c64:	b94023e1 	ldr	w1, [sp, #32]
ffffffff80005c68:	2a000020 	orr	w0, w1, w0
ffffffff80005c6c:	b90023e0 	str	w0, [sp, #32]
ffffffff80005c70:	f9401fe0 	ldr	x0, [sp, #56]
ffffffff80005c74:	91000800 	add	x0, x0, #0x2
ffffffff80005c78:	f9400fe1 	ldr	x1, [sp, #24]
ffffffff80005c7c:	91007000 	add	x0, x0, #0x1c
ffffffff80005c80:	d37ef400 	lsl	x0, x0, #2
ffffffff80005c84:	8b000020 	add	x0, x1, x0
ffffffff80005c88:	b9400800 	ldr	w0, [x0, #8]
ffffffff80005c8c:	53185c00 	lsl	w0, w0, #8
ffffffff80005c90:	b94023e1 	ldr	w1, [sp, #32]
ffffffff80005c94:	2a000020 	orr	w0, w1, w0
ffffffff80005c98:	b90023e0 	str	w0, [sp, #32]
ffffffff80005c9c:	f9401fe0 	ldr	x0, [sp, #56]
ffffffff80005ca0:	91000c00 	add	x0, x0, #0x3
ffffffff80005ca4:	f9400fe1 	ldr	x1, [sp, #24]
ffffffff80005ca8:	91007000 	add	x0, x0, #0x1c
ffffffff80005cac:	d37ef400 	lsl	x0, x0, #2
ffffffff80005cb0:	8b000020 	add	x0, x1, x0
ffffffff80005cb4:	b9400800 	ldr	w0, [x0, #8]
ffffffff80005cb8:	b94023e1 	ldr	w1, [sp, #32]
ffffffff80005cbc:	2a000020 	orr	w0, w1, w0
ffffffff80005cc0:	b90023e0 	str	w0, [sp, #32]
ffffffff80005cc4:	f9401fe0 	ldr	x0, [sp, #56]
ffffffff80005cc8:	91000c00 	add	x0, x0, #0x3
ffffffff80005ccc:	f9001fe0 	str	x0, [sp, #56]
ffffffff80005cd0:	3940bfe0 	ldrb	w0, [sp, #47]
ffffffff80005cd4:	12000000 	and	w0, w0, #0x1
ffffffff80005cd8:	7100001f 	cmp	w0, #0x0
ffffffff80005cdc:	54000080 	b.eq	ffffffff80005cec <sgr+0xc18>  // b.none
ffffffff80005ce0:	f9400fe0 	ldr	x0, [sp, #24]
ffffffff80005ce4:	f9409802 	ldr	x2, [x0, #304]
ffffffff80005ce8:	14000003 	b	ffffffff80005cf4 <sgr+0xc20>
ffffffff80005cec:	f9400fe0 	ldr	x0, [sp, #24]
ffffffff80005cf0:	f9409c02 	ldr	x2, [x0, #312]
ffffffff80005cf4:	b94023e1 	ldr	w1, [sp, #32]
ffffffff80005cf8:	f9400fe0 	ldr	x0, [sp, #24]
ffffffff80005cfc:	d63f0040 	blr	x2
ffffffff80005d00:	14000051 	b	ffffffff80005e44 <sgr+0xd70>
ffffffff80005d04:	f9401fe0 	ldr	x0, [sp, #56]
ffffffff80005d08:	91000401 	add	x1, x0, #0x1
ffffffff80005d0c:	f9400fe0 	ldr	x0, [sp, #24]
ffffffff80005d10:	f9402000 	ldr	x0, [x0, #64]
ffffffff80005d14:	eb00003f 	cmp	x1, x0
ffffffff80005d18:	54000b42 	b.cs	ffffffff80005e80 <sgr+0xdac>  // b.hs, b.nlast
ffffffff80005d1c:	f9401fe0 	ldr	x0, [sp, #56]
ffffffff80005d20:	91000400 	add	x0, x0, #0x1
ffffffff80005d24:	f9400fe1 	ldr	x1, [sp, #24]
ffffffff80005d28:	91007000 	add	x0, x0, #0x1c
ffffffff80005d2c:	d37ef400 	lsl	x0, x0, #2
ffffffff80005d30:	8b000020 	add	x0, x1, x0
ffffffff80005d34:	b9400800 	ldr	w0, [x0, #8]
ffffffff80005d38:	b9002be0 	str	w0, [sp, #40]
ffffffff80005d3c:	f9401fe0 	ldr	x0, [sp, #56]
ffffffff80005d40:	91000400 	add	x0, x0, #0x1
ffffffff80005d44:	f9001fe0 	str	x0, [sp, #56]
ffffffff80005d48:	b9402be0 	ldr	w0, [sp, #40]
ffffffff80005d4c:	71001c1f 	cmp	w0, #0x7
ffffffff80005d50:	540001e8 	b.hi	ffffffff80005d8c <sgr+0xcb8>  // b.pmore
ffffffff80005d54:	3940bfe0 	ldrb	w0, [sp, #47]
ffffffff80005d58:	12000000 	and	w0, w0, #0x1
ffffffff80005d5c:	7100001f 	cmp	w0, #0x0
ffffffff80005d60:	54000080 	b.eq	ffffffff80005d70 <sgr+0xc9c>  // b.none
ffffffff80005d64:	f9400fe0 	ldr	x0, [sp, #24]
ffffffff80005d68:	f9408802 	ldr	x2, [x0, #272]
ffffffff80005d6c:	14000003 	b	ffffffff80005d78 <sgr+0xca4>
ffffffff80005d70:	f9400fe0 	ldr	x0, [sp, #24]
ffffffff80005d74:	f9408c02 	ldr	x2, [x0, #280]
ffffffff80005d78:	b9402be0 	ldr	w0, [sp, #40]
ffffffff80005d7c:	aa0003e1 	mov	x1, x0
ffffffff80005d80:	f9400fe0 	ldr	x0, [sp, #24]
ffffffff80005d84:	d63f0040 	blr	x2
ffffffff80005d88:	1400002f 	b	ffffffff80005e44 <sgr+0xd70>
ffffffff80005d8c:	b9402be0 	ldr	w0, [sp, #40]
ffffffff80005d90:	71003c1f 	cmp	w0, #0xf
ffffffff80005d94:	54000228 	b.hi	ffffffff80005dd8 <sgr+0xd04>  // b.pmore
ffffffff80005d98:	3940bfe0 	ldrb	w0, [sp, #47]
ffffffff80005d9c:	12000000 	and	w0, w0, #0x1
ffffffff80005da0:	7100001f 	cmp	w0, #0x0
ffffffff80005da4:	54000080 	b.eq	ffffffff80005db4 <sgr+0xce0>  // b.none
ffffffff80005da8:	f9400fe0 	ldr	x0, [sp, #24]
ffffffff80005dac:	f9409002 	ldr	x2, [x0, #288]
ffffffff80005db0:	14000003 	b	ffffffff80005dbc <sgr+0xce8>
ffffffff80005db4:	f9400fe0 	ldr	x0, [sp, #24]
ffffffff80005db8:	f9409402 	ldr	x2, [x0, #296]
ffffffff80005dbc:	b9402be0 	ldr	w0, [sp, #40]
ffffffff80005dc0:	51002000 	sub	w0, w0, #0x8
ffffffff80005dc4:	2a0003e0 	mov	w0, w0
ffffffff80005dc8:	aa0003e1 	mov	x1, x0
ffffffff80005dcc:	f9400fe0 	ldr	x0, [sp, #24]
ffffffff80005dd0:	d63f0040 	blr	x2
ffffffff80005dd4:	1400001c 	b	ffffffff80005e44 <sgr+0xd70>
ffffffff80005dd8:	b9402be0 	ldr	w0, [sp, #40]
ffffffff80005ddc:	51004001 	sub	w1, w0, #0x10
ffffffff80005de0:	b00000a0 	adrp	x0, ffffffff8001a000 <builtin_font+0x720>
ffffffff80005de4:	91238000 	add	x0, x0, #0x8e0
ffffffff80005de8:	2a0103e1 	mov	w1, w1
ffffffff80005dec:	b8617800 	ldr	w0, [x0, x1, lsl #2]
ffffffff80005df0:	b90027e0 	str	w0, [sp, #36]
ffffffff80005df4:	3940bfe0 	ldrb	w0, [sp, #47]
ffffffff80005df8:	12000000 	and	w0, w0, #0x1
ffffffff80005dfc:	7100001f 	cmp	w0, #0x0
ffffffff80005e00:	54000080 	b.eq	ffffffff80005e10 <sgr+0xd3c>  // b.none
ffffffff80005e04:	f9400fe0 	ldr	x0, [sp, #24]
ffffffff80005e08:	f9409802 	ldr	x2, [x0, #304]
ffffffff80005e0c:	14000003 	b	ffffffff80005e18 <sgr+0xd44>
ffffffff80005e10:	f9400fe0 	ldr	x0, [sp, #24]
ffffffff80005e14:	f9409c02 	ldr	x2, [x0, #312]
ffffffff80005e18:	b94027e1 	ldr	w1, [sp, #36]
ffffffff80005e1c:	f9400fe0 	ldr	x0, [sp, #24]
ffffffff80005e20:	d63f0040 	blr	x2
ffffffff80005e24:	14000008 	b	ffffffff80005e44 <sgr+0xd70>
ffffffff80005e28:	d503201f 	nop
ffffffff80005e2c:	14000006 	b	ffffffff80005e44 <sgr+0xd70>
ffffffff80005e30:	d503201f 	nop
ffffffff80005e34:	14000004 	b	ffffffff80005e44 <sgr+0xd70>
ffffffff80005e38:	d503201f 	nop
ffffffff80005e3c:	14000002 	b	ffffffff80005e44 <sgr+0xd70>
ffffffff80005e40:	d503201f 	nop
ffffffff80005e44:	f9401fe0 	ldr	x0, [sp, #56]
ffffffff80005e48:	91000400 	add	x0, x0, #0x1
ffffffff80005e4c:	f9001fe0 	str	x0, [sp, #56]
ffffffff80005e50:	14000002 	b	ffffffff80005e58 <sgr+0xd84>
ffffffff80005e54:	d503201f 	nop
ffffffff80005e58:	f9400fe0 	ldr	x0, [sp, #24]
ffffffff80005e5c:	f9402000 	ldr	x0, [x0, #64]
ffffffff80005e60:	f9401fe1 	ldr	x1, [sp, #56]
ffffffff80005e64:	eb00003f 	cmp	x1, x0
ffffffff80005e68:	54ff9483 	b.cc	ffffffff800050f8 <sgr+0x24>  // b.lo, b.ul, b.last
ffffffff80005e6c:	14000006 	b	ffffffff80005e84 <sgr+0xdb0>
ffffffff80005e70:	d503201f 	nop
ffffffff80005e74:	14000004 	b	ffffffff80005e84 <sgr+0xdb0>
ffffffff80005e78:	d503201f 	nop
ffffffff80005e7c:	14000002 	b	ffffffff80005e84 <sgr+0xdb0>
ffffffff80005e80:	d503201f 	nop
ffffffff80005e84:	d503201f 	nop
ffffffff80005e88:	a8c47bfd 	ldp	x29, x30, [sp], #64
ffffffff80005e8c:	d65f03c0 	ret

ffffffff80005e90 <dec_private_parse>:
ffffffff80005e90:	a9bd7bfd 	stp	x29, x30, [sp, #-48]!
ffffffff80005e94:	910003fd 	mov	x29, sp
ffffffff80005e98:	f9000fe0 	str	x0, [sp, #24]
ffffffff80005e9c:	39005fe1 	strb	w1, [sp, #23]
ffffffff80005ea0:	f9400fe0 	ldr	x0, [sp, #24]
ffffffff80005ea4:	3900541f 	strb	wzr, [x0, #21]
ffffffff80005ea8:	f9400fe0 	ldr	x0, [sp, #24]
ffffffff80005eac:	f9402000 	ldr	x0, [x0, #64]
ffffffff80005eb0:	f100001f 	cmp	x0, #0x0
ffffffff80005eb4:	540005c0 	b.eq	ffffffff80005f6c <dec_private_parse+0xdc>  // b.none
ffffffff80005eb8:	39405fe0 	ldrb	w0, [sp, #23]
ffffffff80005ebc:	7101a01f 	cmp	w0, #0x68
ffffffff80005ec0:	54000080 	b.eq	ffffffff80005ed0 <dec_private_parse+0x40>  // b.none
ffffffff80005ec4:	7101b01f 	cmp	w0, #0x6c
ffffffff80005ec8:	540000a0 	b.eq	ffffffff80005edc <dec_private_parse+0x4c>  // b.none
ffffffff80005ecc:	14000029 	b	ffffffff80005f70 <dec_private_parse+0xe0>
ffffffff80005ed0:	52800020 	mov	w0, #0x1                   	// #1
ffffffff80005ed4:	3900bfe0 	strb	w0, [sp, #47]
ffffffff80005ed8:	14000003 	b	ffffffff80005ee4 <dec_private_parse+0x54>
ffffffff80005edc:	3900bfff 	strb	wzr, [sp, #47]
ffffffff80005ee0:	d503201f 	nop
ffffffff80005ee4:	f9400fe0 	ldr	x0, [sp, #24]
ffffffff80005ee8:	b9407800 	ldr	w0, [x0, #120]
ffffffff80005eec:	7100641f 	cmp	w0, #0x19
ffffffff80005ef0:	54000181 	b.ne	ffffffff80005f20 <dec_private_parse+0x90>  // b.any
ffffffff80005ef4:	3940bfe0 	ldrb	w0, [sp, #47]
ffffffff80005ef8:	12000000 	and	w0, w0, #0x1
ffffffff80005efc:	7100001f 	cmp	w0, #0x0
ffffffff80005f00:	540000a0 	b.eq	ffffffff80005f14 <dec_private_parse+0x84>  // b.none
ffffffff80005f04:	f9400fe0 	ldr	x0, [sp, #24]
ffffffff80005f08:	52800021 	mov	w1, #0x1                   	// #1
ffffffff80005f0c:	39002401 	strb	w1, [x0, #9]
ffffffff80005f10:	14000018 	b	ffffffff80005f70 <dec_private_parse+0xe0>
ffffffff80005f14:	f9400fe0 	ldr	x0, [sp, #24]
ffffffff80005f18:	3900241f 	strb	wzr, [x0, #9]
ffffffff80005f1c:	14000015 	b	ffffffff80005f70 <dec_private_parse+0xe0>
ffffffff80005f20:	f9400fe0 	ldr	x0, [sp, #24]
ffffffff80005f24:	f940d400 	ldr	x0, [x0, #424]
ffffffff80005f28:	f100001f 	cmp	x0, #0x0
ffffffff80005f2c:	54000220 	b.eq	ffffffff80005f70 <dec_private_parse+0xe0>  // b.none
ffffffff80005f30:	f9400fe0 	ldr	x0, [sp, #24]
ffffffff80005f34:	f940d405 	ldr	x5, [x0, #424]
ffffffff80005f38:	f9400fe0 	ldr	x0, [sp, #24]
ffffffff80005f3c:	f9402001 	ldr	x1, [x0, #64]
ffffffff80005f40:	f9400fe0 	ldr	x0, [sp, #24]
ffffffff80005f44:	9101e000 	add	x0, x0, #0x78
ffffffff80005f48:	aa0003e2 	mov	x2, x0
ffffffff80005f4c:	39405fe0 	ldrb	w0, [sp, #23]
ffffffff80005f50:	aa0003e4 	mov	x4, x0
ffffffff80005f54:	aa0203e3 	mov	x3, x2
ffffffff80005f58:	aa0103e2 	mov	x2, x1
ffffffff80005f5c:	d2800141 	mov	x1, #0xa                   	// #10
ffffffff80005f60:	f9400fe0 	ldr	x0, [sp, #24]
ffffffff80005f64:	d63f00a0 	blr	x5
ffffffff80005f68:	14000002 	b	ffffffff80005f70 <dec_private_parse+0xe0>
ffffffff80005f6c:	d503201f 	nop
ffffffff80005f70:	a8c37bfd 	ldp	x29, x30, [sp], #48
ffffffff80005f74:	d65f03c0 	ret

ffffffff80005f78 <linux_private_parse>:
ffffffff80005f78:	a9be7bfd 	stp	x29, x30, [sp, #-32]!
ffffffff80005f7c:	910003fd 	mov	x29, sp
ffffffff80005f80:	f9000fe0 	str	x0, [sp, #24]
ffffffff80005f84:	f9400fe0 	ldr	x0, [sp, #24]
ffffffff80005f88:	f9402000 	ldr	x0, [x0, #64]
ffffffff80005f8c:	f100001f 	cmp	x0, #0x0
ffffffff80005f90:	54000240 	b.eq	ffffffff80005fd8 <linux_private_parse+0x60>  // b.none
ffffffff80005f94:	f9400fe0 	ldr	x0, [sp, #24]
ffffffff80005f98:	f940d400 	ldr	x0, [x0, #424]
ffffffff80005f9c:	f100001f 	cmp	x0, #0x0
ffffffff80005fa0:	540001e0 	b.eq	ffffffff80005fdc <linux_private_parse+0x64>  // b.none
ffffffff80005fa4:	f9400fe0 	ldr	x0, [sp, #24]
ffffffff80005fa8:	f940d405 	ldr	x5, [x0, #424]
ffffffff80005fac:	f9400fe0 	ldr	x0, [sp, #24]
ffffffff80005fb0:	f9402001 	ldr	x1, [x0, #64]
ffffffff80005fb4:	f9400fe0 	ldr	x0, [sp, #24]
ffffffff80005fb8:	9101e000 	add	x0, x0, #0x78
ffffffff80005fbc:	d2800004 	mov	x4, #0x0                   	// #0
ffffffff80005fc0:	aa0003e3 	mov	x3, x0
ffffffff80005fc4:	aa0103e2 	mov	x2, x1
ffffffff80005fc8:	d2800a01 	mov	x1, #0x50                  	// #80
ffffffff80005fcc:	f9400fe0 	ldr	x0, [sp, #24]
ffffffff80005fd0:	d63f00a0 	blr	x5
ffffffff80005fd4:	14000002 	b	ffffffff80005fdc <linux_private_parse+0x64>
ffffffff80005fd8:	d503201f 	nop
ffffffff80005fdc:	a8c27bfd 	ldp	x29, x30, [sp], #32
ffffffff80005fe0:	d65f03c0 	ret

ffffffff80005fe4 <mode_toggle>:
ffffffff80005fe4:	a9bd7bfd 	stp	x29, x30, [sp, #-48]!
ffffffff80005fe8:	910003fd 	mov	x29, sp
ffffffff80005fec:	f9000fe0 	str	x0, [sp, #24]
ffffffff80005ff0:	39005fe1 	strb	w1, [sp, #23]
ffffffff80005ff4:	f9400fe0 	ldr	x0, [sp, #24]
ffffffff80005ff8:	f9402000 	ldr	x0, [x0, #64]
ffffffff80005ffc:	f100001f 	cmp	x0, #0x0
ffffffff80006000:	540004e0 	b.eq	ffffffff8000609c <mode_toggle+0xb8>  // b.none
ffffffff80006004:	39405fe0 	ldrb	w0, [sp, #23]
ffffffff80006008:	7101a01f 	cmp	w0, #0x68
ffffffff8000600c:	54000080 	b.eq	ffffffff8000601c <mode_toggle+0x38>  // b.none
ffffffff80006010:	7101b01f 	cmp	w0, #0x6c
ffffffff80006014:	540000a0 	b.eq	ffffffff80006028 <mode_toggle+0x44>  // b.none
ffffffff80006018:	14000022 	b	ffffffff800060a0 <mode_toggle+0xbc>
ffffffff8000601c:	52800020 	mov	w0, #0x1                   	// #1
ffffffff80006020:	3900bfe0 	strb	w0, [sp, #47]
ffffffff80006024:	14000003 	b	ffffffff80006030 <mode_toggle+0x4c>
ffffffff80006028:	3900bfff 	strb	wzr, [sp, #47]
ffffffff8000602c:	d503201f 	nop
ffffffff80006030:	f9400fe0 	ldr	x0, [sp, #24]
ffffffff80006034:	b9407800 	ldr	w0, [x0, #120]
ffffffff80006038:	7100101f 	cmp	w0, #0x4
ffffffff8000603c:	540000a1 	b.ne	ffffffff80006050 <mode_toggle+0x6c>  // b.any
ffffffff80006040:	f9400fe0 	ldr	x0, [sp, #24]
ffffffff80006044:	3940bfe1 	ldrb	w1, [sp, #47]
ffffffff80006048:	39005801 	strb	w1, [x0, #22]
ffffffff8000604c:	14000015 	b	ffffffff800060a0 <mode_toggle+0xbc>
ffffffff80006050:	f9400fe0 	ldr	x0, [sp, #24]
ffffffff80006054:	f940d400 	ldr	x0, [x0, #424]
ffffffff80006058:	f100001f 	cmp	x0, #0x0
ffffffff8000605c:	54000220 	b.eq	ffffffff800060a0 <mode_toggle+0xbc>  // b.none
ffffffff80006060:	f9400fe0 	ldr	x0, [sp, #24]
ffffffff80006064:	f940d405 	ldr	x5, [x0, #424]
ffffffff80006068:	f9400fe0 	ldr	x0, [sp, #24]
ffffffff8000606c:	f9402001 	ldr	x1, [x0, #64]
ffffffff80006070:	f9400fe0 	ldr	x0, [sp, #24]
ffffffff80006074:	9101e000 	add	x0, x0, #0x78
ffffffff80006078:	aa0003e2 	mov	x2, x0
ffffffff8000607c:	39405fe0 	ldrb	w0, [sp, #23]
ffffffff80006080:	aa0003e4 	mov	x4, x0
ffffffff80006084:	aa0203e3 	mov	x3, x2
ffffffff80006088:	aa0103e2 	mov	x2, x1
ffffffff8000608c:	d28008c1 	mov	x1, #0x46                  	// #70
ffffffff80006090:	f9400fe0 	ldr	x0, [sp, #24]
ffffffff80006094:	d63f00a0 	blr	x5
ffffffff80006098:	14000002 	b	ffffffff800060a0 <mode_toggle+0xbc>
ffffffff8000609c:	d503201f 	nop
ffffffff800060a0:	a8c37bfd 	ldp	x29, x30, [sp], #48
ffffffff800060a4:	d65f03c0 	ret

ffffffff800060a8 <osc_parse>:
ffffffff800060a8:	d10043ff 	sub	sp, sp, #0x10
ffffffff800060ac:	f90007e0 	str	x0, [sp, #8]
ffffffff800060b0:	39001fe1 	strb	w1, [sp, #7]
ffffffff800060b4:	f94007e0 	ldr	x0, [sp, #8]
ffffffff800060b8:	39403c00 	ldrb	w0, [x0, #15]
ffffffff800060bc:	12000000 	and	w0, w0, #0x1
ffffffff800060c0:	7100001f 	cmp	w0, #0x0
ffffffff800060c4:	54000080 	b.eq	ffffffff800060d4 <osc_parse+0x2c>  // b.none
ffffffff800060c8:	39401fe0 	ldrb	w0, [sp, #7]
ffffffff800060cc:	7101701f 	cmp	w0, #0x5c
ffffffff800060d0:	540001a0 	b.eq	ffffffff80006104 <osc_parse+0x5c>  // b.none
ffffffff800060d4:	f94007e0 	ldr	x0, [sp, #8]
ffffffff800060d8:	39003c1f 	strb	wzr, [x0, #15]
ffffffff800060dc:	39401fe0 	ldrb	w0, [sp, #7]
ffffffff800060e0:	71001c1f 	cmp	w0, #0x7
ffffffff800060e4:	54000140 	b.eq	ffffffff8000610c <osc_parse+0x64>  // b.none
ffffffff800060e8:	71006c1f 	cmp	w0, #0x1b
ffffffff800060ec:	54000201 	b.ne	ffffffff8000612c <osc_parse+0x84>  // b.any
ffffffff800060f0:	f94007e0 	ldr	x0, [sp, #8]
ffffffff800060f4:	52800021 	mov	w1, #0x1                   	// #1
ffffffff800060f8:	39003c01 	strb	w1, [x0, #15]
ffffffff800060fc:	d503201f 	nop
ffffffff80006100:	1400000b 	b	ffffffff8000612c <osc_parse+0x84>
ffffffff80006104:	d503201f 	nop
ffffffff80006108:	14000002 	b	ffffffff80006110 <osc_parse+0x68>
ffffffff8000610c:	d503201f 	nop
ffffffff80006110:	f94007e0 	ldr	x0, [sp, #8]
ffffffff80006114:	39003c1f 	strb	wzr, [x0, #15]
ffffffff80006118:	f94007e0 	ldr	x0, [sp, #8]
ffffffff8000611c:	3900381f 	strb	wzr, [x0, #14]
ffffffff80006120:	f94007e0 	ldr	x0, [sp, #8]
ffffffff80006124:	3900341f 	strb	wzr, [x0, #13]
ffffffff80006128:	14000002 	b	ffffffff80006130 <osc_parse+0x88>
ffffffff8000612c:	d503201f 	nop
ffffffff80006130:	910043ff 	add	sp, sp, #0x10
ffffffff80006134:	d65f03c0 	ret

ffffffff80006138 <control_sequence_parse>:
ffffffff80006138:	a9b07bfd 	stp	x29, x30, [sp, #-256]!
ffffffff8000613c:	910003fd 	mov	x29, sp
ffffffff80006140:	f9000fe0 	str	x0, [sp, #24]
ffffffff80006144:	39005fe1 	strb	w1, [sp, #23]
ffffffff80006148:	f9400fe0 	ldr	x0, [sp, #24]
ffffffff8000614c:	f9401c00 	ldr	x0, [x0, #56]
ffffffff80006150:	f100081f 	cmp	x0, #0x2
ffffffff80006154:	540001c1 	b.ne	ffffffff8000618c <control_sequence_parse+0x54>  // b.any
ffffffff80006158:	39405fe0 	ldrb	w0, [sp, #23]
ffffffff8000615c:	7100fc1f 	cmp	w0, #0x3f
ffffffff80006160:	540000e0 	b.eq	ffffffff8000617c <control_sequence_parse+0x44>  // b.none
ffffffff80006164:	71016c1f 	cmp	w0, #0x5b
ffffffff80006168:	54000121 	b.ne	ffffffff8000618c <control_sequence_parse+0x54>  // b.any
ffffffff8000616c:	f9400fe0 	ldr	x0, [sp, #24]
ffffffff80006170:	52800021 	mov	w1, #0x1                   	// #1
ffffffff80006174:	39004401 	strb	w1, [x0, #17]
ffffffff80006178:	140003e6 	b	ffffffff80007110 <control_sequence_parse+0xfd8>
ffffffff8000617c:	f9400fe0 	ldr	x0, [sp, #24]
ffffffff80006180:	52800021 	mov	w1, #0x1                   	// #1
ffffffff80006184:	39005401 	strb	w1, [x0, #21]
ffffffff80006188:	140003ea 	b	ffffffff80007130 <control_sequence_parse+0xff8>
ffffffff8000618c:	39405fe0 	ldrb	w0, [sp, #23]
ffffffff80006190:	7100bc1f 	cmp	w0, #0x2f
ffffffff80006194:	54000609 	b.ls	ffffffff80006254 <control_sequence_parse+0x11c>  // b.plast
ffffffff80006198:	39405fe0 	ldrb	w0, [sp, #23]
ffffffff8000619c:	7100e41f 	cmp	w0, #0x39
ffffffff800061a0:	540005a8 	b.hi	ffffffff80006254 <control_sequence_parse+0x11c>  // b.pmore
ffffffff800061a4:	f9400fe0 	ldr	x0, [sp, #24]
ffffffff800061a8:	f9402000 	ldr	x0, [x0, #64]
ffffffff800061ac:	f100401f 	cmp	x0, #0x10
ffffffff800061b0:	54007ba0 	b.eq	ffffffff80007124 <control_sequence_parse+0xfec>  // b.none
ffffffff800061b4:	f9400fe0 	ldr	x0, [sp, #24]
ffffffff800061b8:	52800021 	mov	w1, #0x1                   	// #1
ffffffff800061bc:	39004001 	strb	w1, [x0, #16]
ffffffff800061c0:	f9400fe0 	ldr	x0, [sp, #24]
ffffffff800061c4:	f9402000 	ldr	x0, [x0, #64]
ffffffff800061c8:	f9400fe1 	ldr	x1, [sp, #24]
ffffffff800061cc:	91007000 	add	x0, x0, #0x1c
ffffffff800061d0:	d37ef400 	lsl	x0, x0, #2
ffffffff800061d4:	8b000020 	add	x0, x1, x0
ffffffff800061d8:	b9400801 	ldr	w1, [x0, #8]
ffffffff800061dc:	f9400fe0 	ldr	x0, [sp, #24]
ffffffff800061e0:	f9402002 	ldr	x2, [x0, #64]
ffffffff800061e4:	2a0103e0 	mov	w0, w1
ffffffff800061e8:	531e7400 	lsl	w0, w0, #2
ffffffff800061ec:	0b010000 	add	w0, w0, w1
ffffffff800061f0:	531f7800 	lsl	w0, w0, #1
ffffffff800061f4:	2a0003e3 	mov	w3, w0
ffffffff800061f8:	f9400fe1 	ldr	x1, [sp, #24]
ffffffff800061fc:	91007040 	add	x0, x2, #0x1c
ffffffff80006200:	d37ef400 	lsl	x0, x0, #2
ffffffff80006204:	8b000020 	add	x0, x1, x0
ffffffff80006208:	b9000803 	str	w3, [x0, #8]
ffffffff8000620c:	f9400fe0 	ldr	x0, [sp, #24]
ffffffff80006210:	f9402000 	ldr	x0, [x0, #64]
ffffffff80006214:	f9400fe1 	ldr	x1, [sp, #24]
ffffffff80006218:	91007000 	add	x0, x0, #0x1c
ffffffff8000621c:	d37ef400 	lsl	x0, x0, #2
ffffffff80006220:	8b000020 	add	x0, x1, x0
ffffffff80006224:	b9400801 	ldr	w1, [x0, #8]
ffffffff80006228:	39405fe0 	ldrb	w0, [sp, #23]
ffffffff8000622c:	0b000021 	add	w1, w1, w0
ffffffff80006230:	f9400fe0 	ldr	x0, [sp, #24]
ffffffff80006234:	f9402000 	ldr	x0, [x0, #64]
ffffffff80006238:	5100c021 	sub	w1, w1, #0x30
ffffffff8000623c:	f9400fe2 	ldr	x2, [sp, #24]
ffffffff80006240:	91007000 	add	x0, x0, #0x1c
ffffffff80006244:	d37ef400 	lsl	x0, x0, #2
ffffffff80006248:	8b000040 	add	x0, x2, x0
ffffffff8000624c:	b9000801 	str	w1, [x0, #8]
ffffffff80006250:	140003b8 	b	ffffffff80007130 <control_sequence_parse+0xff8>
ffffffff80006254:	f9400fe0 	ldr	x0, [sp, #24]
ffffffff80006258:	39404000 	ldrb	w0, [x0, #16]
ffffffff8000625c:	12000000 	and	w0, w0, #0x1
ffffffff80006260:	7100001f 	cmp	w0, #0x0
ffffffff80006264:	54000180 	b.eq	ffffffff80006294 <control_sequence_parse+0x15c>  // b.none
ffffffff80006268:	f9400fe0 	ldr	x0, [sp, #24]
ffffffff8000626c:	f9402000 	ldr	x0, [x0, #64]
ffffffff80006270:	91000401 	add	x1, x0, #0x1
ffffffff80006274:	f9400fe0 	ldr	x0, [sp, #24]
ffffffff80006278:	f9002001 	str	x1, [x0, #64]
ffffffff8000627c:	f9400fe0 	ldr	x0, [sp, #24]
ffffffff80006280:	3900401f 	strb	wzr, [x0, #16]
ffffffff80006284:	39405fe0 	ldrb	w0, [sp, #23]
ffffffff80006288:	7100ec1f 	cmp	w0, #0x3b
ffffffff8000628c:	540002c1 	b.ne	ffffffff800062e4 <control_sequence_parse+0x1ac>  // b.any
ffffffff80006290:	140003a8 	b	ffffffff80007130 <control_sequence_parse+0xff8>
ffffffff80006294:	39405fe0 	ldrb	w0, [sp, #23]
ffffffff80006298:	7100ec1f 	cmp	w0, #0x3b
ffffffff8000629c:	54000241 	b.ne	ffffffff800062e4 <control_sequence_parse+0x1ac>  // b.any
ffffffff800062a0:	f9400fe0 	ldr	x0, [sp, #24]
ffffffff800062a4:	f9402000 	ldr	x0, [x0, #64]
ffffffff800062a8:	f100401f 	cmp	x0, #0x10
ffffffff800062ac:	54007400 	b.eq	ffffffff8000712c <control_sequence_parse+0xff4>  // b.none
ffffffff800062b0:	f9400fe0 	ldr	x0, [sp, #24]
ffffffff800062b4:	f9402000 	ldr	x0, [x0, #64]
ffffffff800062b8:	f9400fe1 	ldr	x1, [sp, #24]
ffffffff800062bc:	91007000 	add	x0, x0, #0x1c
ffffffff800062c0:	d37ef400 	lsl	x0, x0, #2
ffffffff800062c4:	8b000020 	add	x0, x1, x0
ffffffff800062c8:	b900081f 	str	wzr, [x0, #8]
ffffffff800062cc:	f9400fe0 	ldr	x0, [sp, #24]
ffffffff800062d0:	f9402000 	ldr	x0, [x0, #64]
ffffffff800062d4:	91000401 	add	x1, x0, #0x1
ffffffff800062d8:	f9400fe0 	ldr	x0, [sp, #24]
ffffffff800062dc:	f9002001 	str	x1, [x0, #64]
ffffffff800062e0:	14000394 	b	ffffffff80007130 <control_sequence_parse+0xff8>
ffffffff800062e4:	39405fe0 	ldrb	w0, [sp, #23]
ffffffff800062e8:	71012c1f 	cmp	w0, #0x4b
ffffffff800062ec:	5400008c 	b.gt	ffffffff800062fc <control_sequence_parse+0x1c4>
ffffffff800062f0:	7101281f 	cmp	w0, #0x4a
ffffffff800062f4:	5400008a 	b.ge	ffffffff80006304 <control_sequence_parse+0x1cc>  // b.tcont
ffffffff800062f8:	14000005 	b	ffffffff8000630c <control_sequence_parse+0x1d4>
ffffffff800062fc:	7101c41f 	cmp	w0, #0x71
ffffffff80006300:	54000061 	b.ne	ffffffff8000630c <control_sequence_parse+0x1d4>  // b.any
ffffffff80006304:	f9007fff 	str	xzr, [sp, #248]
ffffffff80006308:	14000004 	b	ffffffff80006318 <control_sequence_parse+0x1e0>
ffffffff8000630c:	d2800020 	mov	x0, #0x1                   	// #1
ffffffff80006310:	f9007fe0 	str	x0, [sp, #248]
ffffffff80006314:	d503201f 	nop
ffffffff80006318:	f9400fe0 	ldr	x0, [sp, #24]
ffffffff8000631c:	f9402000 	ldr	x0, [x0, #64]
ffffffff80006320:	f9007be0 	str	x0, [sp, #240]
ffffffff80006324:	1400000c 	b	ffffffff80006354 <control_sequence_parse+0x21c>
ffffffff80006328:	f9407fe0 	ldr	x0, [sp, #248]
ffffffff8000632c:	2a0003e2 	mov	w2, w0
ffffffff80006330:	f9400fe1 	ldr	x1, [sp, #24]
ffffffff80006334:	f9407be0 	ldr	x0, [sp, #240]
ffffffff80006338:	91007000 	add	x0, x0, #0x1c
ffffffff8000633c:	d37ef400 	lsl	x0, x0, #2
ffffffff80006340:	8b000020 	add	x0, x1, x0
ffffffff80006344:	b9000802 	str	w2, [x0, #8]
ffffffff80006348:	f9407be0 	ldr	x0, [sp, #240]
ffffffff8000634c:	91000400 	add	x0, x0, #0x1
ffffffff80006350:	f9007be0 	str	x0, [sp, #240]
ffffffff80006354:	f9407be0 	ldr	x0, [sp, #240]
ffffffff80006358:	f1003c1f 	cmp	x0, #0xf
ffffffff8000635c:	54fffe69 	b.ls	ffffffff80006328 <control_sequence_parse+0x1f0>  // b.plast
ffffffff80006360:	f9400fe0 	ldr	x0, [sp, #24]
ffffffff80006364:	39405400 	ldrb	w0, [x0, #21]
ffffffff80006368:	12000000 	and	w0, w0, #0x1
ffffffff8000636c:	7100001f 	cmp	w0, #0x0
ffffffff80006370:	540000a0 	b.eq	ffffffff80006384 <control_sequence_parse+0x24c>  // b.none
ffffffff80006374:	39405fe1 	ldrb	w1, [sp, #23]
ffffffff80006378:	f9400fe0 	ldr	x0, [sp, #24]
ffffffff8000637c:	97fffec5 	bl	ffffffff80005e90 <dec_private_parse>
ffffffff80006380:	14000364 	b	ffffffff80007110 <control_sequence_parse+0xfd8>
ffffffff80006384:	f9400fe0 	ldr	x0, [sp, #24]
ffffffff80006388:	39402800 	ldrb	w0, [x0, #10]
ffffffff8000638c:	3901bfe0 	strb	w0, [sp, #111]
ffffffff80006390:	f9400fe0 	ldr	x0, [sp, #24]
ffffffff80006394:	3900281f 	strb	wzr, [x0, #10]
ffffffff80006398:	f9400fe0 	ldr	x0, [sp, #24]
ffffffff8000639c:	f9408403 	ldr	x3, [x0, #264]
ffffffff800063a0:	9100a3e1 	add	x1, sp, #0x28
ffffffff800063a4:	9100c3e0 	add	x0, sp, #0x30
ffffffff800063a8:	aa0103e2 	mov	x2, x1
ffffffff800063ac:	aa0003e1 	mov	x1, x0
ffffffff800063b0:	f9400fe0 	ldr	x0, [sp, #24]
ffffffff800063b4:	d63f0060 	blr	x3
ffffffff800063b8:	39405fe0 	ldrb	w0, [sp, #23]
ffffffff800063bc:	51010000 	sub	w0, w0, #0x40
ffffffff800063c0:	7100d41f 	cmp	w0, #0x35
ffffffff800063c4:	54006a08 	b.hi	ffffffff80007104 <control_sequence_parse+0xfcc>  // b.pmore
ffffffff800063c8:	900000a1 	adrp	x1, ffffffff8001a000 <builtin_font+0x720>
ffffffff800063cc:	91328021 	add	x1, x1, #0xca0
ffffffff800063d0:	b8605820 	ldr	w0, [x1, w0, uxtw #2]
ffffffff800063d4:	10000061 	adr	x1, ffffffff800063e0 <control_sequence_parse+0x2a8>
ffffffff800063d8:	8b20c820 	add	x0, x1, w0, sxtw #2
ffffffff800063dc:	d61f0000 	br	x0
ffffffff800063e0:	f9001bff 	str	xzr, [sp, #48]
ffffffff800063e4:	f9400fe0 	ldr	x0, [sp, #24]
ffffffff800063e8:	b9407800 	ldr	w0, [x0, #120]
ffffffff800063ec:	2a0003e1 	mov	w1, w0
ffffffff800063f0:	f94017e0 	ldr	x0, [sp, #40]
ffffffff800063f4:	eb00003f 	cmp	x1, x0
ffffffff800063f8:	540000a9 	b.ls	ffffffff8000640c <control_sequence_parse+0x2d4>  // b.plast
ffffffff800063fc:	f94017e0 	ldr	x0, [sp, #40]
ffffffff80006400:	2a0003e1 	mov	w1, w0
ffffffff80006404:	f9400fe0 	ldr	x0, [sp, #24]
ffffffff80006408:	b9007801 	str	w1, [x0, #120]
ffffffff8000640c:	f94017e0 	ldr	x0, [sp, #40]
ffffffff80006410:	f9001fe0 	str	x0, [sp, #56]
ffffffff80006414:	f94017e1 	ldr	x1, [sp, #40]
ffffffff80006418:	f9400fe0 	ldr	x0, [sp, #24]
ffffffff8000641c:	b9407800 	ldr	w0, [x0, #120]
ffffffff80006420:	2a0003e0 	mov	w0, w0
ffffffff80006424:	cb000020 	sub	x0, x1, x0
ffffffff80006428:	f90077e0 	str	x0, [sp, #232]
ffffffff8000642c:	39039fff 	strb	wzr, [sp, #231]
ffffffff80006430:	f9400fe0 	ldr	x0, [sp, #24]
ffffffff80006434:	f9403400 	ldr	x0, [x0, #104]
ffffffff80006438:	f94077e1 	ldr	x1, [sp, #232]
ffffffff8000643c:	eb00003f 	cmp	x1, x0
ffffffff80006440:	540000c8 	b.hi	ffffffff80006458 <control_sequence_parse+0x320>  // b.pmore
ffffffff80006444:	f9400fe0 	ldr	x0, [sp, #24]
ffffffff80006448:	f9403400 	ldr	x0, [x0, #104]
ffffffff8000644c:	f9401fe1 	ldr	x1, [sp, #56]
ffffffff80006450:	eb00003f 	cmp	x1, x0
ffffffff80006454:	54000162 	b.cs	ffffffff80006480 <control_sequence_parse+0x348>  // b.hs, b.nlast
ffffffff80006458:	f9400fe0 	ldr	x0, [sp, #24]
ffffffff8000645c:	f9403800 	ldr	x0, [x0, #112]
ffffffff80006460:	f94077e1 	ldr	x1, [sp, #232]
ffffffff80006464:	eb00003f 	cmp	x1, x0
ffffffff80006468:	54000108 	b.hi	ffffffff80006488 <control_sequence_parse+0x350>  // b.pmore
ffffffff8000646c:	f9400fe0 	ldr	x0, [sp, #24]
ffffffff80006470:	f9403800 	ldr	x0, [x0, #112]
ffffffff80006474:	f9401fe1 	ldr	x1, [sp, #56]
ffffffff80006478:	eb00003f 	cmp	x1, x0
ffffffff8000647c:	54000063 	b.cc	ffffffff80006488 <control_sequence_parse+0x350>  // b.lo, b.ul, b.last
ffffffff80006480:	52800020 	mov	w0, #0x1                   	// #1
ffffffff80006484:	39039fe0 	strb	w0, [sp, #231]
ffffffff80006488:	39439fe0 	ldrb	w0, [sp, #231]
ffffffff8000648c:	12000000 	and	w0, w0, #0x1
ffffffff80006490:	7100001f 	cmp	w0, #0x0
ffffffff80006494:	54000120 	b.eq	ffffffff800064b8 <control_sequence_parse+0x380>  // b.none
ffffffff80006498:	f9400fe0 	ldr	x0, [sp, #24]
ffffffff8000649c:	f9403400 	ldr	x0, [x0, #104]
ffffffff800064a0:	f94077e1 	ldr	x1, [sp, #232]
ffffffff800064a4:	eb00003f 	cmp	x1, x0
ffffffff800064a8:	54000082 	b.cs	ffffffff800064b8 <control_sequence_parse+0x380>  // b.hs, b.nlast
ffffffff800064ac:	f9400fe0 	ldr	x0, [sp, #24]
ffffffff800064b0:	f9403400 	ldr	x0, [x0, #104]
ffffffff800064b4:	f90077e0 	str	x0, [sp, #232]
ffffffff800064b8:	f9400fe0 	ldr	x0, [sp, #24]
ffffffff800064bc:	f9408003 	ldr	x3, [x0, #256]
ffffffff800064c0:	f9401be0 	ldr	x0, [sp, #48]
ffffffff800064c4:	f94077e2 	ldr	x2, [sp, #232]
ffffffff800064c8:	aa0003e1 	mov	x1, x0
ffffffff800064cc:	f9400fe0 	ldr	x0, [sp, #24]
ffffffff800064d0:	d63f0060 	blr	x3
ffffffff800064d4:	1400030c 	b	ffffffff80007104 <control_sequence_parse+0xfcc>
ffffffff800064d8:	f9001bff 	str	xzr, [sp, #48]
ffffffff800064dc:	f9400fe0 	ldr	x0, [sp, #24]
ffffffff800064e0:	b9407800 	ldr	w0, [x0, #120]
ffffffff800064e4:	2a0003e1 	mov	w1, w0
ffffffff800064e8:	f94017e0 	ldr	x0, [sp, #40]
ffffffff800064ec:	8b000021 	add	x1, x1, x0
ffffffff800064f0:	f9400fe0 	ldr	x0, [sp, #24]
ffffffff800064f4:	f9407000 	ldr	x0, [x0, #224]
ffffffff800064f8:	d1000400 	sub	x0, x0, #0x1
ffffffff800064fc:	eb00003f 	cmp	x1, x0
ffffffff80006500:	54000129 	b.ls	ffffffff80006524 <control_sequence_parse+0x3ec>  // b.plast
ffffffff80006504:	f9400fe0 	ldr	x0, [sp, #24]
ffffffff80006508:	f9407000 	ldr	x0, [x0, #224]
ffffffff8000650c:	2a0003e1 	mov	w1, w0
ffffffff80006510:	f94017e0 	ldr	x0, [sp, #40]
ffffffff80006514:	4b000020 	sub	w0, w1, w0
ffffffff80006518:	51000401 	sub	w1, w0, #0x1
ffffffff8000651c:	f9400fe0 	ldr	x0, [sp, #24]
ffffffff80006520:	b9007801 	str	w1, [x0, #120]
ffffffff80006524:	f94017e0 	ldr	x0, [sp, #40]
ffffffff80006528:	f90023e0 	str	x0, [sp, #64]
ffffffff8000652c:	f9400fe0 	ldr	x0, [sp, #24]
ffffffff80006530:	b9407800 	ldr	w0, [x0, #120]
ffffffff80006534:	2a0003e1 	mov	w1, w0
ffffffff80006538:	f94017e0 	ldr	x0, [sp, #40]
ffffffff8000653c:	8b000020 	add	x0, x1, x0
ffffffff80006540:	f9006fe0 	str	x0, [sp, #216]
ffffffff80006544:	39035fff 	strb	wzr, [sp, #215]
ffffffff80006548:	f9400fe0 	ldr	x0, [sp, #24]
ffffffff8000654c:	f9403400 	ldr	x0, [x0, #104]
ffffffff80006550:	f94023e1 	ldr	x1, [sp, #64]
ffffffff80006554:	eb00003f 	cmp	x1, x0
ffffffff80006558:	540000c8 	b.hi	ffffffff80006570 <control_sequence_parse+0x438>  // b.pmore
ffffffff8000655c:	f9400fe0 	ldr	x0, [sp, #24]
ffffffff80006560:	f9403400 	ldr	x0, [x0, #104]
ffffffff80006564:	f9406fe1 	ldr	x1, [sp, #216]
ffffffff80006568:	eb00003f 	cmp	x1, x0
ffffffff8000656c:	54000162 	b.cs	ffffffff80006598 <control_sequence_parse+0x460>  // b.hs, b.nlast
ffffffff80006570:	f9400fe0 	ldr	x0, [sp, #24]
ffffffff80006574:	f9403800 	ldr	x0, [x0, #112]
ffffffff80006578:	f94023e1 	ldr	x1, [sp, #64]
ffffffff8000657c:	eb00003f 	cmp	x1, x0
ffffffff80006580:	54000108 	b.hi	ffffffff800065a0 <control_sequence_parse+0x468>  // b.pmore
ffffffff80006584:	f9400fe0 	ldr	x0, [sp, #24]
ffffffff80006588:	f9403800 	ldr	x0, [x0, #112]
ffffffff8000658c:	f9406fe1 	ldr	x1, [sp, #216]
ffffffff80006590:	eb00003f 	cmp	x1, x0
ffffffff80006594:	54000063 	b.cc	ffffffff800065a0 <control_sequence_parse+0x468>  // b.lo, b.ul, b.last
ffffffff80006598:	52800020 	mov	w0, #0x1                   	// #1
ffffffff8000659c:	39035fe0 	strb	w0, [sp, #215]
ffffffff800065a0:	39435fe0 	ldrb	w0, [sp, #215]
ffffffff800065a4:	12000000 	and	w0, w0, #0x1
ffffffff800065a8:	7100001f 	cmp	w0, #0x0
ffffffff800065ac:	54000140 	b.eq	ffffffff800065d4 <control_sequence_parse+0x49c>  // b.none
ffffffff800065b0:	f9400fe0 	ldr	x0, [sp, #24]
ffffffff800065b4:	f9403800 	ldr	x0, [x0, #112]
ffffffff800065b8:	f9406fe1 	ldr	x1, [sp, #216]
ffffffff800065bc:	eb00003f 	cmp	x1, x0
ffffffff800065c0:	540000a3 	b.cc	ffffffff800065d4 <control_sequence_parse+0x49c>  // b.lo, b.ul, b.last
ffffffff800065c4:	f9400fe0 	ldr	x0, [sp, #24]
ffffffff800065c8:	f9403800 	ldr	x0, [x0, #112]
ffffffff800065cc:	d1000400 	sub	x0, x0, #0x1
ffffffff800065d0:	f9006fe0 	str	x0, [sp, #216]
ffffffff800065d4:	f9400fe0 	ldr	x0, [sp, #24]
ffffffff800065d8:	f9408003 	ldr	x3, [x0, #256]
ffffffff800065dc:	f9401be0 	ldr	x0, [sp, #48]
ffffffff800065e0:	f9406fe2 	ldr	x2, [sp, #216]
ffffffff800065e4:	aa0003e1 	mov	x1, x0
ffffffff800065e8:	f9400fe0 	ldr	x0, [sp, #24]
ffffffff800065ec:	d63f0060 	blr	x3
ffffffff800065f0:	140002c5 	b	ffffffff80007104 <control_sequence_parse+0xfcc>
ffffffff800065f4:	f9400fe0 	ldr	x0, [sp, #24]
ffffffff800065f8:	b9407800 	ldr	w0, [x0, #120]
ffffffff800065fc:	2a0003e1 	mov	w1, w0
ffffffff80006600:	f9401be0 	ldr	x0, [sp, #48]
ffffffff80006604:	8b000021 	add	x1, x1, x0
ffffffff80006608:	f9400fe0 	ldr	x0, [sp, #24]
ffffffff8000660c:	f9407400 	ldr	x0, [x0, #232]
ffffffff80006610:	d1000400 	sub	x0, x0, #0x1
ffffffff80006614:	eb00003f 	cmp	x1, x0
ffffffff80006618:	54000129 	b.ls	ffffffff8000663c <control_sequence_parse+0x504>  // b.plast
ffffffff8000661c:	f9400fe0 	ldr	x0, [sp, #24]
ffffffff80006620:	f9407400 	ldr	x0, [x0, #232]
ffffffff80006624:	2a0003e1 	mov	w1, w0
ffffffff80006628:	f9401be0 	ldr	x0, [sp, #48]
ffffffff8000662c:	4b000020 	sub	w0, w1, w0
ffffffff80006630:	51000401 	sub	w1, w0, #0x1
ffffffff80006634:	f9400fe0 	ldr	x0, [sp, #24]
ffffffff80006638:	b9007801 	str	w1, [x0, #120]
ffffffff8000663c:	f9400fe0 	ldr	x0, [sp, #24]
ffffffff80006640:	f9408003 	ldr	x3, [x0, #256]
ffffffff80006644:	f9400fe0 	ldr	x0, [sp, #24]
ffffffff80006648:	b9407800 	ldr	w0, [x0, #120]
ffffffff8000664c:	2a0003e1 	mov	w1, w0
ffffffff80006650:	f9401be0 	ldr	x0, [sp, #48]
ffffffff80006654:	8b000020 	add	x0, x1, x0
ffffffff80006658:	f94017e1 	ldr	x1, [sp, #40]
ffffffff8000665c:	aa0103e2 	mov	x2, x1
ffffffff80006660:	aa0003e1 	mov	x1, x0
ffffffff80006664:	f9400fe0 	ldr	x0, [sp, #24]
ffffffff80006668:	d63f0060 	blr	x3
ffffffff8000666c:	140002a6 	b	ffffffff80007104 <control_sequence_parse+0xfcc>
ffffffff80006670:	f9400fe0 	ldr	x0, [sp, #24]
ffffffff80006674:	b9407800 	ldr	w0, [x0, #120]
ffffffff80006678:	2a0003e1 	mov	w1, w0
ffffffff8000667c:	f9401be0 	ldr	x0, [sp, #48]
ffffffff80006680:	eb00003f 	cmp	x1, x0
ffffffff80006684:	540000a9 	b.ls	ffffffff80006698 <control_sequence_parse+0x560>  // b.plast
ffffffff80006688:	f9401be0 	ldr	x0, [sp, #48]
ffffffff8000668c:	2a0003e1 	mov	w1, w0
ffffffff80006690:	f9400fe0 	ldr	x0, [sp, #24]
ffffffff80006694:	b9007801 	str	w1, [x0, #120]
ffffffff80006698:	f9400fe0 	ldr	x0, [sp, #24]
ffffffff8000669c:	f9408003 	ldr	x3, [x0, #256]
ffffffff800066a0:	f9401be1 	ldr	x1, [sp, #48]
ffffffff800066a4:	f9400fe0 	ldr	x0, [sp, #24]
ffffffff800066a8:	b9407800 	ldr	w0, [x0, #120]
ffffffff800066ac:	2a0003e0 	mov	w0, w0
ffffffff800066b0:	cb000020 	sub	x0, x1, x0
ffffffff800066b4:	f94017e1 	ldr	x1, [sp, #40]
ffffffff800066b8:	aa0103e2 	mov	x2, x1
ffffffff800066bc:	aa0003e1 	mov	x1, x0
ffffffff800066c0:	f9400fe0 	ldr	x0, [sp, #24]
ffffffff800066c4:	d63f0060 	blr	x3
ffffffff800066c8:	1400028f 	b	ffffffff80007104 <control_sequence_parse+0xfcc>
ffffffff800066cc:	f9400fe0 	ldr	x0, [sp, #24]
ffffffff800066d0:	f940d400 	ldr	x0, [x0, #424]
ffffffff800066d4:	f100001f 	cmp	x0, #0x0
ffffffff800066d8:	54005080 	b.eq	ffffffff800070e8 <control_sequence_parse+0xfb0>  // b.none
ffffffff800066dc:	f9400fe0 	ldr	x0, [sp, #24]
ffffffff800066e0:	f940d405 	ldr	x5, [x0, #424]
ffffffff800066e4:	d2800004 	mov	x4, #0x0                   	// #0
ffffffff800066e8:	d2800003 	mov	x3, #0x0                   	// #0
ffffffff800066ec:	d2800002 	mov	x2, #0x0                   	// #0
ffffffff800066f0:	d28003c1 	mov	x1, #0x1e                  	// #30
ffffffff800066f4:	f9400fe0 	ldr	x0, [sp, #24]
ffffffff800066f8:	d63f00a0 	blr	x5
ffffffff800066fc:	1400027b 	b	ffffffff800070e8 <control_sequence_parse+0xfb0>
ffffffff80006700:	f9400fe0 	ldr	x0, [sp, #24]
ffffffff80006704:	b9407800 	ldr	w0, [x0, #120]
ffffffff80006708:	51000401 	sub	w1, w0, #0x1
ffffffff8000670c:	f9400fe0 	ldr	x0, [sp, #24]
ffffffff80006710:	b9007801 	str	w1, [x0, #120]
ffffffff80006714:	f9400fe0 	ldr	x0, [sp, #24]
ffffffff80006718:	b9407800 	ldr	w0, [x0, #120]
ffffffff8000671c:	2a0003e1 	mov	w1, w0
ffffffff80006720:	f9400fe0 	ldr	x0, [sp, #24]
ffffffff80006724:	f9407000 	ldr	x0, [x0, #224]
ffffffff80006728:	eb00003f 	cmp	x1, x0
ffffffff8000672c:	540000c3 	b.cc	ffffffff80006744 <control_sequence_parse+0x60c>  // b.lo, b.ul, b.last
ffffffff80006730:	f9400fe0 	ldr	x0, [sp, #24]
ffffffff80006734:	f9407000 	ldr	x0, [x0, #224]
ffffffff80006738:	51000401 	sub	w1, w0, #0x1
ffffffff8000673c:	f9400fe0 	ldr	x0, [sp, #24]
ffffffff80006740:	b9007801 	str	w1, [x0, #120]
ffffffff80006744:	f9400fe0 	ldr	x0, [sp, #24]
ffffffff80006748:	f9408003 	ldr	x3, [x0, #256]
ffffffff8000674c:	f9401be1 	ldr	x1, [sp, #48]
ffffffff80006750:	f9400fe0 	ldr	x0, [sp, #24]
ffffffff80006754:	b9407800 	ldr	w0, [x0, #120]
ffffffff80006758:	2a0003e0 	mov	w0, w0
ffffffff8000675c:	aa0003e2 	mov	x2, x0
ffffffff80006760:	f9400fe0 	ldr	x0, [sp, #24]
ffffffff80006764:	d63f0060 	blr	x3
ffffffff80006768:	14000267 	b	ffffffff80007104 <control_sequence_parse+0xfcc>
ffffffff8000676c:	f9400fe0 	ldr	x0, [sp, #24]
ffffffff80006770:	b9407800 	ldr	w0, [x0, #120]
ffffffff80006774:	51000401 	sub	w1, w0, #0x1
ffffffff80006778:	f9400fe0 	ldr	x0, [sp, #24]
ffffffff8000677c:	b9007801 	str	w1, [x0, #120]
ffffffff80006780:	f9400fe0 	ldr	x0, [sp, #24]
ffffffff80006784:	b9407800 	ldr	w0, [x0, #120]
ffffffff80006788:	2a0003e1 	mov	w1, w0
ffffffff8000678c:	f9400fe0 	ldr	x0, [sp, #24]
ffffffff80006790:	f9407400 	ldr	x0, [x0, #232]
ffffffff80006794:	eb00003f 	cmp	x1, x0
ffffffff80006798:	540000c3 	b.cc	ffffffff800067b0 <control_sequence_parse+0x678>  // b.lo, b.ul, b.last
ffffffff8000679c:	f9400fe0 	ldr	x0, [sp, #24]
ffffffff800067a0:	f9407400 	ldr	x0, [x0, #232]
ffffffff800067a4:	51000401 	sub	w1, w0, #0x1
ffffffff800067a8:	f9400fe0 	ldr	x0, [sp, #24]
ffffffff800067ac:	b9007801 	str	w1, [x0, #120]
ffffffff800067b0:	f9400fe0 	ldr	x0, [sp, #24]
ffffffff800067b4:	f9408003 	ldr	x3, [x0, #256]
ffffffff800067b8:	f9400fe0 	ldr	x0, [sp, #24]
ffffffff800067bc:	b9407800 	ldr	w0, [x0, #120]
ffffffff800067c0:	2a0003e0 	mov	w0, w0
ffffffff800067c4:	f94017e1 	ldr	x1, [sp, #40]
ffffffff800067c8:	aa0103e2 	mov	x2, x1
ffffffff800067cc:	aa0003e1 	mov	x1, x0
ffffffff800067d0:	f9400fe0 	ldr	x0, [sp, #24]
ffffffff800067d4:	d63f0060 	blr	x3
ffffffff800067d8:	1400024b 	b	ffffffff80007104 <control_sequence_parse+0xfcc>
ffffffff800067dc:	f9400fe0 	ldr	x0, [sp, #24]
ffffffff800067e0:	b9407800 	ldr	w0, [x0, #120]
ffffffff800067e4:	7100001f 	cmp	w0, #0x0
ffffffff800067e8:	540000c0 	b.eq	ffffffff80006800 <control_sequence_parse+0x6c8>  // b.none
ffffffff800067ec:	f9400fe0 	ldr	x0, [sp, #24]
ffffffff800067f0:	b9407800 	ldr	w0, [x0, #120]
ffffffff800067f4:	51000401 	sub	w1, w0, #0x1
ffffffff800067f8:	f9400fe0 	ldr	x0, [sp, #24]
ffffffff800067fc:	b9007801 	str	w1, [x0, #120]
ffffffff80006800:	f9400fe0 	ldr	x0, [sp, #24]
ffffffff80006804:	b9407c00 	ldr	w0, [x0, #124]
ffffffff80006808:	7100001f 	cmp	w0, #0x0
ffffffff8000680c:	540000c0 	b.eq	ffffffff80006824 <control_sequence_parse+0x6ec>  // b.none
ffffffff80006810:	f9400fe0 	ldr	x0, [sp, #24]
ffffffff80006814:	b9407c00 	ldr	w0, [x0, #124]
ffffffff80006818:	51000401 	sub	w1, w0, #0x1
ffffffff8000681c:	f9400fe0 	ldr	x0, [sp, #24]
ffffffff80006820:	b9007c01 	str	w1, [x0, #124]
ffffffff80006824:	f9400fe0 	ldr	x0, [sp, #24]
ffffffff80006828:	b9407c00 	ldr	w0, [x0, #124]
ffffffff8000682c:	2a0003e1 	mov	w1, w0
ffffffff80006830:	f9400fe0 	ldr	x0, [sp, #24]
ffffffff80006834:	f9407400 	ldr	x0, [x0, #232]
ffffffff80006838:	eb00003f 	cmp	x1, x0
ffffffff8000683c:	540000c3 	b.cc	ffffffff80006854 <control_sequence_parse+0x71c>  // b.lo, b.ul, b.last
ffffffff80006840:	f9400fe0 	ldr	x0, [sp, #24]
ffffffff80006844:	f9407400 	ldr	x0, [x0, #232]
ffffffff80006848:	51000401 	sub	w1, w0, #0x1
ffffffff8000684c:	f9400fe0 	ldr	x0, [sp, #24]
ffffffff80006850:	b9007c01 	str	w1, [x0, #124]
ffffffff80006854:	f9400fe0 	ldr	x0, [sp, #24]
ffffffff80006858:	b9407800 	ldr	w0, [x0, #120]
ffffffff8000685c:	2a0003e1 	mov	w1, w0
ffffffff80006860:	f9400fe0 	ldr	x0, [sp, #24]
ffffffff80006864:	f9407000 	ldr	x0, [x0, #224]
ffffffff80006868:	eb00003f 	cmp	x1, x0
ffffffff8000686c:	540000c3 	b.cc	ffffffff80006884 <control_sequence_parse+0x74c>  // b.lo, b.ul, b.last
ffffffff80006870:	f9400fe0 	ldr	x0, [sp, #24]
ffffffff80006874:	f9407000 	ldr	x0, [x0, #224]
ffffffff80006878:	51000401 	sub	w1, w0, #0x1
ffffffff8000687c:	f9400fe0 	ldr	x0, [sp, #24]
ffffffff80006880:	b9007801 	str	w1, [x0, #120]
ffffffff80006884:	f9400fe0 	ldr	x0, [sp, #24]
ffffffff80006888:	f9408003 	ldr	x3, [x0, #256]
ffffffff8000688c:	f9400fe0 	ldr	x0, [sp, #24]
ffffffff80006890:	b9407c00 	ldr	w0, [x0, #124]
ffffffff80006894:	2a0003e1 	mov	w1, w0
ffffffff80006898:	f9400fe0 	ldr	x0, [sp, #24]
ffffffff8000689c:	b9407800 	ldr	w0, [x0, #120]
ffffffff800068a0:	2a0003e0 	mov	w0, w0
ffffffff800068a4:	aa0003e2 	mov	x2, x0
ffffffff800068a8:	f9400fe0 	ldr	x0, [sp, #24]
ffffffff800068ac:	d63f0060 	blr	x3
ffffffff800068b0:	14000215 	b	ffffffff80007104 <control_sequence_parse+0xfcc>
ffffffff800068b4:	f90067ff 	str	xzr, [sp, #200]
ffffffff800068b8:	14000008 	b	ffffffff800068d8 <control_sequence_parse+0x7a0>
ffffffff800068bc:	f9400fe0 	ldr	x0, [sp, #24]
ffffffff800068c0:	f940b401 	ldr	x1, [x0, #360]
ffffffff800068c4:	f9400fe0 	ldr	x0, [sp, #24]
ffffffff800068c8:	d63f0020 	blr	x1
ffffffff800068cc:	f94067e0 	ldr	x0, [sp, #200]
ffffffff800068d0:	91000400 	add	x0, x0, #0x1
ffffffff800068d4:	f90067e0 	str	x0, [sp, #200]
ffffffff800068d8:	f9400fe0 	ldr	x0, [sp, #24]
ffffffff800068dc:	b9407800 	ldr	w0, [x0, #120]
ffffffff800068e0:	2a0003e0 	mov	w0, w0
ffffffff800068e4:	f94067e1 	ldr	x1, [sp, #200]
ffffffff800068e8:	eb00003f 	cmp	x1, x0
ffffffff800068ec:	54fffe83 	b.cc	ffffffff800068bc <control_sequence_parse+0x784>  // b.lo, b.ul, b.last
ffffffff800068f0:	14000205 	b	ffffffff80007104 <control_sequence_parse+0xfcc>
ffffffff800068f4:	f9400fe0 	ldr	x0, [sp, #24]
ffffffff800068f8:	f9403400 	ldr	x0, [x0, #104]
ffffffff800068fc:	f90033e0 	str	x0, [sp, #96]
ffffffff80006900:	f94017e1 	ldr	x1, [sp, #40]
ffffffff80006904:	f9400fe0 	ldr	x0, [sp, #24]
ffffffff80006908:	f9003401 	str	x1, [x0, #104]
ffffffff8000690c:	f90063ff 	str	xzr, [sp, #192]
ffffffff80006910:	14000008 	b	ffffffff80006930 <control_sequence_parse+0x7f8>
ffffffff80006914:	f9400fe0 	ldr	x0, [sp, #24]
ffffffff80006918:	f940b801 	ldr	x1, [x0, #368]
ffffffff8000691c:	f9400fe0 	ldr	x0, [sp, #24]
ffffffff80006920:	d63f0020 	blr	x1
ffffffff80006924:	f94063e0 	ldr	x0, [sp, #192]
ffffffff80006928:	91000400 	add	x0, x0, #0x1
ffffffff8000692c:	f90063e0 	str	x0, [sp, #192]
ffffffff80006930:	f9400fe0 	ldr	x0, [sp, #24]
ffffffff80006934:	b9407800 	ldr	w0, [x0, #120]
ffffffff80006938:	2a0003e0 	mov	w0, w0
ffffffff8000693c:	f94063e1 	ldr	x1, [sp, #192]
ffffffff80006940:	eb00003f 	cmp	x1, x0
ffffffff80006944:	54fffe83 	b.cc	ffffffff80006914 <control_sequence_parse+0x7dc>  // b.lo, b.ul, b.last
ffffffff80006948:	f9400fe0 	ldr	x0, [sp, #24]
ffffffff8000694c:	f94033e1 	ldr	x1, [sp, #96]
ffffffff80006950:	f9003401 	str	x1, [x0, #104]
ffffffff80006954:	140001ec 	b	ffffffff80007104 <control_sequence_parse+0xfcc>
ffffffff80006958:	f9400fe0 	ldr	x0, [sp, #24]
ffffffff8000695c:	b9407800 	ldr	w0, [x0, #120]
ffffffff80006960:	7100141f 	cmp	w0, #0x5
ffffffff80006964:	54000080 	b.eq	ffffffff80006974 <control_sequence_parse+0x83c>  // b.none
ffffffff80006968:	7100181f 	cmp	w0, #0x6
ffffffff8000696c:	540001e0 	b.eq	ffffffff800069a8 <control_sequence_parse+0x870>  // b.none
ffffffff80006970:	140001e5 	b	ffffffff80007104 <control_sequence_parse+0xfcc>
ffffffff80006974:	f9400fe0 	ldr	x0, [sp, #24]
ffffffff80006978:	f940d400 	ldr	x0, [x0, #424]
ffffffff8000697c:	f100001f 	cmp	x0, #0x0
ffffffff80006980:	54000360 	b.eq	ffffffff800069ec <control_sequence_parse+0x8b4>  // b.none
ffffffff80006984:	f9400fe0 	ldr	x0, [sp, #24]
ffffffff80006988:	f940d405 	ldr	x5, [x0, #424]
ffffffff8000698c:	d2800004 	mov	x4, #0x0                   	// #0
ffffffff80006990:	d2800003 	mov	x3, #0x0                   	// #0
ffffffff80006994:	d2800002 	mov	x2, #0x0                   	// #0
ffffffff80006998:	d2800501 	mov	x1, #0x28                  	// #40
ffffffff8000699c:	f9400fe0 	ldr	x0, [sp, #24]
ffffffff800069a0:	d63f00a0 	blr	x5
ffffffff800069a4:	14000012 	b	ffffffff800069ec <control_sequence_parse+0x8b4>
ffffffff800069a8:	f9400fe0 	ldr	x0, [sp, #24]
ffffffff800069ac:	f940d400 	ldr	x0, [x0, #424]
ffffffff800069b0:	f100001f 	cmp	x0, #0x0
ffffffff800069b4:	54000200 	b.eq	ffffffff800069f4 <control_sequence_parse+0x8bc>  // b.none
ffffffff800069b8:	f9400fe0 	ldr	x0, [sp, #24]
ffffffff800069bc:	f940d405 	ldr	x5, [x0, #424]
ffffffff800069c0:	f9401be0 	ldr	x0, [sp, #48]
ffffffff800069c4:	91000401 	add	x1, x0, #0x1
ffffffff800069c8:	f94017e0 	ldr	x0, [sp, #40]
ffffffff800069cc:	91000400 	add	x0, x0, #0x1
ffffffff800069d0:	d2800004 	mov	x4, #0x0                   	// #0
ffffffff800069d4:	aa0003e3 	mov	x3, x0
ffffffff800069d8:	aa0103e2 	mov	x2, x1
ffffffff800069dc:	d2800641 	mov	x1, #0x32                  	// #50
ffffffff800069e0:	f9400fe0 	ldr	x0, [sp, #24]
ffffffff800069e4:	d63f00a0 	blr	x5
ffffffff800069e8:	14000003 	b	ffffffff800069f4 <control_sequence_parse+0x8bc>
ffffffff800069ec:	d503201f 	nop
ffffffff800069f0:	140001c5 	b	ffffffff80007104 <control_sequence_parse+0xfcc>
ffffffff800069f4:	d503201f 	nop
ffffffff800069f8:	140001c3 	b	ffffffff80007104 <control_sequence_parse+0xfcc>
ffffffff800069fc:	f9400fe0 	ldr	x0, [sp, #24]
ffffffff80006a00:	f940d400 	ldr	x0, [x0, #424]
ffffffff80006a04:	f100001f 	cmp	x0, #0x0
ffffffff80006a08:	54003740 	b.eq	ffffffff800070f0 <control_sequence_parse+0xfb8>  // b.none
ffffffff80006a0c:	f9400fe0 	ldr	x0, [sp, #24]
ffffffff80006a10:	f940d405 	ldr	x5, [x0, #424]
ffffffff80006a14:	f9400fe0 	ldr	x0, [sp, #24]
ffffffff80006a18:	b9407800 	ldr	w0, [x0, #120]
ffffffff80006a1c:	2a0003e0 	mov	w0, w0
ffffffff80006a20:	d2800004 	mov	x4, #0x0                   	// #0
ffffffff80006a24:	d2800003 	mov	x3, #0x0                   	// #0
ffffffff80006a28:	aa0003e2 	mov	x2, x0
ffffffff80006a2c:	d2800781 	mov	x1, #0x3c                  	// #60
ffffffff80006a30:	f9400fe0 	ldr	x0, [sp, #24]
ffffffff80006a34:	d63f00a0 	blr	x5
ffffffff80006a38:	140001ae 	b	ffffffff800070f0 <control_sequence_parse+0xfb8>
ffffffff80006a3c:	f9400fe0 	ldr	x0, [sp, #24]
ffffffff80006a40:	b9407800 	ldr	w0, [x0, #120]
ffffffff80006a44:	71000c1f 	cmp	w0, #0x3
ffffffff80006a48:	54003588 	b.hi	ffffffff800070f8 <control_sequence_parse+0xfc0>  // b.pmore
ffffffff80006a4c:	7100081f 	cmp	w0, #0x2
ffffffff80006a50:	54000d62 	b.cs	ffffffff80006bfc <control_sequence_parse+0xac4>  // b.hs, b.nlast
ffffffff80006a54:	7100001f 	cmp	w0, #0x0
ffffffff80006a58:	54000080 	b.eq	ffffffff80006a68 <control_sequence_parse+0x930>  // b.none
ffffffff80006a5c:	7100041f 	cmp	w0, #0x1
ffffffff80006a60:	540005a0 	b.eq	ffffffff80006b14 <control_sequence_parse+0x9dc>  // b.none
ffffffff80006a64:	140001a5 	b	ffffffff800070f8 <control_sequence_parse+0xfc0>
ffffffff80006a68:	f9400fe0 	ldr	x0, [sp, #24]
ffffffff80006a6c:	f9407001 	ldr	x1, [x0, #224]
ffffffff80006a70:	f94017e0 	ldr	x0, [sp, #40]
ffffffff80006a74:	cb000020 	sub	x0, x1, x0
ffffffff80006a78:	d1000400 	sub	x0, x0, #0x1
ffffffff80006a7c:	f9002fe0 	str	x0, [sp, #88]
ffffffff80006a80:	f9400fe0 	ldr	x0, [sp, #24]
ffffffff80006a84:	f9407401 	ldr	x1, [x0, #232]
ffffffff80006a88:	f9401be0 	ldr	x0, [sp, #48]
ffffffff80006a8c:	cb000020 	sub	x0, x1, x0
ffffffff80006a90:	d1000400 	sub	x0, x0, #0x1
ffffffff80006a94:	f9002be0 	str	x0, [sp, #80]
ffffffff80006a98:	f9400fe0 	ldr	x0, [sp, #24]
ffffffff80006a9c:	f9407401 	ldr	x1, [x0, #232]
ffffffff80006aa0:	f9402fe0 	ldr	x0, [sp, #88]
ffffffff80006aa4:	9b007c21 	mul	x1, x1, x0
ffffffff80006aa8:	f9402be0 	ldr	x0, [sp, #80]
ffffffff80006aac:	8b000020 	add	x0, x1, x0
ffffffff80006ab0:	91000400 	add	x0, x0, #0x1
ffffffff80006ab4:	f90027e0 	str	x0, [sp, #72]
ffffffff80006ab8:	f9005fff 	str	xzr, [sp, #184]
ffffffff80006abc:	14000009 	b	ffffffff80006ae0 <control_sequence_parse+0x9a8>
ffffffff80006ac0:	f9400fe0 	ldr	x0, [sp, #24]
ffffffff80006ac4:	f9407802 	ldr	x2, [x0, #240]
ffffffff80006ac8:	52800401 	mov	w1, #0x20                  	// #32
ffffffff80006acc:	f9400fe0 	ldr	x0, [sp, #24]
ffffffff80006ad0:	d63f0040 	blr	x2
ffffffff80006ad4:	f9405fe0 	ldr	x0, [sp, #184]
ffffffff80006ad8:	91000400 	add	x0, x0, #0x1
ffffffff80006adc:	f9005fe0 	str	x0, [sp, #184]
ffffffff80006ae0:	f9405fe1 	ldr	x1, [sp, #184]
ffffffff80006ae4:	f94027e0 	ldr	x0, [sp, #72]
ffffffff80006ae8:	eb00003f 	cmp	x1, x0
ffffffff80006aec:	54fffea3 	b.cc	ffffffff80006ac0 <control_sequence_parse+0x988>  // b.lo, b.ul, b.last
ffffffff80006af0:	f9400fe0 	ldr	x0, [sp, #24]
ffffffff80006af4:	f9408003 	ldr	x3, [x0, #256]
ffffffff80006af8:	f9401be0 	ldr	x0, [sp, #48]
ffffffff80006afc:	f94017e1 	ldr	x1, [sp, #40]
ffffffff80006b00:	aa0103e2 	mov	x2, x1
ffffffff80006b04:	aa0003e1 	mov	x1, x0
ffffffff80006b08:	f9400fe0 	ldr	x0, [sp, #24]
ffffffff80006b0c:	d63f0060 	blr	x3
ffffffff80006b10:	14000041 	b	ffffffff80006c14 <control_sequence_parse+0xadc>
ffffffff80006b14:	f9400fe0 	ldr	x0, [sp, #24]
ffffffff80006b18:	f9408003 	ldr	x3, [x0, #256]
ffffffff80006b1c:	d2800002 	mov	x2, #0x0                   	// #0
ffffffff80006b20:	d2800001 	mov	x1, #0x0                   	// #0
ffffffff80006b24:	f9400fe0 	ldr	x0, [sp, #24]
ffffffff80006b28:	d63f0060 	blr	x3
ffffffff80006b2c:	3902dfff 	strb	wzr, [sp, #183]
ffffffff80006b30:	f90057ff 	str	xzr, [sp, #168]
ffffffff80006b34:	1400002a 	b	ffffffff80006bdc <control_sequence_parse+0xaa4>
ffffffff80006b38:	f90053ff 	str	xzr, [sp, #160]
ffffffff80006b3c:	1400001c 	b	ffffffff80006bac <control_sequence_parse+0xa74>
ffffffff80006b40:	f9400fe0 	ldr	x0, [sp, #24]
ffffffff80006b44:	f9407802 	ldr	x2, [x0, #240]
ffffffff80006b48:	52800401 	mov	w1, #0x20                  	// #32
ffffffff80006b4c:	f9400fe0 	ldr	x0, [sp, #24]
ffffffff80006b50:	d63f0040 	blr	x2
ffffffff80006b54:	f9401be0 	ldr	x0, [sp, #48]
ffffffff80006b58:	f94053e1 	ldr	x1, [sp, #160]
ffffffff80006b5c:	eb00003f 	cmp	x1, x0
ffffffff80006b60:	54000201 	b.ne	ffffffff80006ba0 <control_sequence_parse+0xa68>  // b.any
ffffffff80006b64:	f94017e0 	ldr	x0, [sp, #40]
ffffffff80006b68:	f94057e1 	ldr	x1, [sp, #168]
ffffffff80006b6c:	eb00003f 	cmp	x1, x0
ffffffff80006b70:	54000181 	b.ne	ffffffff80006ba0 <control_sequence_parse+0xa68>  // b.any
ffffffff80006b74:	f9400fe0 	ldr	x0, [sp, #24]
ffffffff80006b78:	f9408003 	ldr	x3, [x0, #256]
ffffffff80006b7c:	f9401be0 	ldr	x0, [sp, #48]
ffffffff80006b80:	f94017e1 	ldr	x1, [sp, #40]
ffffffff80006b84:	aa0103e2 	mov	x2, x1
ffffffff80006b88:	aa0003e1 	mov	x1, x0
ffffffff80006b8c:	f9400fe0 	ldr	x0, [sp, #24]
ffffffff80006b90:	d63f0060 	blr	x3
ffffffff80006b94:	52800020 	mov	w0, #0x1                   	// #1
ffffffff80006b98:	3902dfe0 	strb	w0, [sp, #183]
ffffffff80006b9c:	14000009 	b	ffffffff80006bc0 <control_sequence_parse+0xa88>
ffffffff80006ba0:	f94053e0 	ldr	x0, [sp, #160]
ffffffff80006ba4:	91000400 	add	x0, x0, #0x1
ffffffff80006ba8:	f90053e0 	str	x0, [sp, #160]
ffffffff80006bac:	f9400fe0 	ldr	x0, [sp, #24]
ffffffff80006bb0:	f9407400 	ldr	x0, [x0, #232]
ffffffff80006bb4:	f94053e1 	ldr	x1, [sp, #160]
ffffffff80006bb8:	eb00003f 	cmp	x1, x0
ffffffff80006bbc:	54fffc23 	b.cc	ffffffff80006b40 <control_sequence_parse+0xa08>  // b.lo, b.ul, b.last
ffffffff80006bc0:	3942dfe0 	ldrb	w0, [sp, #183]
ffffffff80006bc4:	12000000 	and	w0, w0, #0x1
ffffffff80006bc8:	7100001f 	cmp	w0, #0x0
ffffffff80006bcc:	54000141 	b.ne	ffffffff80006bf4 <control_sequence_parse+0xabc>  // b.any
ffffffff80006bd0:	f94057e0 	ldr	x0, [sp, #168]
ffffffff80006bd4:	91000400 	add	x0, x0, #0x1
ffffffff80006bd8:	f90057e0 	str	x0, [sp, #168]
ffffffff80006bdc:	f9400fe0 	ldr	x0, [sp, #24]
ffffffff80006be0:	f9407000 	ldr	x0, [x0, #224]
ffffffff80006be4:	f94057e1 	ldr	x1, [sp, #168]
ffffffff80006be8:	eb00003f 	cmp	x1, x0
ffffffff80006bec:	54fffa63 	b.cc	ffffffff80006b38 <control_sequence_parse+0xa00>  // b.lo, b.ul, b.last
ffffffff80006bf0:	14000009 	b	ffffffff80006c14 <control_sequence_parse+0xadc>
ffffffff80006bf4:	d503201f 	nop
ffffffff80006bf8:	14000007 	b	ffffffff80006c14 <control_sequence_parse+0xadc>
ffffffff80006bfc:	f9400fe0 	ldr	x0, [sp, #24]
ffffffff80006c00:	f9407c02 	ldr	x2, [x0, #248]
ffffffff80006c04:	52800001 	mov	w1, #0x0                   	// #0
ffffffff80006c08:	f9400fe0 	ldr	x0, [sp, #24]
ffffffff80006c0c:	d63f0040 	blr	x2
ffffffff80006c10:	d503201f 	nop
ffffffff80006c14:	14000139 	b	ffffffff800070f8 <control_sequence_parse+0xfc0>
ffffffff80006c18:	f9400fe0 	ldr	x0, [sp, #24]
ffffffff80006c1c:	f9407400 	ldr	x0, [x0, #232]
ffffffff80006c20:	d1000400 	sub	x0, x0, #0x1
ffffffff80006c24:	f9004fe0 	str	x0, [sp, #152]
ffffffff80006c28:	f9400fe0 	ldr	x0, [sp, #24]
ffffffff80006c2c:	f940b005 	ldr	x5, [x0, #352]
ffffffff80006c30:	f9400fe0 	ldr	x0, [sp, #24]
ffffffff80006c34:	b9407800 	ldr	w0, [x0, #120]
ffffffff80006c38:	2a0003e1 	mov	w1, w0
ffffffff80006c3c:	f9404fe0 	ldr	x0, [sp, #152]
ffffffff80006c40:	8b000020 	add	x0, x1, x0
ffffffff80006c44:	f94017e1 	ldr	x1, [sp, #40]
ffffffff80006c48:	f94017e2 	ldr	x2, [sp, #40]
ffffffff80006c4c:	aa0203e4 	mov	x4, x2
ffffffff80006c50:	f9404fe3 	ldr	x3, [sp, #152]
ffffffff80006c54:	aa0103e2 	mov	x2, x1
ffffffff80006c58:	aa0003e1 	mov	x1, x0
ffffffff80006c5c:	f9400fe0 	ldr	x0, [sp, #24]
ffffffff80006c60:	d63f00a0 	blr	x5
ffffffff80006c64:	f9400fe0 	ldr	x0, [sp, #24]
ffffffff80006c68:	f9408003 	ldr	x3, [x0, #256]
ffffffff80006c6c:	f94017e0 	ldr	x0, [sp, #40]
ffffffff80006c70:	aa0003e2 	mov	x2, x0
ffffffff80006c74:	f9404fe1 	ldr	x1, [sp, #152]
ffffffff80006c78:	f9400fe0 	ldr	x0, [sp, #24]
ffffffff80006c7c:	d63f0060 	blr	x3
ffffffff80006c80:	f9400fe0 	ldr	x0, [sp, #24]
ffffffff80006c84:	f9407802 	ldr	x2, [x0, #240]
ffffffff80006c88:	52800401 	mov	w1, #0x20                  	// #32
ffffffff80006c8c:	f9400fe0 	ldr	x0, [sp, #24]
ffffffff80006c90:	d63f0040 	blr	x2
ffffffff80006c94:	f9401be0 	ldr	x0, [sp, #48]
ffffffff80006c98:	f9404fe1 	ldr	x1, [sp, #152]
ffffffff80006c9c:	eb00003f 	cmp	x1, x0
ffffffff80006ca0:	540000a0 	b.eq	ffffffff80006cb4 <control_sequence_parse+0xb7c>  // b.none
ffffffff80006ca4:	f9404fe0 	ldr	x0, [sp, #152]
ffffffff80006ca8:	d1000400 	sub	x0, x0, #0x1
ffffffff80006cac:	f9004fe0 	str	x0, [sp, #152]
ffffffff80006cb0:	17ffffde 	b	ffffffff80006c28 <control_sequence_parse+0xaf0>
ffffffff80006cb4:	d503201f 	nop
ffffffff80006cb8:	f9400fe0 	ldr	x0, [sp, #24]
ffffffff80006cbc:	f9408003 	ldr	x3, [x0, #256]
ffffffff80006cc0:	f9401be0 	ldr	x0, [sp, #48]
ffffffff80006cc4:	f94017e1 	ldr	x1, [sp, #40]
ffffffff80006cc8:	aa0103e2 	mov	x2, x1
ffffffff80006ccc:	aa0003e1 	mov	x1, x0
ffffffff80006cd0:	f9400fe0 	ldr	x0, [sp, #24]
ffffffff80006cd4:	d63f0060 	blr	x3
ffffffff80006cd8:	1400010b 	b	ffffffff80007104 <control_sequence_parse+0xfcc>
ffffffff80006cdc:	f9400fe0 	ldr	x0, [sp, #24]
ffffffff80006ce0:	b9407800 	ldr	w0, [x0, #120]
ffffffff80006ce4:	2a0003e1 	mov	w1, w0
ffffffff80006ce8:	f9401be0 	ldr	x0, [sp, #48]
ffffffff80006cec:	8b000020 	add	x0, x1, x0
ffffffff80006cf0:	f9004be0 	str	x0, [sp, #144]
ffffffff80006cf4:	14000013 	b	ffffffff80006d40 <control_sequence_parse+0xc08>
ffffffff80006cf8:	f9400fe0 	ldr	x0, [sp, #24]
ffffffff80006cfc:	f940b005 	ldr	x5, [x0, #352]
ffffffff80006d00:	f9400fe0 	ldr	x0, [sp, #24]
ffffffff80006d04:	b9407800 	ldr	w0, [x0, #120]
ffffffff80006d08:	2a0003e0 	mov	w0, w0
ffffffff80006d0c:	f9404be1 	ldr	x1, [sp, #144]
ffffffff80006d10:	cb000020 	sub	x0, x1, x0
ffffffff80006d14:	f94017e1 	ldr	x1, [sp, #40]
ffffffff80006d18:	f94017e2 	ldr	x2, [sp, #40]
ffffffff80006d1c:	aa0203e4 	mov	x4, x2
ffffffff80006d20:	f9404be3 	ldr	x3, [sp, #144]
ffffffff80006d24:	aa0103e2 	mov	x2, x1
ffffffff80006d28:	aa0003e1 	mov	x1, x0
ffffffff80006d2c:	f9400fe0 	ldr	x0, [sp, #24]
ffffffff80006d30:	d63f00a0 	blr	x5
ffffffff80006d34:	f9404be0 	ldr	x0, [sp, #144]
ffffffff80006d38:	91000400 	add	x0, x0, #0x1
ffffffff80006d3c:	f9004be0 	str	x0, [sp, #144]
ffffffff80006d40:	f9400fe0 	ldr	x0, [sp, #24]
ffffffff80006d44:	f9407400 	ldr	x0, [x0, #232]
ffffffff80006d48:	f9404be1 	ldr	x1, [sp, #144]
ffffffff80006d4c:	eb00003f 	cmp	x1, x0
ffffffff80006d50:	54fffd43 	b.cc	ffffffff80006cf8 <control_sequence_parse+0xbc0>  // b.lo, b.ul, b.last
ffffffff80006d54:	f9400fe0 	ldr	x0, [sp, #24]
ffffffff80006d58:	f9408003 	ldr	x3, [x0, #256]
ffffffff80006d5c:	f9400fe0 	ldr	x0, [sp, #24]
ffffffff80006d60:	f9407401 	ldr	x1, [x0, #232]
ffffffff80006d64:	f9400fe0 	ldr	x0, [sp, #24]
ffffffff80006d68:	b9407800 	ldr	w0, [x0, #120]
ffffffff80006d6c:	2a0003e0 	mov	w0, w0
ffffffff80006d70:	cb000020 	sub	x0, x1, x0
ffffffff80006d74:	f94017e1 	ldr	x1, [sp, #40]
ffffffff80006d78:	aa0103e2 	mov	x2, x1
ffffffff80006d7c:	aa0003e1 	mov	x1, x0
ffffffff80006d80:	f9400fe0 	ldr	x0, [sp, #24]
ffffffff80006d84:	d63f0060 	blr	x3
ffffffff80006d88:	f90047ff 	str	xzr, [sp, #136]
ffffffff80006d8c:	14000009 	b	ffffffff80006db0 <control_sequence_parse+0xc78>
ffffffff80006d90:	f9400fe0 	ldr	x0, [sp, #24]
ffffffff80006d94:	f9407802 	ldr	x2, [x0, #240]
ffffffff80006d98:	52800401 	mov	w1, #0x20                  	// #32
ffffffff80006d9c:	f9400fe0 	ldr	x0, [sp, #24]
ffffffff80006da0:	d63f0040 	blr	x2
ffffffff80006da4:	f94047e0 	ldr	x0, [sp, #136]
ffffffff80006da8:	91000400 	add	x0, x0, #0x1
ffffffff80006dac:	f90047e0 	str	x0, [sp, #136]
ffffffff80006db0:	f9400fe0 	ldr	x0, [sp, #24]
ffffffff80006db4:	b9407800 	ldr	w0, [x0, #120]
ffffffff80006db8:	2a0003e0 	mov	w0, w0
ffffffff80006dbc:	f94047e1 	ldr	x1, [sp, #136]
ffffffff80006dc0:	eb00003f 	cmp	x1, x0
ffffffff80006dc4:	54fffe63 	b.cc	ffffffff80006d90 <control_sequence_parse+0xc58>  // b.lo, b.ul, b.last
ffffffff80006dc8:	f9400fe0 	ldr	x0, [sp, #24]
ffffffff80006dcc:	f9408003 	ldr	x3, [x0, #256]
ffffffff80006dd0:	f9401be0 	ldr	x0, [sp, #48]
ffffffff80006dd4:	f94017e1 	ldr	x1, [sp, #40]
ffffffff80006dd8:	aa0103e2 	mov	x2, x1
ffffffff80006ddc:	aa0003e1 	mov	x1, x0
ffffffff80006de0:	f9400fe0 	ldr	x0, [sp, #24]
ffffffff80006de4:	d63f0060 	blr	x3
ffffffff80006de8:	140000c7 	b	ffffffff80007104 <control_sequence_parse+0xfcc>
ffffffff80006dec:	f9400fe0 	ldr	x0, [sp, #24]
ffffffff80006df0:	97fff8b9 	bl	ffffffff800050d4 <sgr>
ffffffff80006df4:	140000c4 	b	ffffffff80007104 <control_sequence_parse+0xfcc>
ffffffff80006df8:	f9400fe0 	ldr	x0, [sp, #24]
ffffffff80006dfc:	f9408403 	ldr	x3, [x0, #264]
ffffffff80006e00:	f9400fe0 	ldr	x0, [sp, #24]
ffffffff80006e04:	91012001 	add	x1, x0, #0x48
ffffffff80006e08:	f9400fe0 	ldr	x0, [sp, #24]
ffffffff80006e0c:	91014000 	add	x0, x0, #0x50
ffffffff80006e10:	aa0003e2 	mov	x2, x0
ffffffff80006e14:	f9400fe0 	ldr	x0, [sp, #24]
ffffffff80006e18:	d63f0060 	blr	x3
ffffffff80006e1c:	140000ba 	b	ffffffff80007104 <control_sequence_parse+0xfcc>
ffffffff80006e20:	f9400fe0 	ldr	x0, [sp, #24]
ffffffff80006e24:	f9408003 	ldr	x3, [x0, #256]
ffffffff80006e28:	f9400fe0 	ldr	x0, [sp, #24]
ffffffff80006e2c:	f9402401 	ldr	x1, [x0, #72]
ffffffff80006e30:	f9400fe0 	ldr	x0, [sp, #24]
ffffffff80006e34:	f9402800 	ldr	x0, [x0, #80]
ffffffff80006e38:	aa0003e2 	mov	x2, x0
ffffffff80006e3c:	f9400fe0 	ldr	x0, [sp, #24]
ffffffff80006e40:	d63f0060 	blr	x3
ffffffff80006e44:	140000b0 	b	ffffffff80007104 <control_sequence_parse+0xfcc>
ffffffff80006e48:	f9400fe0 	ldr	x0, [sp, #24]
ffffffff80006e4c:	b9407800 	ldr	w0, [x0, #120]
ffffffff80006e50:	7100081f 	cmp	w0, #0x2
ffffffff80006e54:	540006e0 	b.eq	ffffffff80006f30 <control_sequence_parse+0xdf8>  // b.none
ffffffff80006e58:	7100081f 	cmp	w0, #0x2
ffffffff80006e5c:	54001528 	b.hi	ffffffff80007100 <control_sequence_parse+0xfc8>  // b.pmore
ffffffff80006e60:	7100001f 	cmp	w0, #0x0
ffffffff80006e64:	54000080 	b.eq	ffffffff80006e74 <control_sequence_parse+0xd3c>  // b.none
ffffffff80006e68:	7100041f 	cmp	w0, #0x1
ffffffff80006e6c:	54000360 	b.eq	ffffffff80006ed8 <control_sequence_parse+0xda0>  // b.none
ffffffff80006e70:	140000a4 	b	ffffffff80007100 <control_sequence_parse+0xfc8>
ffffffff80006e74:	f9401be0 	ldr	x0, [sp, #48]
ffffffff80006e78:	f90043e0 	str	x0, [sp, #128]
ffffffff80006e7c:	14000009 	b	ffffffff80006ea0 <control_sequence_parse+0xd68>
ffffffff80006e80:	f9400fe0 	ldr	x0, [sp, #24]
ffffffff80006e84:	f9407802 	ldr	x2, [x0, #240]
ffffffff80006e88:	52800401 	mov	w1, #0x20                  	// #32
ffffffff80006e8c:	f9400fe0 	ldr	x0, [sp, #24]
ffffffff80006e90:	d63f0040 	blr	x2
ffffffff80006e94:	f94043e0 	ldr	x0, [sp, #128]
ffffffff80006e98:	91000400 	add	x0, x0, #0x1
ffffffff80006e9c:	f90043e0 	str	x0, [sp, #128]
ffffffff80006ea0:	f9400fe0 	ldr	x0, [sp, #24]
ffffffff80006ea4:	f9407400 	ldr	x0, [x0, #232]
ffffffff80006ea8:	f94043e1 	ldr	x1, [sp, #128]
ffffffff80006eac:	eb00003f 	cmp	x1, x0
ffffffff80006eb0:	54fffe83 	b.cc	ffffffff80006e80 <control_sequence_parse+0xd48>  // b.lo, b.ul, b.last
ffffffff80006eb4:	f9400fe0 	ldr	x0, [sp, #24]
ffffffff80006eb8:	f9408003 	ldr	x3, [x0, #256]
ffffffff80006ebc:	f9401be0 	ldr	x0, [sp, #48]
ffffffff80006ec0:	f94017e1 	ldr	x1, [sp, #40]
ffffffff80006ec4:	aa0103e2 	mov	x2, x1
ffffffff80006ec8:	aa0003e1 	mov	x1, x0
ffffffff80006ecc:	f9400fe0 	ldr	x0, [sp, #24]
ffffffff80006ed0:	d63f0060 	blr	x3
ffffffff80006ed4:	14000036 	b	ffffffff80006fac <control_sequence_parse+0xe74>
ffffffff80006ed8:	f9400fe0 	ldr	x0, [sp, #24]
ffffffff80006edc:	f9408003 	ldr	x3, [x0, #256]
ffffffff80006ee0:	f94017e0 	ldr	x0, [sp, #40]
ffffffff80006ee4:	aa0003e2 	mov	x2, x0
ffffffff80006ee8:	d2800001 	mov	x1, #0x0                   	// #0
ffffffff80006eec:	f9400fe0 	ldr	x0, [sp, #24]
ffffffff80006ef0:	d63f0060 	blr	x3
ffffffff80006ef4:	f9003fff 	str	xzr, [sp, #120]
ffffffff80006ef8:	14000009 	b	ffffffff80006f1c <control_sequence_parse+0xde4>
ffffffff80006efc:	f9400fe0 	ldr	x0, [sp, #24]
ffffffff80006f00:	f9407802 	ldr	x2, [x0, #240]
ffffffff80006f04:	52800401 	mov	w1, #0x20                  	// #32
ffffffff80006f08:	f9400fe0 	ldr	x0, [sp, #24]
ffffffff80006f0c:	d63f0040 	blr	x2
ffffffff80006f10:	f9403fe0 	ldr	x0, [sp, #120]
ffffffff80006f14:	91000400 	add	x0, x0, #0x1
ffffffff80006f18:	f9003fe0 	str	x0, [sp, #120]
ffffffff80006f1c:	f9401be0 	ldr	x0, [sp, #48]
ffffffff80006f20:	f9403fe1 	ldr	x1, [sp, #120]
ffffffff80006f24:	eb00003f 	cmp	x1, x0
ffffffff80006f28:	54fffea3 	b.cc	ffffffff80006efc <control_sequence_parse+0xdc4>  // b.lo, b.ul, b.last
ffffffff80006f2c:	14000020 	b	ffffffff80006fac <control_sequence_parse+0xe74>
ffffffff80006f30:	f9400fe0 	ldr	x0, [sp, #24]
ffffffff80006f34:	f9408003 	ldr	x3, [x0, #256]
ffffffff80006f38:	f94017e0 	ldr	x0, [sp, #40]
ffffffff80006f3c:	aa0003e2 	mov	x2, x0
ffffffff80006f40:	d2800001 	mov	x1, #0x0                   	// #0
ffffffff80006f44:	f9400fe0 	ldr	x0, [sp, #24]
ffffffff80006f48:	d63f0060 	blr	x3
ffffffff80006f4c:	f9003bff 	str	xzr, [sp, #112]
ffffffff80006f50:	14000009 	b	ffffffff80006f74 <control_sequence_parse+0xe3c>
ffffffff80006f54:	f9400fe0 	ldr	x0, [sp, #24]
ffffffff80006f58:	f9407802 	ldr	x2, [x0, #240]
ffffffff80006f5c:	52800401 	mov	w1, #0x20                  	// #32
ffffffff80006f60:	f9400fe0 	ldr	x0, [sp, #24]
ffffffff80006f64:	d63f0040 	blr	x2
ffffffff80006f68:	f9403be0 	ldr	x0, [sp, #112]
ffffffff80006f6c:	91000400 	add	x0, x0, #0x1
ffffffff80006f70:	f9003be0 	str	x0, [sp, #112]
ffffffff80006f74:	f9400fe0 	ldr	x0, [sp, #24]
ffffffff80006f78:	f9407400 	ldr	x0, [x0, #232]
ffffffff80006f7c:	f9403be1 	ldr	x1, [sp, #112]
ffffffff80006f80:	eb00003f 	cmp	x1, x0
ffffffff80006f84:	54fffe83 	b.cc	ffffffff80006f54 <control_sequence_parse+0xe1c>  // b.lo, b.ul, b.last
ffffffff80006f88:	f9400fe0 	ldr	x0, [sp, #24]
ffffffff80006f8c:	f9408003 	ldr	x3, [x0, #256]
ffffffff80006f90:	f9401be0 	ldr	x0, [sp, #48]
ffffffff80006f94:	f94017e1 	ldr	x1, [sp, #40]
ffffffff80006f98:	aa0103e2 	mov	x2, x1
ffffffff80006f9c:	aa0003e1 	mov	x1, x0
ffffffff80006fa0:	f9400fe0 	ldr	x0, [sp, #24]
ffffffff80006fa4:	d63f0060 	blr	x3
ffffffff80006fa8:	d503201f 	nop
ffffffff80006fac:	14000055 	b	ffffffff80007100 <control_sequence_parse+0xfc8>
ffffffff80006fb0:	f9400fe0 	ldr	x0, [sp, #24]
ffffffff80006fb4:	b9407800 	ldr	w0, [x0, #120]
ffffffff80006fb8:	7100001f 	cmp	w0, #0x0
ffffffff80006fbc:	54000081 	b.ne	ffffffff80006fcc <control_sequence_parse+0xe94>  // b.any
ffffffff80006fc0:	f9400fe0 	ldr	x0, [sp, #24]
ffffffff80006fc4:	52800021 	mov	w1, #0x1                   	// #1
ffffffff80006fc8:	b9007801 	str	w1, [x0, #120]
ffffffff80006fcc:	f9400fe0 	ldr	x0, [sp, #24]
ffffffff80006fd0:	b9407c00 	ldr	w0, [x0, #124]
ffffffff80006fd4:	7100001f 	cmp	w0, #0x0
ffffffff80006fd8:	54000081 	b.ne	ffffffff80006fe8 <control_sequence_parse+0xeb0>  // b.any
ffffffff80006fdc:	f9400fe0 	ldr	x0, [sp, #24]
ffffffff80006fe0:	52800021 	mov	w1, #0x1                   	// #1
ffffffff80006fe4:	b9007c01 	str	w1, [x0, #124]
ffffffff80006fe8:	f9400fe0 	ldr	x0, [sp, #24]
ffffffff80006fec:	f900341f 	str	xzr, [x0, #104]
ffffffff80006ff0:	f9400fe0 	ldr	x0, [sp, #24]
ffffffff80006ff4:	f9407001 	ldr	x1, [x0, #224]
ffffffff80006ff8:	f9400fe0 	ldr	x0, [sp, #24]
ffffffff80006ffc:	f9003801 	str	x1, [x0, #112]
ffffffff80007000:	f9400fe0 	ldr	x0, [sp, #24]
ffffffff80007004:	f9402000 	ldr	x0, [x0, #64]
ffffffff80007008:	f100001f 	cmp	x0, #0x0
ffffffff8000700c:	540000e0 	b.eq	ffffffff80007028 <control_sequence_parse+0xef0>  // b.none
ffffffff80007010:	f9400fe0 	ldr	x0, [sp, #24]
ffffffff80007014:	b9407800 	ldr	w0, [x0, #120]
ffffffff80007018:	51000400 	sub	w0, w0, #0x1
ffffffff8000701c:	2a0003e1 	mov	w1, w0
ffffffff80007020:	f9400fe0 	ldr	x0, [sp, #24]
ffffffff80007024:	f9003401 	str	x1, [x0, #104]
ffffffff80007028:	f9400fe0 	ldr	x0, [sp, #24]
ffffffff8000702c:	f9402000 	ldr	x0, [x0, #64]
ffffffff80007030:	f100041f 	cmp	x0, #0x1
ffffffff80007034:	540000c9 	b.ls	ffffffff8000704c <control_sequence_parse+0xf14>  // b.plast
ffffffff80007038:	f9400fe0 	ldr	x0, [sp, #24]
ffffffff8000703c:	b9407c00 	ldr	w0, [x0, #124]
ffffffff80007040:	2a0003e1 	mov	w1, w0
ffffffff80007044:	f9400fe0 	ldr	x0, [sp, #24]
ffffffff80007048:	f9003801 	str	x1, [x0, #112]
ffffffff8000704c:	f9400fe0 	ldr	x0, [sp, #24]
ffffffff80007050:	f9403401 	ldr	x1, [x0, #104]
ffffffff80007054:	f9400fe0 	ldr	x0, [sp, #24]
ffffffff80007058:	f9407000 	ldr	x0, [x0, #224]
ffffffff8000705c:	eb00003f 	cmp	x1, x0
ffffffff80007060:	540001c2 	b.cs	ffffffff80007098 <control_sequence_parse+0xf60>  // b.hs, b.nlast
ffffffff80007064:	f9400fe0 	ldr	x0, [sp, #24]
ffffffff80007068:	f9403801 	ldr	x1, [x0, #112]
ffffffff8000706c:	f9400fe0 	ldr	x0, [sp, #24]
ffffffff80007070:	f9407000 	ldr	x0, [x0, #224]
ffffffff80007074:	eb00003f 	cmp	x1, x0
ffffffff80007078:	54000108 	b.hi	ffffffff80007098 <control_sequence_parse+0xf60>  // b.pmore
ffffffff8000707c:	f9400fe0 	ldr	x0, [sp, #24]
ffffffff80007080:	f9403401 	ldr	x1, [x0, #104]
ffffffff80007084:	f9400fe0 	ldr	x0, [sp, #24]
ffffffff80007088:	f9403800 	ldr	x0, [x0, #112]
ffffffff8000708c:	d1000400 	sub	x0, x0, #0x1
ffffffff80007090:	eb00003f 	cmp	x1, x0
ffffffff80007094:	540000e3 	b.cc	ffffffff800070b0 <control_sequence_parse+0xf78>  // b.lo, b.ul, b.last
ffffffff80007098:	f9400fe0 	ldr	x0, [sp, #24]
ffffffff8000709c:	f900341f 	str	xzr, [x0, #104]
ffffffff800070a0:	f9400fe0 	ldr	x0, [sp, #24]
ffffffff800070a4:	f9407001 	ldr	x1, [x0, #224]
ffffffff800070a8:	f9400fe0 	ldr	x0, [sp, #24]
ffffffff800070ac:	f9003801 	str	x1, [x0, #112]
ffffffff800070b0:	f9400fe0 	ldr	x0, [sp, #24]
ffffffff800070b4:	f9408003 	ldr	x3, [x0, #256]
ffffffff800070b8:	d2800002 	mov	x2, #0x0                   	// #0
ffffffff800070bc:	d2800001 	mov	x1, #0x0                   	// #0
ffffffff800070c0:	f9400fe0 	ldr	x0, [sp, #24]
ffffffff800070c4:	d63f0060 	blr	x3
ffffffff800070c8:	1400000f 	b	ffffffff80007104 <control_sequence_parse+0xfcc>
ffffffff800070cc:	39405fe1 	ldrb	w1, [sp, #23]
ffffffff800070d0:	f9400fe0 	ldr	x0, [sp, #24]
ffffffff800070d4:	97fffbc4 	bl	ffffffff80005fe4 <mode_toggle>
ffffffff800070d8:	1400000b 	b	ffffffff80007104 <control_sequence_parse+0xfcc>
ffffffff800070dc:	f9400fe0 	ldr	x0, [sp, #24]
ffffffff800070e0:	97fffba6 	bl	ffffffff80005f78 <linux_private_parse>
ffffffff800070e4:	14000008 	b	ffffffff80007104 <control_sequence_parse+0xfcc>
ffffffff800070e8:	d503201f 	nop
ffffffff800070ec:	14000006 	b	ffffffff80007104 <control_sequence_parse+0xfcc>
ffffffff800070f0:	d503201f 	nop
ffffffff800070f4:	14000004 	b	ffffffff80007104 <control_sequence_parse+0xfcc>
ffffffff800070f8:	d503201f 	nop
ffffffff800070fc:	14000002 	b	ffffffff80007104 <control_sequence_parse+0xfcc>
ffffffff80007100:	d503201f 	nop
ffffffff80007104:	f9400fe0 	ldr	x0, [sp, #24]
ffffffff80007108:	3941bfe1 	ldrb	w1, [sp, #111]
ffffffff8000710c:	39002801 	strb	w1, [x0, #10]
ffffffff80007110:	f9400fe0 	ldr	x0, [sp, #24]
ffffffff80007114:	39002c1f 	strb	wzr, [x0, #11]
ffffffff80007118:	f9400fe0 	ldr	x0, [sp, #24]
ffffffff8000711c:	3900341f 	strb	wzr, [x0, #13]
ffffffff80007120:	14000004 	b	ffffffff80007130 <control_sequence_parse+0xff8>
ffffffff80007124:	d503201f 	nop
ffffffff80007128:	14000002 	b	ffffffff80007130 <control_sequence_parse+0xff8>
ffffffff8000712c:	d503201f 	nop
ffffffff80007130:	a8d07bfd 	ldp	x29, x30, [sp], #256
ffffffff80007134:	d65f03c0 	ret

ffffffff80007138 <restore_state>:
ffffffff80007138:	a9be7bfd 	stp	x29, x30, [sp, #-32]!
ffffffff8000713c:	910003fd 	mov	x29, sp
ffffffff80007140:	f9000fe0 	str	x0, [sp, #24]
ffffffff80007144:	f9400fe0 	ldr	x0, [sp, #24]
ffffffff80007148:	39430001 	ldrb	w1, [x0, #192]
ffffffff8000714c:	f9400fe0 	ldr	x0, [sp, #24]
ffffffff80007150:	39004801 	strb	w1, [x0, #18]
ffffffff80007154:	f9400fe0 	ldr	x0, [sp, #24]
ffffffff80007158:	39430401 	ldrb	w1, [x0, #193]
ffffffff8000715c:	f9400fe0 	ldr	x0, [sp, #24]
ffffffff80007160:	39004c01 	strb	w1, [x0, #19]
ffffffff80007164:	f9400fe0 	ldr	x0, [sp, #24]
ffffffff80007168:	39430801 	ldrb	w1, [x0, #194]
ffffffff8000716c:	f9400fe0 	ldr	x0, [sp, #24]
ffffffff80007170:	39005001 	strb	w1, [x0, #20]
ffffffff80007174:	f9400fe0 	ldr	x0, [sp, #24]
ffffffff80007178:	f9406401 	ldr	x1, [x0, #200]
ffffffff8000717c:	f9400fe0 	ldr	x0, [sp, #24]
ffffffff80007180:	f9001801 	str	x1, [x0, #48]
ffffffff80007184:	f9400fe0 	ldr	x0, [sp, #24]
ffffffff80007188:	f9406801 	ldr	x1, [x0, #208]
ffffffff8000718c:	f9400fe0 	ldr	x0, [sp, #24]
ffffffff80007190:	f9002c01 	str	x1, [x0, #88]
ffffffff80007194:	f9400fe0 	ldr	x0, [sp, #24]
ffffffff80007198:	f9406c01 	ldr	x1, [x0, #216]
ffffffff8000719c:	f9400fe0 	ldr	x0, [sp, #24]
ffffffff800071a0:	f9003001 	str	x1, [x0, #96]
ffffffff800071a4:	f9400fe0 	ldr	x0, [sp, #24]
ffffffff800071a8:	f940c401 	ldr	x1, [x0, #392]
ffffffff800071ac:	f9400fe0 	ldr	x0, [sp, #24]
ffffffff800071b0:	d63f0020 	blr	x1
ffffffff800071b4:	d503201f 	nop
ffffffff800071b8:	a8c27bfd 	ldp	x29, x30, [sp], #32
ffffffff800071bc:	d65f03c0 	ret

ffffffff800071c0 <save_state>:
ffffffff800071c0:	a9be7bfd 	stp	x29, x30, [sp, #-32]!
ffffffff800071c4:	910003fd 	mov	x29, sp
ffffffff800071c8:	f9000fe0 	str	x0, [sp, #24]
ffffffff800071cc:	f9400fe0 	ldr	x0, [sp, #24]
ffffffff800071d0:	f940c001 	ldr	x1, [x0, #384]
ffffffff800071d4:	f9400fe0 	ldr	x0, [sp, #24]
ffffffff800071d8:	d63f0020 	blr	x1
ffffffff800071dc:	f9400fe0 	ldr	x0, [sp, #24]
ffffffff800071e0:	39404801 	ldrb	w1, [x0, #18]
ffffffff800071e4:	f9400fe0 	ldr	x0, [sp, #24]
ffffffff800071e8:	39030001 	strb	w1, [x0, #192]
ffffffff800071ec:	f9400fe0 	ldr	x0, [sp, #24]
ffffffff800071f0:	39404c01 	ldrb	w1, [x0, #19]
ffffffff800071f4:	f9400fe0 	ldr	x0, [sp, #24]
ffffffff800071f8:	39030401 	strb	w1, [x0, #193]
ffffffff800071fc:	f9400fe0 	ldr	x0, [sp, #24]
ffffffff80007200:	39405001 	ldrb	w1, [x0, #20]
ffffffff80007204:	f9400fe0 	ldr	x0, [sp, #24]
ffffffff80007208:	39030801 	strb	w1, [x0, #194]
ffffffff8000720c:	f9400fe0 	ldr	x0, [sp, #24]
ffffffff80007210:	f9401801 	ldr	x1, [x0, #48]
ffffffff80007214:	f9400fe0 	ldr	x0, [sp, #24]
ffffffff80007218:	f9006401 	str	x1, [x0, #200]
ffffffff8000721c:	f9400fe0 	ldr	x0, [sp, #24]
ffffffff80007220:	f9402c01 	ldr	x1, [x0, #88]
ffffffff80007224:	f9400fe0 	ldr	x0, [sp, #24]
ffffffff80007228:	f9006801 	str	x1, [x0, #208]
ffffffff8000722c:	f9400fe0 	ldr	x0, [sp, #24]
ffffffff80007230:	f9403001 	ldr	x1, [x0, #96]
ffffffff80007234:	f9400fe0 	ldr	x0, [sp, #24]
ffffffff80007238:	f9006c01 	str	x1, [x0, #216]
ffffffff8000723c:	d503201f 	nop
ffffffff80007240:	a8c27bfd 	ldp	x29, x30, [sp], #32
ffffffff80007244:	d65f03c0 	ret

ffffffff80007248 <escape_parse>:
ffffffff80007248:	a9bc7bfd 	stp	x29, x30, [sp, #-64]!
ffffffff8000724c:	910003fd 	mov	x29, sp
ffffffff80007250:	f9000fe0 	str	x0, [sp, #24]
ffffffff80007254:	39005fe1 	strb	w1, [sp, #23]
ffffffff80007258:	f9400fe0 	ldr	x0, [sp, #24]
ffffffff8000725c:	f9401c00 	ldr	x0, [x0, #56]
ffffffff80007260:	91000401 	add	x1, x0, #0x1
ffffffff80007264:	f9400fe0 	ldr	x0, [sp, #24]
ffffffff80007268:	f9001c01 	str	x1, [x0, #56]
ffffffff8000726c:	f9400fe0 	ldr	x0, [sp, #24]
ffffffff80007270:	39403800 	ldrb	w0, [x0, #14]
ffffffff80007274:	12000000 	and	w0, w0, #0x1
ffffffff80007278:	7100001f 	cmp	w0, #0x0
ffffffff8000727c:	540000a0 	b.eq	ffffffff80007290 <escape_parse+0x48>  // b.none
ffffffff80007280:	39405fe1 	ldrb	w1, [sp, #23]
ffffffff80007284:	f9400fe0 	ldr	x0, [sp, #24]
ffffffff80007288:	97fffb88 	bl	ffffffff800060a8 <osc_parse>
ffffffff8000728c:	140000d4 	b	ffffffff800075dc <escape_parse+0x394>
ffffffff80007290:	f9400fe0 	ldr	x0, [sp, #24]
ffffffff80007294:	39402c00 	ldrb	w0, [x0, #11]
ffffffff80007298:	12000000 	and	w0, w0, #0x1
ffffffff8000729c:	7100001f 	cmp	w0, #0x0
ffffffff800072a0:	540000a0 	b.eq	ffffffff800072b4 <escape_parse+0x6c>  // b.none
ffffffff800072a4:	39405fe1 	ldrb	w1, [sp, #23]
ffffffff800072a8:	f9400fe0 	ldr	x0, [sp, #24]
ffffffff800072ac:	97fffba3 	bl	ffffffff80006138 <control_sequence_parse>
ffffffff800072b0:	140000cb 	b	ffffffff800075dc <escape_parse+0x394>
ffffffff800072b4:	f9400fe0 	ldr	x0, [sp, #24]
ffffffff800072b8:	39403000 	ldrb	w0, [x0, #12]
ffffffff800072bc:	12000000 	and	w0, w0, #0x1
ffffffff800072c0:	7100001f 	cmp	w0, #0x0
ffffffff800072c4:	54000080 	b.eq	ffffffff800072d4 <escape_parse+0x8c>  // b.none
ffffffff800072c8:	f9400fe0 	ldr	x0, [sp, #24]
ffffffff800072cc:	3900301f 	strb	wzr, [x0, #12]
ffffffff800072d0:	14000038 	b	ffffffff800073b0 <escape_parse+0x168>
ffffffff800072d4:	f9400fe0 	ldr	x0, [sp, #24]
ffffffff800072d8:	f9408403 	ldr	x3, [x0, #264]
ffffffff800072dc:	9100a3e1 	add	x1, sp, #0x28
ffffffff800072e0:	9100c3e0 	add	x0, sp, #0x30
ffffffff800072e4:	aa0103e2 	mov	x2, x1
ffffffff800072e8:	aa0003e1 	mov	x1, x0
ffffffff800072ec:	f9400fe0 	ldr	x0, [sp, #24]
ffffffff800072f0:	d63f0060 	blr	x3
ffffffff800072f4:	39405fe0 	ldrb	w0, [sp, #23]
ffffffff800072f8:	71018c1f 	cmp	w0, #0x63
ffffffff800072fc:	54000920 	b.eq	ffffffff80007420 <escape_parse+0x1d8>  // b.none
ffffffff80007300:	71018c1f 	cmp	w0, #0x63
ffffffff80007304:	5400168c 	b.gt	ffffffff800075d4 <escape_parse+0x38c>
ffffffff80007308:	7101741f 	cmp	w0, #0x5d
ffffffff8000730c:	54000460 	b.eq	ffffffff80007398 <escape_parse+0x150>  // b.none
ffffffff80007310:	7101741f 	cmp	w0, #0x5d
ffffffff80007314:	5400160c 	b.gt	ffffffff800075d4 <escape_parse+0x38c>
ffffffff80007318:	71016c1f 	cmp	w0, #0x5b
ffffffff8000731c:	540004a0 	b.eq	ffffffff800073b0 <escape_parse+0x168>  // b.none
ffffffff80007320:	71016c1f 	cmp	w0, #0x5b
ffffffff80007324:	5400158c 	b.gt	ffffffff800075d4 <escape_parse+0x38c>
ffffffff80007328:	7101681f 	cmp	w0, #0x5a
ffffffff8000732c:	540012c0 	b.eq	ffffffff80007584 <escape_parse+0x33c>  // b.none
ffffffff80007330:	7101681f 	cmp	w0, #0x5a
ffffffff80007334:	5400150c 	b.gt	ffffffff800075d4 <escape_parse+0x38c>
ffffffff80007338:	7101341f 	cmp	w0, #0x4d
ffffffff8000733c:	54000f00 	b.eq	ffffffff8000751c <escape_parse+0x2d4>  // b.none
ffffffff80007340:	7101341f 	cmp	w0, #0x4d
ffffffff80007344:	5400148c 	b.gt	ffffffff800075d4 <escape_parse+0x38c>
ffffffff80007348:	7101141f 	cmp	w0, #0x45
ffffffff8000734c:	54000b20 	b.eq	ffffffff800074b0 <escape_parse+0x268>  // b.none
ffffffff80007350:	7101141f 	cmp	w0, #0x45
ffffffff80007354:	5400140c 	b.gt	ffffffff800075d4 <escape_parse+0x38c>
ffffffff80007358:	7101101f 	cmp	w0, #0x44
ffffffff8000735c:	54000720 	b.eq	ffffffff80007440 <escape_parse+0x1f8>  // b.none
ffffffff80007360:	7101101f 	cmp	w0, #0x44
ffffffff80007364:	5400138c 	b.gt	ffffffff800075d4 <escape_parse+0x38c>
ffffffff80007368:	7100e01f 	cmp	w0, #0x38
ffffffff8000736c:	54000540 	b.eq	ffffffff80007414 <escape_parse+0x1cc>  // b.none
ffffffff80007370:	7100e01f 	cmp	w0, #0x38
ffffffff80007374:	5400130c 	b.gt	ffffffff800075d4 <escape_parse+0x38c>
ffffffff80007378:	7100a41f 	cmp	w0, #0x29
ffffffff8000737c:	5400008c 	b.gt	ffffffff8000738c <escape_parse+0x144>
ffffffff80007380:	7100a01f 	cmp	w0, #0x28
ffffffff80007384:	540011aa 	b.ge	ffffffff800075b8 <escape_parse+0x370>  // b.tcont
ffffffff80007388:	14000093 	b	ffffffff800075d4 <escape_parse+0x38c>
ffffffff8000738c:	7100dc1f 	cmp	w0, #0x37
ffffffff80007390:	540003c0 	b.eq	ffffffff80007408 <escape_parse+0x1c0>  // b.none
ffffffff80007394:	14000090 	b	ffffffff800075d4 <escape_parse+0x38c>
ffffffff80007398:	f9400fe0 	ldr	x0, [sp, #24]
ffffffff8000739c:	39003c1f 	strb	wzr, [x0, #15]
ffffffff800073a0:	f9400fe0 	ldr	x0, [sp, #24]
ffffffff800073a4:	52800021 	mov	w1, #0x1                   	// #1
ffffffff800073a8:	39003801 	strb	w1, [x0, #14]
ffffffff800073ac:	1400008c 	b	ffffffff800075dc <escape_parse+0x394>
ffffffff800073b0:	f9001fff 	str	xzr, [sp, #56]
ffffffff800073b4:	1400000a 	b	ffffffff800073dc <escape_parse+0x194>
ffffffff800073b8:	f9400fe1 	ldr	x1, [sp, #24]
ffffffff800073bc:	f9401fe0 	ldr	x0, [sp, #56]
ffffffff800073c0:	91007000 	add	x0, x0, #0x1c
ffffffff800073c4:	d37ef400 	lsl	x0, x0, #2
ffffffff800073c8:	8b000020 	add	x0, x1, x0
ffffffff800073cc:	b900081f 	str	wzr, [x0, #8]
ffffffff800073d0:	f9401fe0 	ldr	x0, [sp, #56]
ffffffff800073d4:	91000400 	add	x0, x0, #0x1
ffffffff800073d8:	f9001fe0 	str	x0, [sp, #56]
ffffffff800073dc:	f9401fe0 	ldr	x0, [sp, #56]
ffffffff800073e0:	f1003c1f 	cmp	x0, #0xf
ffffffff800073e4:	54fffea9 	b.ls	ffffffff800073b8 <escape_parse+0x170>  // b.plast
ffffffff800073e8:	f9400fe0 	ldr	x0, [sp, #24]
ffffffff800073ec:	f900201f 	str	xzr, [x0, #64]
ffffffff800073f0:	f9400fe0 	ldr	x0, [sp, #24]
ffffffff800073f4:	3900401f 	strb	wzr, [x0, #16]
ffffffff800073f8:	f9400fe0 	ldr	x0, [sp, #24]
ffffffff800073fc:	52800021 	mov	w1, #0x1                   	// #1
ffffffff80007400:	39002c01 	strb	w1, [x0, #11]
ffffffff80007404:	14000076 	b	ffffffff800075dc <escape_parse+0x394>
ffffffff80007408:	f9400fe0 	ldr	x0, [sp, #24]
ffffffff8000740c:	97ffff6d 	bl	ffffffff800071c0 <save_state>
ffffffff80007410:	14000071 	b	ffffffff800075d4 <escape_parse+0x38c>
ffffffff80007414:	f9400fe0 	ldr	x0, [sp, #24]
ffffffff80007418:	97ffff48 	bl	ffffffff80007138 <restore_state>
ffffffff8000741c:	1400006e 	b	ffffffff800075d4 <escape_parse+0x38c>
ffffffff80007420:	f9400fe0 	ldr	x0, [sp, #24]
ffffffff80007424:	97fff6c0 	bl	ffffffff80004f24 <flanterm_context_reinit>
ffffffff80007428:	f9400fe0 	ldr	x0, [sp, #24]
ffffffff8000742c:	f9407c02 	ldr	x2, [x0, #248]
ffffffff80007430:	52800021 	mov	w1, #0x1                   	// #1
ffffffff80007434:	f9400fe0 	ldr	x0, [sp, #24]
ffffffff80007438:	d63f0040 	blr	x2
ffffffff8000743c:	14000066 	b	ffffffff800075d4 <escape_parse+0x38c>
ffffffff80007440:	f9400fe0 	ldr	x0, [sp, #24]
ffffffff80007444:	f9403800 	ldr	x0, [x0, #112]
ffffffff80007448:	d1000401 	sub	x1, x0, #0x1
ffffffff8000744c:	f94017e0 	ldr	x0, [sp, #40]
ffffffff80007450:	eb00003f 	cmp	x1, x0
ffffffff80007454:	540001c1 	b.ne	ffffffff8000748c <escape_parse+0x244>  // b.any
ffffffff80007458:	f9400fe0 	ldr	x0, [sp, #24]
ffffffff8000745c:	f940b401 	ldr	x1, [x0, #360]
ffffffff80007460:	f9400fe0 	ldr	x0, [sp, #24]
ffffffff80007464:	d63f0020 	blr	x1
ffffffff80007468:	f9400fe0 	ldr	x0, [sp, #24]
ffffffff8000746c:	f9408003 	ldr	x3, [x0, #256]
ffffffff80007470:	f9401be0 	ldr	x0, [sp, #48]
ffffffff80007474:	f94017e1 	ldr	x1, [sp, #40]
ffffffff80007478:	aa0103e2 	mov	x2, x1
ffffffff8000747c:	aa0003e1 	mov	x1, x0
ffffffff80007480:	f9400fe0 	ldr	x0, [sp, #24]
ffffffff80007484:	d63f0060 	blr	x3
ffffffff80007488:	14000053 	b	ffffffff800075d4 <escape_parse+0x38c>
ffffffff8000748c:	f9400fe0 	ldr	x0, [sp, #24]
ffffffff80007490:	f9408003 	ldr	x3, [x0, #256]
ffffffff80007494:	f9401be1 	ldr	x1, [sp, #48]
ffffffff80007498:	f94017e0 	ldr	x0, [sp, #40]
ffffffff8000749c:	91000400 	add	x0, x0, #0x1
ffffffff800074a0:	aa0003e2 	mov	x2, x0
ffffffff800074a4:	f9400fe0 	ldr	x0, [sp, #24]
ffffffff800074a8:	d63f0060 	blr	x3
ffffffff800074ac:	1400004a 	b	ffffffff800075d4 <escape_parse+0x38c>
ffffffff800074b0:	f9400fe0 	ldr	x0, [sp, #24]
ffffffff800074b4:	f9403800 	ldr	x0, [x0, #112]
ffffffff800074b8:	d1000401 	sub	x1, x0, #0x1
ffffffff800074bc:	f94017e0 	ldr	x0, [sp, #40]
ffffffff800074c0:	eb00003f 	cmp	x1, x0
ffffffff800074c4:	540001a1 	b.ne	ffffffff800074f8 <escape_parse+0x2b0>  // b.any
ffffffff800074c8:	f9400fe0 	ldr	x0, [sp, #24]
ffffffff800074cc:	f940b401 	ldr	x1, [x0, #360]
ffffffff800074d0:	f9400fe0 	ldr	x0, [sp, #24]
ffffffff800074d4:	d63f0020 	blr	x1
ffffffff800074d8:	f9400fe0 	ldr	x0, [sp, #24]
ffffffff800074dc:	f9408003 	ldr	x3, [x0, #256]
ffffffff800074e0:	f94017e0 	ldr	x0, [sp, #40]
ffffffff800074e4:	aa0003e2 	mov	x2, x0
ffffffff800074e8:	d2800001 	mov	x1, #0x0                   	// #0
ffffffff800074ec:	f9400fe0 	ldr	x0, [sp, #24]
ffffffff800074f0:	d63f0060 	blr	x3
ffffffff800074f4:	14000038 	b	ffffffff800075d4 <escape_parse+0x38c>
ffffffff800074f8:	f9400fe0 	ldr	x0, [sp, #24]
ffffffff800074fc:	f9408003 	ldr	x3, [x0, #256]
ffffffff80007500:	f94017e0 	ldr	x0, [sp, #40]
ffffffff80007504:	91000400 	add	x0, x0, #0x1
ffffffff80007508:	aa0003e2 	mov	x2, x0
ffffffff8000750c:	d2800001 	mov	x1, #0x0                   	// #0
ffffffff80007510:	f9400fe0 	ldr	x0, [sp, #24]
ffffffff80007514:	d63f0060 	blr	x3
ffffffff80007518:	1400002f 	b	ffffffff800075d4 <escape_parse+0x38c>
ffffffff8000751c:	f9400fe0 	ldr	x0, [sp, #24]
ffffffff80007520:	f9403401 	ldr	x1, [x0, #104]
ffffffff80007524:	f94017e0 	ldr	x0, [sp, #40]
ffffffff80007528:	eb00003f 	cmp	x1, x0
ffffffff8000752c:	540001a1 	b.ne	ffffffff80007560 <escape_parse+0x318>  // b.any
ffffffff80007530:	f9400fe0 	ldr	x0, [sp, #24]
ffffffff80007534:	f940b801 	ldr	x1, [x0, #368]
ffffffff80007538:	f9400fe0 	ldr	x0, [sp, #24]
ffffffff8000753c:	d63f0020 	blr	x1
ffffffff80007540:	f9400fe0 	ldr	x0, [sp, #24]
ffffffff80007544:	f9408003 	ldr	x3, [x0, #256]
ffffffff80007548:	f94017e0 	ldr	x0, [sp, #40]
ffffffff8000754c:	aa0003e2 	mov	x2, x0
ffffffff80007550:	d2800001 	mov	x1, #0x0                   	// #0
ffffffff80007554:	f9400fe0 	ldr	x0, [sp, #24]
ffffffff80007558:	d63f0060 	blr	x3
ffffffff8000755c:	1400001e 	b	ffffffff800075d4 <escape_parse+0x38c>
ffffffff80007560:	f9400fe0 	ldr	x0, [sp, #24]
ffffffff80007564:	f9408003 	ldr	x3, [x0, #256]
ffffffff80007568:	f94017e0 	ldr	x0, [sp, #40]
ffffffff8000756c:	d1000400 	sub	x0, x0, #0x1
ffffffff80007570:	aa0003e2 	mov	x2, x0
ffffffff80007574:	d2800001 	mov	x1, #0x0                   	// #0
ffffffff80007578:	f9400fe0 	ldr	x0, [sp, #24]
ffffffff8000757c:	d63f0060 	blr	x3
ffffffff80007580:	14000015 	b	ffffffff800075d4 <escape_parse+0x38c>
ffffffff80007584:	f9400fe0 	ldr	x0, [sp, #24]
ffffffff80007588:	f940d400 	ldr	x0, [x0, #424]
ffffffff8000758c:	f100001f 	cmp	x0, #0x0
ffffffff80007590:	54000200 	b.eq	ffffffff800075d0 <escape_parse+0x388>  // b.none
ffffffff80007594:	f9400fe0 	ldr	x0, [sp, #24]
ffffffff80007598:	f940d405 	ldr	x5, [x0, #424]
ffffffff8000759c:	d2800004 	mov	x4, #0x0                   	// #0
ffffffff800075a0:	d2800003 	mov	x3, #0x0                   	// #0
ffffffff800075a4:	d2800002 	mov	x2, #0x0                   	// #0
ffffffff800075a8:	d28003c1 	mov	x1, #0x1e                  	// #30
ffffffff800075ac:	f9400fe0 	ldr	x0, [sp, #24]
ffffffff800075b0:	d63f00a0 	blr	x5
ffffffff800075b4:	14000007 	b	ffffffff800075d0 <escape_parse+0x388>
ffffffff800075b8:	39405fe0 	ldrb	w0, [sp, #23]
ffffffff800075bc:	51009c00 	sub	w0, w0, #0x27
ffffffff800075c0:	12001c01 	and	w1, w0, #0xff
ffffffff800075c4:	f9400fe0 	ldr	x0, [sp, #24]
ffffffff800075c8:	3900a001 	strb	w1, [x0, #40]
ffffffff800075cc:	14000002 	b	ffffffff800075d4 <escape_parse+0x38c>
ffffffff800075d0:	d503201f 	nop
ffffffff800075d4:	f9400fe0 	ldr	x0, [sp, #24]
ffffffff800075d8:	3900341f 	strb	wzr, [x0, #13]
ffffffff800075dc:	a8c47bfd 	ldp	x29, x30, [sp], #64
ffffffff800075e0:	d65f03c0 	ret

ffffffff800075e4 <dec_special_print>:
ffffffff800075e4:	a9be7bfd 	stp	x29, x30, [sp, #-32]!
ffffffff800075e8:	910003fd 	mov	x29, sp
ffffffff800075ec:	f9000fe0 	str	x0, [sp, #24]
ffffffff800075f0:	39005fe1 	strb	w1, [sp, #23]
ffffffff800075f4:	39405fe0 	ldrb	w0, [sp, #23]
ffffffff800075f8:	5100ac00 	sub	w0, w0, #0x2b
ffffffff800075fc:	71014c1f 	cmp	w0, #0x53
ffffffff80007600:	54001968 	b.hi	ffffffff8000792c <dec_special_print+0x348>  // b.pmore
ffffffff80007604:	f0000081 	adrp	x1, ffffffff8001a000 <builtin_font+0x720>
ffffffff80007608:	9135e021 	add	x1, x1, #0xd78
ffffffff8000760c:	b8605820 	ldr	w0, [x1, w0, uxtw #2]
ffffffff80007610:	10000061 	adr	x1, ffffffff8000761c <dec_special_print+0x38>
ffffffff80007614:	8b20c820 	add	x0, x1, w0, sxtw #2
ffffffff80007618:	d61f0000 	br	x0
ffffffff8000761c:	f9400fe0 	ldr	x0, [sp, #24]
ffffffff80007620:	f9407802 	ldr	x2, [x0, #240]
ffffffff80007624:	52800081 	mov	w1, #0x4                   	// #4
ffffffff80007628:	f9400fe0 	ldr	x0, [sp, #24]
ffffffff8000762c:	d63f0040 	blr	x2
ffffffff80007630:	52800020 	mov	w0, #0x1                   	// #1
ffffffff80007634:	140000bf 	b	ffffffff80007930 <dec_special_print+0x34c>
ffffffff80007638:	f9400fe0 	ldr	x0, [sp, #24]
ffffffff8000763c:	f9407802 	ldr	x2, [x0, #240]
ffffffff80007640:	12800481 	mov	w1, #0xffffffdb            	// #-37
ffffffff80007644:	f9400fe0 	ldr	x0, [sp, #24]
ffffffff80007648:	d63f0040 	blr	x2
ffffffff8000764c:	52800020 	mov	w0, #0x1                   	// #1
ffffffff80007650:	140000b8 	b	ffffffff80007930 <dec_special_print+0x34c>
ffffffff80007654:	f9400fe0 	ldr	x0, [sp, #24]
ffffffff80007658:	f9407802 	ldr	x2, [x0, #240]
ffffffff8000765c:	52800301 	mov	w1, #0x18                  	// #24
ffffffff80007660:	f9400fe0 	ldr	x0, [sp, #24]
ffffffff80007664:	d63f0040 	blr	x2
ffffffff80007668:	52800020 	mov	w0, #0x1                   	// #1
ffffffff8000766c:	140000b1 	b	ffffffff80007930 <dec_special_print+0x34c>
ffffffff80007670:	f9400fe0 	ldr	x0, [sp, #24]
ffffffff80007674:	f9407802 	ldr	x2, [x0, #240]
ffffffff80007678:	52800361 	mov	w1, #0x1b                  	// #27
ffffffff8000767c:	f9400fe0 	ldr	x0, [sp, #24]
ffffffff80007680:	d63f0040 	blr	x2
ffffffff80007684:	52800020 	mov	w0, #0x1                   	// #1
ffffffff80007688:	140000aa 	b	ffffffff80007930 <dec_special_print+0x34c>
ffffffff8000768c:	f9400fe0 	ldr	x0, [sp, #24]
ffffffff80007690:	f9407802 	ldr	x2, [x0, #240]
ffffffff80007694:	52800321 	mov	w1, #0x19                  	// #25
ffffffff80007698:	f9400fe0 	ldr	x0, [sp, #24]
ffffffff8000769c:	d63f0040 	blr	x2
ffffffff800076a0:	52800020 	mov	w0, #0x1                   	// #1
ffffffff800076a4:	140000a3 	b	ffffffff80007930 <dec_special_print+0x34c>
ffffffff800076a8:	f9400fe0 	ldr	x0, [sp, #24]
ffffffff800076ac:	f9407802 	ldr	x2, [x0, #240]
ffffffff800076b0:	128009c1 	mov	w1, #0xffffffb1            	// #-79
ffffffff800076b4:	f9400fe0 	ldr	x0, [sp, #24]
ffffffff800076b8:	d63f0040 	blr	x2
ffffffff800076bc:	52800020 	mov	w0, #0x1                   	// #1
ffffffff800076c0:	1400009c 	b	ffffffff80007930 <dec_special_print+0x34c>
ffffffff800076c4:	f9400fe0 	ldr	x0, [sp, #24]
ffffffff800076c8:	f9407802 	ldr	x2, [x0, #240]
ffffffff800076cc:	128000e1 	mov	w1, #0xfffffff8            	// #-8
ffffffff800076d0:	f9400fe0 	ldr	x0, [sp, #24]
ffffffff800076d4:	d63f0040 	blr	x2
ffffffff800076d8:	52800020 	mov	w0, #0x1                   	// #1
ffffffff800076dc:	14000095 	b	ffffffff80007930 <dec_special_print+0x34c>
ffffffff800076e0:	f9400fe0 	ldr	x0, [sp, #24]
ffffffff800076e4:	f9407802 	ldr	x2, [x0, #240]
ffffffff800076e8:	128001c1 	mov	w1, #0xfffffff1            	// #-15
ffffffff800076ec:	f9400fe0 	ldr	x0, [sp, #24]
ffffffff800076f0:	d63f0040 	blr	x2
ffffffff800076f4:	52800020 	mov	w0, #0x1                   	// #1
ffffffff800076f8:	1400008e 	b	ffffffff80007930 <dec_special_print+0x34c>
ffffffff800076fc:	f9400fe0 	ldr	x0, [sp, #24]
ffffffff80007700:	f9407802 	ldr	x2, [x0, #240]
ffffffff80007704:	128009e1 	mov	w1, #0xffffffb0            	// #-80
ffffffff80007708:	f9400fe0 	ldr	x0, [sp, #24]
ffffffff8000770c:	d63f0040 	blr	x2
ffffffff80007710:	52800020 	mov	w0, #0x1                   	// #1
ffffffff80007714:	14000087 	b	ffffffff80007930 <dec_special_print+0x34c>
ffffffff80007718:	f9400fe0 	ldr	x0, [sp, #24]
ffffffff8000771c:	f9407802 	ldr	x2, [x0, #240]
ffffffff80007720:	128004c1 	mov	w1, #0xffffffd9            	// #-39
ffffffff80007724:	f9400fe0 	ldr	x0, [sp, #24]
ffffffff80007728:	d63f0040 	blr	x2
ffffffff8000772c:	52800020 	mov	w0, #0x1                   	// #1
ffffffff80007730:	14000080 	b	ffffffff80007930 <dec_special_print+0x34c>
ffffffff80007734:	f9400fe0 	ldr	x0, [sp, #24]
ffffffff80007738:	f9407802 	ldr	x2, [x0, #240]
ffffffff8000773c:	12800801 	mov	w1, #0xffffffbf            	// #-65
ffffffff80007740:	f9400fe0 	ldr	x0, [sp, #24]
ffffffff80007744:	d63f0040 	blr	x2
ffffffff80007748:	52800020 	mov	w0, #0x1                   	// #1
ffffffff8000774c:	14000079 	b	ffffffff80007930 <dec_special_print+0x34c>
ffffffff80007750:	f9400fe0 	ldr	x0, [sp, #24]
ffffffff80007754:	f9407802 	ldr	x2, [x0, #240]
ffffffff80007758:	128004a1 	mov	w1, #0xffffffda            	// #-38
ffffffff8000775c:	f9400fe0 	ldr	x0, [sp, #24]
ffffffff80007760:	d63f0040 	blr	x2
ffffffff80007764:	52800020 	mov	w0, #0x1                   	// #1
ffffffff80007768:	14000072 	b	ffffffff80007930 <dec_special_print+0x34c>
ffffffff8000776c:	f9400fe0 	ldr	x0, [sp, #24]
ffffffff80007770:	f9407802 	ldr	x2, [x0, #240]
ffffffff80007774:	128007e1 	mov	w1, #0xffffffc0            	// #-64
ffffffff80007778:	f9400fe0 	ldr	x0, [sp, #24]
ffffffff8000777c:	d63f0040 	blr	x2
ffffffff80007780:	52800020 	mov	w0, #0x1                   	// #1
ffffffff80007784:	1400006b 	b	ffffffff80007930 <dec_special_print+0x34c>
ffffffff80007788:	f9400fe0 	ldr	x0, [sp, #24]
ffffffff8000778c:	f9407802 	ldr	x2, [x0, #240]
ffffffff80007790:	12800741 	mov	w1, #0xffffffc5            	// #-59
ffffffff80007794:	f9400fe0 	ldr	x0, [sp, #24]
ffffffff80007798:	d63f0040 	blr	x2
ffffffff8000779c:	52800020 	mov	w0, #0x1                   	// #1
ffffffff800077a0:	14000064 	b	ffffffff80007930 <dec_special_print+0x34c>
ffffffff800077a4:	f9400fe0 	ldr	x0, [sp, #24]
ffffffff800077a8:	f9407802 	ldr	x2, [x0, #240]
ffffffff800077ac:	12800761 	mov	w1, #0xffffffc4            	// #-60
ffffffff800077b0:	f9400fe0 	ldr	x0, [sp, #24]
ffffffff800077b4:	d63f0040 	blr	x2
ffffffff800077b8:	52800020 	mov	w0, #0x1                   	// #1
ffffffff800077bc:	1400005d 	b	ffffffff80007930 <dec_special_print+0x34c>
ffffffff800077c0:	f9400fe0 	ldr	x0, [sp, #24]
ffffffff800077c4:	f9407802 	ldr	x2, [x0, #240]
ffffffff800077c8:	52800be1 	mov	w1, #0x5f                  	// #95
ffffffff800077cc:	f9400fe0 	ldr	x0, [sp, #24]
ffffffff800077d0:	d63f0040 	blr	x2
ffffffff800077d4:	52800020 	mov	w0, #0x1                   	// #1
ffffffff800077d8:	14000056 	b	ffffffff80007930 <dec_special_print+0x34c>
ffffffff800077dc:	f9400fe0 	ldr	x0, [sp, #24]
ffffffff800077e0:	f9407802 	ldr	x2, [x0, #240]
ffffffff800077e4:	12800781 	mov	w1, #0xffffffc3            	// #-61
ffffffff800077e8:	f9400fe0 	ldr	x0, [sp, #24]
ffffffff800077ec:	d63f0040 	blr	x2
ffffffff800077f0:	52800020 	mov	w0, #0x1                   	// #1
ffffffff800077f4:	1400004f 	b	ffffffff80007930 <dec_special_print+0x34c>
ffffffff800077f8:	f9400fe0 	ldr	x0, [sp, #24]
ffffffff800077fc:	f9407802 	ldr	x2, [x0, #240]
ffffffff80007800:	12800961 	mov	w1, #0xffffffb4            	// #-76
ffffffff80007804:	f9400fe0 	ldr	x0, [sp, #24]
ffffffff80007808:	d63f0040 	blr	x2
ffffffff8000780c:	52800020 	mov	w0, #0x1                   	// #1
ffffffff80007810:	14000048 	b	ffffffff80007930 <dec_special_print+0x34c>
ffffffff80007814:	f9400fe0 	ldr	x0, [sp, #24]
ffffffff80007818:	f9407802 	ldr	x2, [x0, #240]
ffffffff8000781c:	128007c1 	mov	w1, #0xffffffc1            	// #-63
ffffffff80007820:	f9400fe0 	ldr	x0, [sp, #24]
ffffffff80007824:	d63f0040 	blr	x2
ffffffff80007828:	52800020 	mov	w0, #0x1                   	// #1
ffffffff8000782c:	14000041 	b	ffffffff80007930 <dec_special_print+0x34c>
ffffffff80007830:	f9400fe0 	ldr	x0, [sp, #24]
ffffffff80007834:	f9407802 	ldr	x2, [x0, #240]
ffffffff80007838:	128007a1 	mov	w1, #0xffffffc2            	// #-62
ffffffff8000783c:	f9400fe0 	ldr	x0, [sp, #24]
ffffffff80007840:	d63f0040 	blr	x2
ffffffff80007844:	52800020 	mov	w0, #0x1                   	// #1
ffffffff80007848:	1400003a 	b	ffffffff80007930 <dec_special_print+0x34c>
ffffffff8000784c:	f9400fe0 	ldr	x0, [sp, #24]
ffffffff80007850:	f9407802 	ldr	x2, [x0, #240]
ffffffff80007854:	12800981 	mov	w1, #0xffffffb3            	// #-77
ffffffff80007858:	f9400fe0 	ldr	x0, [sp, #24]
ffffffff8000785c:	d63f0040 	blr	x2
ffffffff80007860:	52800020 	mov	w0, #0x1                   	// #1
ffffffff80007864:	14000033 	b	ffffffff80007930 <dec_special_print+0x34c>
ffffffff80007868:	f9400fe0 	ldr	x0, [sp, #24]
ffffffff8000786c:	f9407802 	ldr	x2, [x0, #240]
ffffffff80007870:	12800181 	mov	w1, #0xfffffff3            	// #-13
ffffffff80007874:	f9400fe0 	ldr	x0, [sp, #24]
ffffffff80007878:	d63f0040 	blr	x2
ffffffff8000787c:	52800020 	mov	w0, #0x1                   	// #1
ffffffff80007880:	1400002c 	b	ffffffff80007930 <dec_special_print+0x34c>
ffffffff80007884:	f9400fe0 	ldr	x0, [sp, #24]
ffffffff80007888:	f9407802 	ldr	x2, [x0, #240]
ffffffff8000788c:	128001a1 	mov	w1, #0xfffffff2            	// #-14
ffffffff80007890:	f9400fe0 	ldr	x0, [sp, #24]
ffffffff80007894:	d63f0040 	blr	x2
ffffffff80007898:	52800020 	mov	w0, #0x1                   	// #1
ffffffff8000789c:	14000025 	b	ffffffff80007930 <dec_special_print+0x34c>
ffffffff800078a0:	f9400fe0 	ldr	x0, [sp, #24]
ffffffff800078a4:	f9407802 	ldr	x2, [x0, #240]
ffffffff800078a8:	128000a1 	mov	w1, #0xfffffffa            	// #-6
ffffffff800078ac:	f9400fe0 	ldr	x0, [sp, #24]
ffffffff800078b0:	d63f0040 	blr	x2
ffffffff800078b4:	52800020 	mov	w0, #0x1                   	// #1
ffffffff800078b8:	1400001e 	b	ffffffff80007930 <dec_special_print+0x34c>
ffffffff800078bc:	f9400fe0 	ldr	x0, [sp, #24]
ffffffff800078c0:	f9407802 	ldr	x2, [x0, #240]
ffffffff800078c4:	12800001 	mov	w1, #0xffffffff            	// #-1
ffffffff800078c8:	f9400fe0 	ldr	x0, [sp, #24]
ffffffff800078cc:	d63f0040 	blr	x2
ffffffff800078d0:	52800020 	mov	w0, #0x1                   	// #1
ffffffff800078d4:	14000017 	b	ffffffff80007930 <dec_special_print+0x34c>
ffffffff800078d8:	f9400fe0 	ldr	x0, [sp, #24]
ffffffff800078dc:	f9407802 	ldr	x2, [x0, #240]
ffffffff800078e0:	52800341 	mov	w1, #0x1a                  	// #26
ffffffff800078e4:	f9400fe0 	ldr	x0, [sp, #24]
ffffffff800078e8:	d63f0040 	blr	x2
ffffffff800078ec:	52800020 	mov	w0, #0x1                   	// #1
ffffffff800078f0:	14000010 	b	ffffffff80007930 <dec_special_print+0x34c>
ffffffff800078f4:	f9400fe0 	ldr	x0, [sp, #24]
ffffffff800078f8:	f9407802 	ldr	x2, [x0, #240]
ffffffff800078fc:	12800381 	mov	w1, #0xffffffe3            	// #-29
ffffffff80007900:	f9400fe0 	ldr	x0, [sp, #24]
ffffffff80007904:	d63f0040 	blr	x2
ffffffff80007908:	52800020 	mov	w0, #0x1                   	// #1
ffffffff8000790c:	14000009 	b	ffffffff80007930 <dec_special_print+0x34c>
ffffffff80007910:	f9400fe0 	ldr	x0, [sp, #24]
ffffffff80007914:	f9407802 	ldr	x2, [x0, #240]
ffffffff80007918:	12800c61 	mov	w1, #0xffffff9c            	// #-100
ffffffff8000791c:	f9400fe0 	ldr	x0, [sp, #24]
ffffffff80007920:	d63f0040 	blr	x2
ffffffff80007924:	52800020 	mov	w0, #0x1                   	// #1
ffffffff80007928:	14000002 	b	ffffffff80007930 <dec_special_print+0x34c>
ffffffff8000792c:	52800000 	mov	w0, #0x0                   	// #0
ffffffff80007930:	a8c27bfd 	ldp	x29, x30, [sp], #32
ffffffff80007934:	d65f03c0 	ret

ffffffff80007938 <bisearch>:
ffffffff80007938:	d10083ff 	sub	sp, sp, #0x20
ffffffff8000793c:	b9000fe0 	str	w0, [sp, #12]
ffffffff80007940:	f90003e1 	str	x1, [sp]
ffffffff80007944:	b9000be2 	str	w2, [sp, #8]
ffffffff80007948:	b9001fff 	str	wzr, [sp, #28]
ffffffff8000794c:	f94003e0 	ldr	x0, [sp]
ffffffff80007950:	b9400000 	ldr	w0, [x0]
ffffffff80007954:	b9400fe1 	ldr	w1, [sp, #12]
ffffffff80007958:	6b00003f 	cmp	w1, w0
ffffffff8000795c:	54000123 	b.cc	ffffffff80007980 <bisearch+0x48>  // b.lo, b.ul, b.last
ffffffff80007960:	b9800be0 	ldrsw	x0, [sp, #8]
ffffffff80007964:	d37df000 	lsl	x0, x0, #3
ffffffff80007968:	f94003e1 	ldr	x1, [sp]
ffffffff8000796c:	8b000020 	add	x0, x1, x0
ffffffff80007970:	b9400400 	ldr	w0, [x0, #4]
ffffffff80007974:	b9400fe1 	ldr	w1, [sp, #12]
ffffffff80007978:	6b00003f 	cmp	w1, w0
ffffffff8000797c:	54000489 	b.ls	ffffffff80007a0c <bisearch+0xd4>  // b.plast
ffffffff80007980:	52800000 	mov	w0, #0x0                   	// #0
ffffffff80007984:	14000027 	b	ffffffff80007a20 <bisearch+0xe8>
ffffffff80007988:	b9401fe1 	ldr	w1, [sp, #28]
ffffffff8000798c:	b9400be0 	ldr	w0, [sp, #8]
ffffffff80007990:	0b000020 	add	w0, w1, w0
ffffffff80007994:	531f7c01 	lsr	w1, w0, #31
ffffffff80007998:	0b000020 	add	w0, w1, w0
ffffffff8000799c:	13017c00 	asr	w0, w0, #1
ffffffff800079a0:	b9001be0 	str	w0, [sp, #24]
ffffffff800079a4:	b9801be0 	ldrsw	x0, [sp, #24]
ffffffff800079a8:	d37df000 	lsl	x0, x0, #3
ffffffff800079ac:	f94003e1 	ldr	x1, [sp]
ffffffff800079b0:	8b000020 	add	x0, x1, x0
ffffffff800079b4:	b9400400 	ldr	w0, [x0, #4]
ffffffff800079b8:	b9400fe1 	ldr	w1, [sp, #12]
ffffffff800079bc:	6b00003f 	cmp	w1, w0
ffffffff800079c0:	540000a9 	b.ls	ffffffff800079d4 <bisearch+0x9c>  // b.plast
ffffffff800079c4:	b9401be0 	ldr	w0, [sp, #24]
ffffffff800079c8:	11000400 	add	w0, w0, #0x1
ffffffff800079cc:	b9001fe0 	str	w0, [sp, #28]
ffffffff800079d0:	1400000f 	b	ffffffff80007a0c <bisearch+0xd4>
ffffffff800079d4:	b9801be0 	ldrsw	x0, [sp, #24]
ffffffff800079d8:	d37df000 	lsl	x0, x0, #3
ffffffff800079dc:	f94003e1 	ldr	x1, [sp]
ffffffff800079e0:	8b000020 	add	x0, x1, x0
ffffffff800079e4:	b9400000 	ldr	w0, [x0]
ffffffff800079e8:	b9400fe1 	ldr	w1, [sp, #12]
ffffffff800079ec:	6b00003f 	cmp	w1, w0
ffffffff800079f0:	540000a2 	b.cs	ffffffff80007a04 <bisearch+0xcc>  // b.hs, b.nlast
ffffffff800079f4:	b9401be0 	ldr	w0, [sp, #24]
ffffffff800079f8:	51000400 	sub	w0, w0, #0x1
ffffffff800079fc:	b9000be0 	str	w0, [sp, #8]
ffffffff80007a00:	14000003 	b	ffffffff80007a0c <bisearch+0xd4>
ffffffff80007a04:	52800020 	mov	w0, #0x1                   	// #1
ffffffff80007a08:	14000006 	b	ffffffff80007a20 <bisearch+0xe8>
ffffffff80007a0c:	b9400be1 	ldr	w1, [sp, #8]
ffffffff80007a10:	b9401fe0 	ldr	w0, [sp, #28]
ffffffff80007a14:	6b00003f 	cmp	w1, w0
ffffffff80007a18:	54fffb8a 	b.ge	ffffffff80007988 <bisearch+0x50>  // b.tcont
ffffffff80007a1c:	52800000 	mov	w0, #0x0                   	// #0
ffffffff80007a20:	910083ff 	add	sp, sp, #0x20
ffffffff80007a24:	d65f03c0 	ret

ffffffff80007a28 <mk_wcwidth>:
ffffffff80007a28:	a9be7bfd 	stp	x29, x30, [sp, #-32]!
ffffffff80007a2c:	910003fd 	mov	x29, sp
ffffffff80007a30:	b9001fe0 	str	w0, [sp, #28]
ffffffff80007a34:	b9401fe0 	ldr	w0, [sp, #28]
ffffffff80007a38:	7100001f 	cmp	w0, #0x0
ffffffff80007a3c:	54000061 	b.ne	ffffffff80007a48 <mk_wcwidth+0x20>  // b.any
ffffffff80007a40:	52800000 	mov	w0, #0x0                   	// #0
ffffffff80007a44:	14000076 	b	ffffffff80007c1c <mk_wcwidth+0x1f4>
ffffffff80007a48:	b9401fe0 	ldr	w0, [sp, #28]
ffffffff80007a4c:	71007c1f 	cmp	w0, #0x1f
ffffffff80007a50:	540000e9 	b.ls	ffffffff80007a6c <mk_wcwidth+0x44>  // b.plast
ffffffff80007a54:	b9401fe0 	ldr	w0, [sp, #28]
ffffffff80007a58:	7101f81f 	cmp	w0, #0x7e
ffffffff80007a5c:	540000c9 	b.ls	ffffffff80007a74 <mk_wcwidth+0x4c>  // b.plast
ffffffff80007a60:	b9401fe0 	ldr	w0, [sp, #28]
ffffffff80007a64:	71027c1f 	cmp	w0, #0x9f
ffffffff80007a68:	54000068 	b.hi	ffffffff80007a74 <mk_wcwidth+0x4c>  // b.pmore
ffffffff80007a6c:	52800020 	mov	w0, #0x1                   	// #1
ffffffff80007a70:	1400006b 	b	ffffffff80007c1c <mk_wcwidth+0x1f4>
ffffffff80007a74:	528011a2 	mov	w2, #0x8d                  	// #141
ffffffff80007a78:	900000a0 	adrp	x0, ffffffff8001b000 <col256+0x720>
ffffffff80007a7c:	91244001 	add	x1, x0, #0x910
ffffffff80007a80:	b9401fe0 	ldr	w0, [sp, #28]
ffffffff80007a84:	97ffffad 	bl	ffffffff80007938 <bisearch>
ffffffff80007a88:	7100001f 	cmp	w0, #0x0
ffffffff80007a8c:	54000060 	b.eq	ffffffff80007a98 <mk_wcwidth+0x70>  // b.none
ffffffff80007a90:	52800000 	mov	w0, #0x0                   	// #0
ffffffff80007a94:	14000062 	b	ffffffff80007c1c <mk_wcwidth+0x1f4>
ffffffff80007a98:	b9401fe1 	ldr	w1, [sp, #28]
ffffffff80007a9c:	52821fe0 	mov	w0, #0x10ff                	// #4351
ffffffff80007aa0:	6b00003f 	cmp	w1, w0
ffffffff80007aa4:	54000b89 	b.ls	ffffffff80007c14 <mk_wcwidth+0x1ec>  // b.plast
ffffffff80007aa8:	b9401fe1 	ldr	w1, [sp, #28]
ffffffff80007aac:	52822be0 	mov	w0, #0x115f                	// #4447
ffffffff80007ab0:	6b00003f 	cmp	w1, w0
ffffffff80007ab4:	54000ac9 	b.ls	ffffffff80007c0c <mk_wcwidth+0x1e4>  // b.plast
ffffffff80007ab8:	b9401fe1 	ldr	w1, [sp, #28]
ffffffff80007abc:	52846520 	mov	w0, #0x2329                	// #9001
ffffffff80007ac0:	6b00003f 	cmp	w1, w0
ffffffff80007ac4:	54000a40 	b.eq	ffffffff80007c0c <mk_wcwidth+0x1e4>  // b.none
ffffffff80007ac8:	b9401fe1 	ldr	w1, [sp, #28]
ffffffff80007acc:	52846540 	mov	w0, #0x232a                	// #9002
ffffffff80007ad0:	6b00003f 	cmp	w1, w0
ffffffff80007ad4:	540009c0 	b.eq	ffffffff80007c0c <mk_wcwidth+0x1e4>  // b.none
ffffffff80007ad8:	b9401fe1 	ldr	w1, [sp, #28]
ffffffff80007adc:	5285cfe0 	mov	w0, #0x2e7f                	// #11903
ffffffff80007ae0:	6b00003f 	cmp	w1, w0
ffffffff80007ae4:	54000129 	b.ls	ffffffff80007b08 <mk_wcwidth+0xe0>  // b.plast
ffffffff80007ae8:	b9401fe1 	ldr	w1, [sp, #28]
ffffffff80007aec:	529499e0 	mov	w0, #0xa4cf                	// #42191
ffffffff80007af0:	6b00003f 	cmp	w1, w0
ffffffff80007af4:	540000a8 	b.hi	ffffffff80007b08 <mk_wcwidth+0xe0>  // b.pmore
ffffffff80007af8:	b9401fe1 	ldr	w1, [sp, #28]
ffffffff80007afc:	528607e0 	mov	w0, #0x303f                	// #12351
ffffffff80007b00:	6b00003f 	cmp	w1, w0
ffffffff80007b04:	54000841 	b.ne	ffffffff80007c0c <mk_wcwidth+0x1e4>  // b.any
ffffffff80007b08:	b9401fe1 	ldr	w1, [sp, #28]
ffffffff80007b0c:	52957fe0 	mov	w0, #0xabff                	// #44031
ffffffff80007b10:	6b00003f 	cmp	w1, w0
ffffffff80007b14:	540000a9 	b.ls	ffffffff80007b28 <mk_wcwidth+0x100>  // b.plast
ffffffff80007b18:	b9401fe1 	ldr	w1, [sp, #28]
ffffffff80007b1c:	529af460 	mov	w0, #0xd7a3                	// #55203
ffffffff80007b20:	6b00003f 	cmp	w1, w0
ffffffff80007b24:	54000749 	b.ls	ffffffff80007c0c <mk_wcwidth+0x1e4>  // b.plast
ffffffff80007b28:	b9401fe1 	ldr	w1, [sp, #28]
ffffffff80007b2c:	529f1fe0 	mov	w0, #0xf8ff                	// #63743
ffffffff80007b30:	6b00003f 	cmp	w1, w0
ffffffff80007b34:	540000a9 	b.ls	ffffffff80007b48 <mk_wcwidth+0x120>  // b.plast
ffffffff80007b38:	b9401fe1 	ldr	w1, [sp, #28]
ffffffff80007b3c:	529f5fe0 	mov	w0, #0xfaff                	// #64255
ffffffff80007b40:	6b00003f 	cmp	w1, w0
ffffffff80007b44:	54000649 	b.ls	ffffffff80007c0c <mk_wcwidth+0x1e4>  // b.plast
ffffffff80007b48:	b9401fe1 	ldr	w1, [sp, #28]
ffffffff80007b4c:	529fc1e0 	mov	w0, #0xfe0f                	// #65039
ffffffff80007b50:	6b00003f 	cmp	w1, w0
ffffffff80007b54:	540000a9 	b.ls	ffffffff80007b68 <mk_wcwidth+0x140>  // b.plast
ffffffff80007b58:	b9401fe1 	ldr	w1, [sp, #28]
ffffffff80007b5c:	529fc320 	mov	w0, #0xfe19                	// #65049
ffffffff80007b60:	6b00003f 	cmp	w1, w0
ffffffff80007b64:	54000549 	b.ls	ffffffff80007c0c <mk_wcwidth+0x1e4>  // b.plast
ffffffff80007b68:	b9401fe1 	ldr	w1, [sp, #28]
ffffffff80007b6c:	529fc5e0 	mov	w0, #0xfe2f                	// #65071
ffffffff80007b70:	6b00003f 	cmp	w1, w0
ffffffff80007b74:	540000a9 	b.ls	ffffffff80007b88 <mk_wcwidth+0x160>  // b.plast
ffffffff80007b78:	b9401fe1 	ldr	w1, [sp, #28]
ffffffff80007b7c:	529fcde0 	mov	w0, #0xfe6f                	// #65135
ffffffff80007b80:	6b00003f 	cmp	w1, w0
ffffffff80007b84:	54000449 	b.ls	ffffffff80007c0c <mk_wcwidth+0x1e4>  // b.plast
ffffffff80007b88:	b9401fe1 	ldr	w1, [sp, #28]
ffffffff80007b8c:	529fdfe0 	mov	w0, #0xfeff                	// #65279
ffffffff80007b90:	6b00003f 	cmp	w1, w0
ffffffff80007b94:	540000a9 	b.ls	ffffffff80007ba8 <mk_wcwidth+0x180>  // b.plast
ffffffff80007b98:	b9401fe1 	ldr	w1, [sp, #28]
ffffffff80007b9c:	529fec00 	mov	w0, #0xff60                	// #65376
ffffffff80007ba0:	6b00003f 	cmp	w1, w0
ffffffff80007ba4:	54000349 	b.ls	ffffffff80007c0c <mk_wcwidth+0x1e4>  // b.plast
ffffffff80007ba8:	b9401fe1 	ldr	w1, [sp, #28]
ffffffff80007bac:	529ffbe0 	mov	w0, #0xffdf                	// #65503
ffffffff80007bb0:	6b00003f 	cmp	w1, w0
ffffffff80007bb4:	540000a9 	b.ls	ffffffff80007bc8 <mk_wcwidth+0x1a0>  // b.plast
ffffffff80007bb8:	b9401fe1 	ldr	w1, [sp, #28]
ffffffff80007bbc:	529ffcc0 	mov	w0, #0xffe6                	// #65510
ffffffff80007bc0:	6b00003f 	cmp	w1, w0
ffffffff80007bc4:	54000249 	b.ls	ffffffff80007c0c <mk_wcwidth+0x1e4>  // b.plast
ffffffff80007bc8:	b9401fe1 	ldr	w1, [sp, #28]
ffffffff80007bcc:	12bfffc0 	mov	w0, #0x1ffff               	// #131071
ffffffff80007bd0:	6b00003f 	cmp	w1, w0
ffffffff80007bd4:	540000c9 	b.ls	ffffffff80007bec <mk_wcwidth+0x1c4>  // b.plast
ffffffff80007bd8:	b9401fe1 	ldr	w1, [sp, #28]
ffffffff80007bdc:	529fffa0 	mov	w0, #0xfffd                	// #65533
ffffffff80007be0:	72a00040 	movk	w0, #0x2, lsl #16
ffffffff80007be4:	6b00003f 	cmp	w1, w0
ffffffff80007be8:	54000129 	b.ls	ffffffff80007c0c <mk_wcwidth+0x1e4>  // b.plast
ffffffff80007bec:	b9401fe1 	ldr	w1, [sp, #28]
ffffffff80007bf0:	12bfffa0 	mov	w0, #0x2ffff               	// #196607
ffffffff80007bf4:	6b00003f 	cmp	w1, w0
ffffffff80007bf8:	540000e9 	b.ls	ffffffff80007c14 <mk_wcwidth+0x1ec>  // b.plast
ffffffff80007bfc:	b9401fe1 	ldr	w1, [sp, #28]
ffffffff80007c00:	321f43e0 	mov	w0, #0x3fffe               	// #262142
ffffffff80007c04:	6b00003f 	cmp	w1, w0
ffffffff80007c08:	54000062 	b.cs	ffffffff80007c14 <mk_wcwidth+0x1ec>  // b.hs, b.nlast
ffffffff80007c0c:	52800020 	mov	w0, #0x1                   	// #1
ffffffff80007c10:	14000002 	b	ffffffff80007c18 <mk_wcwidth+0x1f0>
ffffffff80007c14:	52800000 	mov	w0, #0x0                   	// #0
ffffffff80007c18:	11000400 	add	w0, w0, #0x1
ffffffff80007c1c:	a8c27bfd 	ldp	x29, x30, [sp], #32
ffffffff80007c20:	d65f03c0 	ret

ffffffff80007c24 <unicode_to_cp437>:
ffffffff80007c24:	d10043ff 	sub	sp, sp, #0x10
ffffffff80007c28:	f90007e0 	str	x0, [sp, #8]
ffffffff80007c2c:	f94007e1 	ldr	x1, [sp, #8]
ffffffff80007c30:	d284cd60 	mov	x0, #0x266b                	// #9835
ffffffff80007c34:	eb00003f 	cmp	x1, x0
ffffffff80007c38:	540046c8 	b.hi	ffffffff80008510 <unicode_to_cp437+0x8ec>  // b.pmore
ffffffff80007c3c:	f94007e1 	ldr	x1, [sp, #8]
ffffffff80007c40:	d284a000 	mov	x0, #0x2500                	// #9472
ffffffff80007c44:	eb00003f 	cmp	x1, x0
ffffffff80007c48:	54001902 	b.cs	ffffffff80007f68 <unicode_to_cp437+0x344>  // b.hs, b.nlast
ffffffff80007c4c:	f94007e1 	ldr	x1, [sp, #8]
ffffffff80007c50:	d2846420 	mov	x0, #0x2321                	// #8993
ffffffff80007c54:	eb00003f 	cmp	x1, x0
ffffffff80007c58:	54004340 	b.eq	ffffffff800084c0 <unicode_to_cp437+0x89c>  // b.none
ffffffff80007c5c:	f94007e1 	ldr	x1, [sp, #8]
ffffffff80007c60:	d2846420 	mov	x0, #0x2321                	// #8993
ffffffff80007c64:	eb00003f 	cmp	x1, x0
ffffffff80007c68:	54004548 	b.hi	ffffffff80008510 <unicode_to_cp437+0x8ec>  // b.pmore
ffffffff80007c6c:	f94007e1 	ldr	x1, [sp, #8]
ffffffff80007c70:	d2846400 	mov	x0, #0x2320                	// #8992
ffffffff80007c74:	eb00003f 	cmp	x1, x0
ffffffff80007c78:	54004200 	b.eq	ffffffff800084b8 <unicode_to_cp437+0x894>  // b.none
ffffffff80007c7c:	f94007e1 	ldr	x1, [sp, #8]
ffffffff80007c80:	d2846400 	mov	x0, #0x2320                	// #8992
ffffffff80007c84:	eb00003f 	cmp	x1, x0
ffffffff80007c88:	54004448 	b.hi	ffffffff80008510 <unicode_to_cp437+0x8ec>  // b.pmore
ffffffff80007c8c:	f94007e1 	ldr	x1, [sp, #8]
ffffffff80007c90:	d2846200 	mov	x0, #0x2310                	// #8976
ffffffff80007c94:	eb00003f 	cmp	x1, x0
ffffffff80007c98:	54002e40 	b.eq	ffffffff80008260 <unicode_to_cp437+0x63c>  // b.none
ffffffff80007c9c:	f94007e1 	ldr	x1, [sp, #8]
ffffffff80007ca0:	d2846200 	mov	x0, #0x2310                	// #8976
ffffffff80007ca4:	eb00003f 	cmp	x1, x0
ffffffff80007ca8:	54004348 	b.hi	ffffffff80008510 <unicode_to_cp437+0x8ec>  // b.pmore
ffffffff80007cac:	f94007e1 	ldr	x1, [sp, #8]
ffffffff80007cb0:	d2846040 	mov	x0, #0x2302                	// #8962
ffffffff80007cb4:	eb00003f 	cmp	x1, x0
ffffffff80007cb8:	540022c0 	b.eq	ffffffff80008110 <unicode_to_cp437+0x4ec>  // b.none
ffffffff80007cbc:	f94007e1 	ldr	x1, [sp, #8]
ffffffff80007cc0:	d2846040 	mov	x0, #0x2302                	// #8962
ffffffff80007cc4:	eb00003f 	cmp	x1, x0
ffffffff80007cc8:	54004248 	b.hi	ffffffff80008510 <unicode_to_cp437+0x8ec>  // b.pmore
ffffffff80007ccc:	f94007e1 	ldr	x1, [sp, #8]
ffffffff80007cd0:	d2844ca0 	mov	x0, #0x2265                	// #8805
ffffffff80007cd4:	eb00003f 	cmp	x1, x0
ffffffff80007cd8:	54003e80 	b.eq	ffffffff800084a8 <unicode_to_cp437+0x884>  // b.none
ffffffff80007cdc:	f94007e1 	ldr	x1, [sp, #8]
ffffffff80007ce0:	d2844ca0 	mov	x0, #0x2265                	// #8805
ffffffff80007ce4:	eb00003f 	cmp	x1, x0
ffffffff80007ce8:	54004148 	b.hi	ffffffff80008510 <unicode_to_cp437+0x8ec>  // b.pmore
ffffffff80007cec:	f94007e1 	ldr	x1, [sp, #8]
ffffffff80007cf0:	d2844c80 	mov	x0, #0x2264                	// #8804
ffffffff80007cf4:	eb00003f 	cmp	x1, x0
ffffffff80007cf8:	54003dc0 	b.eq	ffffffff800084b0 <unicode_to_cp437+0x88c>  // b.none
ffffffff80007cfc:	f94007e1 	ldr	x1, [sp, #8]
ffffffff80007d00:	d2844c80 	mov	x0, #0x2264                	// #8804
ffffffff80007d04:	eb00003f 	cmp	x1, x0
ffffffff80007d08:	54004048 	b.hi	ffffffff80008510 <unicode_to_cp437+0x8ec>  // b.pmore
ffffffff80007d0c:	f94007e1 	ldr	x1, [sp, #8]
ffffffff80007d10:	d2844c20 	mov	x0, #0x2261                	// #8801
ffffffff80007d14:	eb00003f 	cmp	x1, x0
ffffffff80007d18:	54003c00 	b.eq	ffffffff80008498 <unicode_to_cp437+0x874>  // b.none
ffffffff80007d1c:	f94007e1 	ldr	x1, [sp, #8]
ffffffff80007d20:	d2844c20 	mov	x0, #0x2261                	// #8801
ffffffff80007d24:	eb00003f 	cmp	x1, x0
ffffffff80007d28:	54003f48 	b.hi	ffffffff80008510 <unicode_to_cp437+0x8ec>  // b.pmore
ffffffff80007d2c:	f94007e1 	ldr	x1, [sp, #8]
ffffffff80007d30:	d2844900 	mov	x0, #0x2248                	// #8776
ffffffff80007d34:	eb00003f 	cmp	x1, x0
ffffffff80007d38:	54003cc0 	b.eq	ffffffff800084d0 <unicode_to_cp437+0x8ac>  // b.none
ffffffff80007d3c:	f94007e1 	ldr	x1, [sp, #8]
ffffffff80007d40:	d2844900 	mov	x0, #0x2248                	// #8776
ffffffff80007d44:	eb00003f 	cmp	x1, x0
ffffffff80007d48:	54003e48 	b.hi	ffffffff80008510 <unicode_to_cp437+0x8ec>  // b.pmore
ffffffff80007d4c:	f94007e1 	ldr	x1, [sp, #8]
ffffffff80007d50:	d2844520 	mov	x0, #0x2229                	// #8745
ffffffff80007d54:	eb00003f 	cmp	x1, x0
ffffffff80007d58:	540039c0 	b.eq	ffffffff80008490 <unicode_to_cp437+0x86c>  // b.none
ffffffff80007d5c:	f94007e1 	ldr	x1, [sp, #8]
ffffffff80007d60:	d2844520 	mov	x0, #0x2229                	// #8745
ffffffff80007d64:	eb00003f 	cmp	x1, x0
ffffffff80007d68:	54003d48 	b.hi	ffffffff80008510 <unicode_to_cp437+0x8ec>  // b.pmore
ffffffff80007d6c:	f94007e1 	ldr	x1, [sp, #8]
ffffffff80007d70:	d28443e0 	mov	x0, #0x221f                	// #8735
ffffffff80007d74:	eb00003f 	cmp	x1, x0
ffffffff80007d78:	54001bc0 	b.eq	ffffffff800080f0 <unicode_to_cp437+0x4cc>  // b.none
ffffffff80007d7c:	f94007e1 	ldr	x1, [sp, #8]
ffffffff80007d80:	d28443e0 	mov	x0, #0x221f                	// #8735
ffffffff80007d84:	eb00003f 	cmp	x1, x0
ffffffff80007d88:	54003c48 	b.hi	ffffffff80008510 <unicode_to_cp437+0x8ec>  // b.pmore
ffffffff80007d8c:	f94007e1 	ldr	x1, [sp, #8]
ffffffff80007d90:	d28443c0 	mov	x0, #0x221e                	// #8734
ffffffff80007d94:	eb00003f 	cmp	x1, x0
ffffffff80007d98:	54003700 	b.eq	ffffffff80008478 <unicode_to_cp437+0x854>  // b.none
ffffffff80007d9c:	f94007e1 	ldr	x1, [sp, #8]
ffffffff80007da0:	d28443c0 	mov	x0, #0x221e                	// #8734
ffffffff80007da4:	eb00003f 	cmp	x1, x0
ffffffff80007da8:	54003b48 	b.hi	ffffffff80008510 <unicode_to_cp437+0x8ec>  // b.pmore
ffffffff80007dac:	f94007e1 	ldr	x1, [sp, #8]
ffffffff80007db0:	d2844340 	mov	x0, #0x221a                	// #8730
ffffffff80007db4:	eb00003f 	cmp	x1, x0
ffffffff80007db8:	540039c0 	b.eq	ffffffff800084f0 <unicode_to_cp437+0x8cc>  // b.none
ffffffff80007dbc:	f94007e1 	ldr	x1, [sp, #8]
ffffffff80007dc0:	d2844340 	mov	x0, #0x221a                	// #8730
ffffffff80007dc4:	eb00003f 	cmp	x1, x0
ffffffff80007dc8:	54003a48 	b.hi	ffffffff80008510 <unicode_to_cp437+0x8ec>  // b.pmore
ffffffff80007dcc:	f94007e1 	ldr	x1, [sp, #8]
ffffffff80007dd0:	d2844320 	mov	x0, #0x2219                	// #8729
ffffffff80007dd4:	eb00003f 	cmp	x1, x0
ffffffff80007dd8:	54003840 	b.eq	ffffffff800084e0 <unicode_to_cp437+0x8bc>  // b.none
ffffffff80007ddc:	f94007e1 	ldr	x1, [sp, #8]
ffffffff80007de0:	d2844320 	mov	x0, #0x2219                	// #8729
ffffffff80007de4:	eb00003f 	cmp	x1, x0
ffffffff80007de8:	54003948 	b.hi	ffffffff80008510 <unicode_to_cp437+0x8ec>  // b.pmore
ffffffff80007dec:	f94007e1 	ldr	x1, [sp, #8]
ffffffff80007df0:	d2843500 	mov	x0, #0x21a8                	// #8616
ffffffff80007df4:	eb00003f 	cmp	x1, x0
ffffffff80007df8:	54001680 	b.eq	ffffffff800080c8 <unicode_to_cp437+0x4a4>  // b.none
ffffffff80007dfc:	f94007e1 	ldr	x1, [sp, #8]
ffffffff80007e00:	d2843500 	mov	x0, #0x21a8                	// #8616
ffffffff80007e04:	eb00003f 	cmp	x1, x0
ffffffff80007e08:	54003848 	b.hi	ffffffff80008510 <unicode_to_cp437+0x8ec>  // b.pmore
ffffffff80007e0c:	f94007e1 	ldr	x1, [sp, #8]
ffffffff80007e10:	d28432a0 	mov	x0, #0x2195                	// #8597
ffffffff80007e14:	eb00003f 	cmp	x1, x0
ffffffff80007e18:	54001440 	b.eq	ffffffff800080a0 <unicode_to_cp437+0x47c>  // b.none
ffffffff80007e1c:	f94007e1 	ldr	x1, [sp, #8]
ffffffff80007e20:	d28432a0 	mov	x0, #0x2195                	// #8597
ffffffff80007e24:	eb00003f 	cmp	x1, x0
ffffffff80007e28:	54003748 	b.hi	ffffffff80008510 <unicode_to_cp437+0x8ec>  // b.pmore
ffffffff80007e2c:	f94007e1 	ldr	x1, [sp, #8]
ffffffff80007e30:	d2843280 	mov	x0, #0x2194                	// #8596
ffffffff80007e34:	eb00003f 	cmp	x1, x0
ffffffff80007e38:	54001600 	b.eq	ffffffff800080f8 <unicode_to_cp437+0x4d4>  // b.none
ffffffff80007e3c:	f94007e1 	ldr	x1, [sp, #8]
ffffffff80007e40:	d2843280 	mov	x0, #0x2194                	// #8596
ffffffff80007e44:	eb00003f 	cmp	x1, x0
ffffffff80007e48:	54003648 	b.hi	ffffffff80008510 <unicode_to_cp437+0x8ec>  // b.pmore
ffffffff80007e4c:	f94007e1 	ldr	x1, [sp, #8]
ffffffff80007e50:	d2843260 	mov	x0, #0x2193                	// #8595
ffffffff80007e54:	eb00003f 	cmp	x1, x0
ffffffff80007e58:	54001400 	b.eq	ffffffff800080d8 <unicode_to_cp437+0x4b4>  // b.none
ffffffff80007e5c:	f94007e1 	ldr	x1, [sp, #8]
ffffffff80007e60:	d2843260 	mov	x0, #0x2193                	// #8595
ffffffff80007e64:	eb00003f 	cmp	x1, x0
ffffffff80007e68:	54003548 	b.hi	ffffffff80008510 <unicode_to_cp437+0x8ec>  // b.pmore
ffffffff80007e6c:	f94007e1 	ldr	x1, [sp, #8]
ffffffff80007e70:	d2843240 	mov	x0, #0x2192                	// #8594
ffffffff80007e74:	eb00003f 	cmp	x1, x0
ffffffff80007e78:	54001340 	b.eq	ffffffff800080e0 <unicode_to_cp437+0x4bc>  // b.none
ffffffff80007e7c:	f94007e1 	ldr	x1, [sp, #8]
ffffffff80007e80:	d2843240 	mov	x0, #0x2192                	// #8594
ffffffff80007e84:	eb00003f 	cmp	x1, x0
ffffffff80007e88:	54003448 	b.hi	ffffffff80008510 <unicode_to_cp437+0x8ec>  // b.pmore
ffffffff80007e8c:	f94007e1 	ldr	x1, [sp, #8]
ffffffff80007e90:	d2843220 	mov	x0, #0x2191                	// #8593
ffffffff80007e94:	eb00003f 	cmp	x1, x0
ffffffff80007e98:	540011c0 	b.eq	ffffffff800080d0 <unicode_to_cp437+0x4ac>  // b.none
ffffffff80007e9c:	f94007e1 	ldr	x1, [sp, #8]
ffffffff80007ea0:	d2843220 	mov	x0, #0x2191                	// #8593
ffffffff80007ea4:	eb00003f 	cmp	x1, x0
ffffffff80007ea8:	54003348 	b.hi	ffffffff80008510 <unicode_to_cp437+0x8ec>  // b.pmore
ffffffff80007eac:	f94007e1 	ldr	x1, [sp, #8]
ffffffff80007eb0:	d2843200 	mov	x0, #0x2190                	// #8592
ffffffff80007eb4:	eb00003f 	cmp	x1, x0
ffffffff80007eb8:	54001180 	b.eq	ffffffff800080e8 <unicode_to_cp437+0x4c4>  // b.none
ffffffff80007ebc:	f94007e1 	ldr	x1, [sp, #8]
ffffffff80007ec0:	d2843200 	mov	x0, #0x2190                	// #8592
ffffffff80007ec4:	eb00003f 	cmp	x1, x0
ffffffff80007ec8:	54003248 	b.hi	ffffffff80008510 <unicode_to_cp437+0x8ec>  // b.pmore
ffffffff80007ecc:	f94007e1 	ldr	x1, [sp, #8]
ffffffff80007ed0:	d28414e0 	mov	x0, #0x20a7                	// #8359
ffffffff80007ed4:	eb00003f 	cmp	x1, x0
ffffffff80007ed8:	54001980 	b.eq	ffffffff80008208 <unicode_to_cp437+0x5e4>  // b.none
ffffffff80007edc:	f94007e1 	ldr	x1, [sp, #8]
ffffffff80007ee0:	d28414e0 	mov	x0, #0x20a7                	// #8359
ffffffff80007ee4:	eb00003f 	cmp	x1, x0
ffffffff80007ee8:	54003148 	b.hi	ffffffff80008510 <unicode_to_cp437+0x8ec>  // b.pmore
ffffffff80007eec:	f94007e1 	ldr	x1, [sp, #8]
ffffffff80007ef0:	d2840fe0 	mov	x0, #0x207f                	// #8319
ffffffff80007ef4:	eb00003f 	cmp	x1, x0
ffffffff80007ef8:	54003000 	b.eq	ffffffff800084f8 <unicode_to_cp437+0x8d4>  // b.none
ffffffff80007efc:	f94007e1 	ldr	x1, [sp, #8]
ffffffff80007f00:	d2840fe0 	mov	x0, #0x207f                	// #8319
ffffffff80007f04:	eb00003f 	cmp	x1, x0
ffffffff80007f08:	54003048 	b.hi	ffffffff80008510 <unicode_to_cp437+0x8ec>  // b.pmore
ffffffff80007f0c:	f94007e1 	ldr	x1, [sp, #8]
ffffffff80007f10:	d2840780 	mov	x0, #0x203c                	// #8252
ffffffff80007f14:	eb00003f 	cmp	x1, x0
ffffffff80007f18:	54000c80 	b.eq	ffffffff800080a8 <unicode_to_cp437+0x484>  // b.none
ffffffff80007f1c:	f94007e1 	ldr	x1, [sp, #8]
ffffffff80007f20:	d2840780 	mov	x0, #0x203c                	// #8252
ffffffff80007f24:	eb00003f 	cmp	x1, x0
ffffffff80007f28:	54002f48 	b.hi	ffffffff80008510 <unicode_to_cp437+0x8ec>  // b.pmore
ffffffff80007f2c:	f94007e1 	ldr	x1, [sp, #8]
ffffffff80007f30:	d2840440 	mov	x0, #0x2022                	// #8226
ffffffff80007f34:	eb00003f 	cmp	x1, x0
ffffffff80007f38:	54000880 	b.eq	ffffffff80008048 <unicode_to_cp437+0x424>  // b.none
ffffffff80007f3c:	f94007e1 	ldr	x1, [sp, #8]
ffffffff80007f40:	d2840440 	mov	x0, #0x2022                	// #8226
ffffffff80007f44:	eb00003f 	cmp	x1, x0
ffffffff80007f48:	54002e48 	b.hi	ffffffff80008510 <unicode_to_cp437+0x8ec>  // b.pmore
ffffffff80007f4c:	f94007e0 	ldr	x0, [sp, #8]
ffffffff80007f50:	f106481f 	cmp	x0, #0x192
ffffffff80007f54:	54000548 	b.hi	ffffffff80007ffc <unicode_to_cp437+0x3d8>  // b.pmore
ffffffff80007f58:	f94007e0 	ldr	x0, [sp, #8]
ffffffff80007f5c:	f102841f 	cmp	x0, #0xa1
ffffffff80007f60:	54000362 	b.cs	ffffffff80007fcc <unicode_to_cp437+0x3a8>  // b.hs, b.nlast
ffffffff80007f64:	1400016b 	b	ffffffff80008510 <unicode_to_cp437+0x8ec>
ffffffff80007f68:	f94007e1 	ldr	x1, [sp, #8]
ffffffff80007f6c:	92849fe0 	mov	x0, #0xffffffffffffdb00    	// #-9472
ffffffff80007f70:	8b000020 	add	x0, x1, x0
ffffffff80007f74:	f105ac1f 	cmp	x0, #0x16b
ffffffff80007f78:	54002cc8 	b.hi	ffffffff80008510 <unicode_to_cp437+0x8ec>  // b.pmore
ffffffff80007f7c:	7105ac1f 	cmp	w0, #0x16b
ffffffff80007f80:	54002c88 	b.hi	ffffffff80008510 <unicode_to_cp437+0x8ec>  // b.pmore
ffffffff80007f84:	f0000081 	adrp	x1, ffffffff8001a000 <builtin_font+0x720>
ffffffff80007f88:	913b2021 	add	x1, x1, #0xec8
ffffffff80007f8c:	b8605820 	ldr	w0, [x1, w0, uxtw #2]
ffffffff80007f90:	10000061 	adr	x1, ffffffff80007f9c <unicode_to_cp437+0x378>
ffffffff80007f94:	8b20c820 	add	x0, x1, w0, sxtw #2
ffffffff80007f98:	d61f0000 	br	x0
ffffffff80007f9c:	f94007e0 	ldr	x0, [sp, #8]
ffffffff80007fa0:	d10e4c00 	sub	x0, x0, #0x393
ffffffff80007fa4:	f100cc1f 	cmp	x0, #0x33
ffffffff80007fa8:	54002b48 	b.hi	ffffffff80008510 <unicode_to_cp437+0x8ec>  // b.pmore
ffffffff80007fac:	7100cc1f 	cmp	w0, #0x33
ffffffff80007fb0:	54002b08 	b.hi	ffffffff80008510 <unicode_to_cp437+0x8ec>  // b.pmore
ffffffff80007fb4:	900000a1 	adrp	x1, ffffffff8001b000 <col256+0x720>
ffffffff80007fb8:	9111e021 	add	x1, x1, #0x478
ffffffff80007fbc:	b8605820 	ldr	w0, [x1, w0, uxtw #2]
ffffffff80007fc0:	10000061 	adr	x1, ffffffff80007fcc <unicode_to_cp437+0x3a8>
ffffffff80007fc4:	8b20c820 	add	x0, x1, w0, sxtw #2
ffffffff80007fc8:	d61f0000 	br	x0
ffffffff80007fcc:	f94007e0 	ldr	x0, [sp, #8]
ffffffff80007fd0:	d1028400 	sub	x0, x0, #0xa1
ffffffff80007fd4:	f103c41f 	cmp	x0, #0xf1
ffffffff80007fd8:	540029c8 	b.hi	ffffffff80008510 <unicode_to_cp437+0x8ec>  // b.pmore
ffffffff80007fdc:	7103c41f 	cmp	w0, #0xf1
ffffffff80007fe0:	54002988 	b.hi	ffffffff80008510 <unicode_to_cp437+0x8ec>  // b.pmore
ffffffff80007fe4:	900000a1 	adrp	x1, ffffffff8001b000 <col256+0x720>
ffffffff80007fe8:	91152021 	add	x1, x1, #0x548
ffffffff80007fec:	b8605820 	ldr	w0, [x1, w0, uxtw #2]
ffffffff80007ff0:	10000061 	adr	x1, ffffffff80007ffc <unicode_to_cp437+0x3d8>
ffffffff80007ff4:	8b20c820 	add	x0, x1, w0, sxtw #2
ffffffff80007ff8:	d61f0000 	br	x0
ffffffff80007ffc:	f94007e0 	ldr	x0, [sp, #8]
ffffffff80008000:	f10f181f 	cmp	x0, #0x3c6
ffffffff80008004:	54002868 	b.hi	ffffffff80008510 <unicode_to_cp437+0x8ec>  // b.pmore
ffffffff80008008:	f94007e0 	ldr	x0, [sp, #8]
ffffffff8000800c:	f10e4c1f 	cmp	x0, #0x393
ffffffff80008010:	54fffc62 	b.cs	ffffffff80007f9c <unicode_to_cp437+0x378>  // b.hs, b.nlast
ffffffff80008014:	1400013f 	b	ffffffff80008510 <unicode_to_cp437+0x8ec>
ffffffff80008018:	52800020 	mov	w0, #0x1                   	// #1
ffffffff8000801c:	1400013e 	b	ffffffff80008514 <unicode_to_cp437+0x8f0>
ffffffff80008020:	52800040 	mov	w0, #0x2                   	// #2
ffffffff80008024:	1400013c 	b	ffffffff80008514 <unicode_to_cp437+0x8f0>
ffffffff80008028:	52800060 	mov	w0, #0x3                   	// #3
ffffffff8000802c:	1400013a 	b	ffffffff80008514 <unicode_to_cp437+0x8f0>
ffffffff80008030:	52800080 	mov	w0, #0x4                   	// #4
ffffffff80008034:	14000138 	b	ffffffff80008514 <unicode_to_cp437+0x8f0>
ffffffff80008038:	528000a0 	mov	w0, #0x5                   	// #5
ffffffff8000803c:	14000136 	b	ffffffff80008514 <unicode_to_cp437+0x8f0>
ffffffff80008040:	528000c0 	mov	w0, #0x6                   	// #6
ffffffff80008044:	14000134 	b	ffffffff80008514 <unicode_to_cp437+0x8f0>
ffffffff80008048:	528000e0 	mov	w0, #0x7                   	// #7
ffffffff8000804c:	14000132 	b	ffffffff80008514 <unicode_to_cp437+0x8f0>
ffffffff80008050:	52800100 	mov	w0, #0x8                   	// #8
ffffffff80008054:	14000130 	b	ffffffff80008514 <unicode_to_cp437+0x8f0>
ffffffff80008058:	52800120 	mov	w0, #0x9                   	// #9
ffffffff8000805c:	1400012e 	b	ffffffff80008514 <unicode_to_cp437+0x8f0>
ffffffff80008060:	52800140 	mov	w0, #0xa                   	// #10
ffffffff80008064:	1400012c 	b	ffffffff80008514 <unicode_to_cp437+0x8f0>
ffffffff80008068:	52800160 	mov	w0, #0xb                   	// #11
ffffffff8000806c:	1400012a 	b	ffffffff80008514 <unicode_to_cp437+0x8f0>
ffffffff80008070:	52800180 	mov	w0, #0xc                   	// #12
ffffffff80008074:	14000128 	b	ffffffff80008514 <unicode_to_cp437+0x8f0>
ffffffff80008078:	528001a0 	mov	w0, #0xd                   	// #13
ffffffff8000807c:	14000126 	b	ffffffff80008514 <unicode_to_cp437+0x8f0>
ffffffff80008080:	528001c0 	mov	w0, #0xe                   	// #14
ffffffff80008084:	14000124 	b	ffffffff80008514 <unicode_to_cp437+0x8f0>
ffffffff80008088:	528001e0 	mov	w0, #0xf                   	// #15
ffffffff8000808c:	14000122 	b	ffffffff80008514 <unicode_to_cp437+0x8f0>
ffffffff80008090:	52800200 	mov	w0, #0x10                  	// #16
ffffffff80008094:	14000120 	b	ffffffff80008514 <unicode_to_cp437+0x8f0>
ffffffff80008098:	52800220 	mov	w0, #0x11                  	// #17
ffffffff8000809c:	1400011e 	b	ffffffff80008514 <unicode_to_cp437+0x8f0>
ffffffff800080a0:	52800240 	mov	w0, #0x12                  	// #18
ffffffff800080a4:	1400011c 	b	ffffffff80008514 <unicode_to_cp437+0x8f0>
ffffffff800080a8:	52800260 	mov	w0, #0x13                  	// #19
ffffffff800080ac:	1400011a 	b	ffffffff80008514 <unicode_to_cp437+0x8f0>
ffffffff800080b0:	52800280 	mov	w0, #0x14                  	// #20
ffffffff800080b4:	14000118 	b	ffffffff80008514 <unicode_to_cp437+0x8f0>
ffffffff800080b8:	528002a0 	mov	w0, #0x15                  	// #21
ffffffff800080bc:	14000116 	b	ffffffff80008514 <unicode_to_cp437+0x8f0>
ffffffff800080c0:	528002c0 	mov	w0, #0x16                  	// #22
ffffffff800080c4:	14000114 	b	ffffffff80008514 <unicode_to_cp437+0x8f0>
ffffffff800080c8:	528002e0 	mov	w0, #0x17                  	// #23
ffffffff800080cc:	14000112 	b	ffffffff80008514 <unicode_to_cp437+0x8f0>
ffffffff800080d0:	52800300 	mov	w0, #0x18                  	// #24
ffffffff800080d4:	14000110 	b	ffffffff80008514 <unicode_to_cp437+0x8f0>
ffffffff800080d8:	52800320 	mov	w0, #0x19                  	// #25
ffffffff800080dc:	1400010e 	b	ffffffff80008514 <unicode_to_cp437+0x8f0>
ffffffff800080e0:	52800340 	mov	w0, #0x1a                  	// #26
ffffffff800080e4:	1400010c 	b	ffffffff80008514 <unicode_to_cp437+0x8f0>
ffffffff800080e8:	52800360 	mov	w0, #0x1b                  	// #27
ffffffff800080ec:	1400010a 	b	ffffffff80008514 <unicode_to_cp437+0x8f0>
ffffffff800080f0:	52800380 	mov	w0, #0x1c                  	// #28
ffffffff800080f4:	14000108 	b	ffffffff80008514 <unicode_to_cp437+0x8f0>
ffffffff800080f8:	528003a0 	mov	w0, #0x1d                  	// #29
ffffffff800080fc:	14000106 	b	ffffffff80008514 <unicode_to_cp437+0x8f0>
ffffffff80008100:	528003c0 	mov	w0, #0x1e                  	// #30
ffffffff80008104:	14000104 	b	ffffffff80008514 <unicode_to_cp437+0x8f0>
ffffffff80008108:	528003e0 	mov	w0, #0x1f                  	// #31
ffffffff8000810c:	14000102 	b	ffffffff80008514 <unicode_to_cp437+0x8f0>
ffffffff80008110:	52800fe0 	mov	w0, #0x7f                  	// #127
ffffffff80008114:	14000100 	b	ffffffff80008514 <unicode_to_cp437+0x8f0>
ffffffff80008118:	52801000 	mov	w0, #0x80                  	// #128
ffffffff8000811c:	140000fe 	b	ffffffff80008514 <unicode_to_cp437+0x8f0>
ffffffff80008120:	52801020 	mov	w0, #0x81                  	// #129
ffffffff80008124:	140000fc 	b	ffffffff80008514 <unicode_to_cp437+0x8f0>
ffffffff80008128:	52801040 	mov	w0, #0x82                  	// #130
ffffffff8000812c:	140000fa 	b	ffffffff80008514 <unicode_to_cp437+0x8f0>
ffffffff80008130:	52801060 	mov	w0, #0x83                  	// #131
ffffffff80008134:	140000f8 	b	ffffffff80008514 <unicode_to_cp437+0x8f0>
ffffffff80008138:	52801080 	mov	w0, #0x84                  	// #132
ffffffff8000813c:	140000f6 	b	ffffffff80008514 <unicode_to_cp437+0x8f0>
ffffffff80008140:	528010a0 	mov	w0, #0x85                  	// #133
ffffffff80008144:	140000f4 	b	ffffffff80008514 <unicode_to_cp437+0x8f0>
ffffffff80008148:	528010c0 	mov	w0, #0x86                  	// #134
ffffffff8000814c:	140000f2 	b	ffffffff80008514 <unicode_to_cp437+0x8f0>
ffffffff80008150:	528010e0 	mov	w0, #0x87                  	// #135
ffffffff80008154:	140000f0 	b	ffffffff80008514 <unicode_to_cp437+0x8f0>
ffffffff80008158:	52801100 	mov	w0, #0x88                  	// #136
ffffffff8000815c:	140000ee 	b	ffffffff80008514 <unicode_to_cp437+0x8f0>
ffffffff80008160:	52801120 	mov	w0, #0x89                  	// #137
ffffffff80008164:	140000ec 	b	ffffffff80008514 <unicode_to_cp437+0x8f0>
ffffffff80008168:	52801140 	mov	w0, #0x8a                  	// #138
ffffffff8000816c:	140000ea 	b	ffffffff80008514 <unicode_to_cp437+0x8f0>
ffffffff80008170:	52801160 	mov	w0, #0x8b                  	// #139
ffffffff80008174:	140000e8 	b	ffffffff80008514 <unicode_to_cp437+0x8f0>
ffffffff80008178:	52801180 	mov	w0, #0x8c                  	// #140
ffffffff8000817c:	140000e6 	b	ffffffff80008514 <unicode_to_cp437+0x8f0>
ffffffff80008180:	528011a0 	mov	w0, #0x8d                  	// #141
ffffffff80008184:	140000e4 	b	ffffffff80008514 <unicode_to_cp437+0x8f0>
ffffffff80008188:	528011c0 	mov	w0, #0x8e                  	// #142
ffffffff8000818c:	140000e2 	b	ffffffff80008514 <unicode_to_cp437+0x8f0>
ffffffff80008190:	528011e0 	mov	w0, #0x8f                  	// #143
ffffffff80008194:	140000e0 	b	ffffffff80008514 <unicode_to_cp437+0x8f0>
ffffffff80008198:	52801200 	mov	w0, #0x90                  	// #144
ffffffff8000819c:	140000de 	b	ffffffff80008514 <unicode_to_cp437+0x8f0>
ffffffff800081a0:	52801220 	mov	w0, #0x91                  	// #145
ffffffff800081a4:	140000dc 	b	ffffffff80008514 <unicode_to_cp437+0x8f0>
ffffffff800081a8:	52801240 	mov	w0, #0x92                  	// #146
ffffffff800081ac:	140000da 	b	ffffffff80008514 <unicode_to_cp437+0x8f0>
ffffffff800081b0:	52801260 	mov	w0, #0x93                  	// #147
ffffffff800081b4:	140000d8 	b	ffffffff80008514 <unicode_to_cp437+0x8f0>
ffffffff800081b8:	52801280 	mov	w0, #0x94                  	// #148
ffffffff800081bc:	140000d6 	b	ffffffff80008514 <unicode_to_cp437+0x8f0>
ffffffff800081c0:	528012a0 	mov	w0, #0x95                  	// #149
ffffffff800081c4:	140000d4 	b	ffffffff80008514 <unicode_to_cp437+0x8f0>
ffffffff800081c8:	528012c0 	mov	w0, #0x96                  	// #150
ffffffff800081cc:	140000d2 	b	ffffffff80008514 <unicode_to_cp437+0x8f0>
ffffffff800081d0:	528012e0 	mov	w0, #0x97                  	// #151
ffffffff800081d4:	140000d0 	b	ffffffff80008514 <unicode_to_cp437+0x8f0>
ffffffff800081d8:	52801300 	mov	w0, #0x98                  	// #152
ffffffff800081dc:	140000ce 	b	ffffffff80008514 <unicode_to_cp437+0x8f0>
ffffffff800081e0:	52801320 	mov	w0, #0x99                  	// #153
ffffffff800081e4:	140000cc 	b	ffffffff80008514 <unicode_to_cp437+0x8f0>
ffffffff800081e8:	52801340 	mov	w0, #0x9a                  	// #154
ffffffff800081ec:	140000ca 	b	ffffffff80008514 <unicode_to_cp437+0x8f0>
ffffffff800081f0:	52801360 	mov	w0, #0x9b                  	// #155
ffffffff800081f4:	140000c8 	b	ffffffff80008514 <unicode_to_cp437+0x8f0>
ffffffff800081f8:	52801380 	mov	w0, #0x9c                  	// #156
ffffffff800081fc:	140000c6 	b	ffffffff80008514 <unicode_to_cp437+0x8f0>
ffffffff80008200:	528013a0 	mov	w0, #0x9d                  	// #157
ffffffff80008204:	140000c4 	b	ffffffff80008514 <unicode_to_cp437+0x8f0>
ffffffff80008208:	528013c0 	mov	w0, #0x9e                  	// #158
ffffffff8000820c:	140000c2 	b	ffffffff80008514 <unicode_to_cp437+0x8f0>
ffffffff80008210:	528013e0 	mov	w0, #0x9f                  	// #159
ffffffff80008214:	140000c0 	b	ffffffff80008514 <unicode_to_cp437+0x8f0>
ffffffff80008218:	52801400 	mov	w0, #0xa0                  	// #160
ffffffff8000821c:	140000be 	b	ffffffff80008514 <unicode_to_cp437+0x8f0>
ffffffff80008220:	52801420 	mov	w0, #0xa1                  	// #161
ffffffff80008224:	140000bc 	b	ffffffff80008514 <unicode_to_cp437+0x8f0>
ffffffff80008228:	52801440 	mov	w0, #0xa2                  	// #162
ffffffff8000822c:	140000ba 	b	ffffffff80008514 <unicode_to_cp437+0x8f0>
ffffffff80008230:	52801460 	mov	w0, #0xa3                  	// #163
ffffffff80008234:	140000b8 	b	ffffffff80008514 <unicode_to_cp437+0x8f0>
ffffffff80008238:	52801480 	mov	w0, #0xa4                  	// #164
ffffffff8000823c:	140000b6 	b	ffffffff80008514 <unicode_to_cp437+0x8f0>
ffffffff80008240:	528014a0 	mov	w0, #0xa5                  	// #165
ffffffff80008244:	140000b4 	b	ffffffff80008514 <unicode_to_cp437+0x8f0>
ffffffff80008248:	528014c0 	mov	w0, #0xa6                  	// #166
ffffffff8000824c:	140000b2 	b	ffffffff80008514 <unicode_to_cp437+0x8f0>
ffffffff80008250:	528014e0 	mov	w0, #0xa7                  	// #167
ffffffff80008254:	140000b0 	b	ffffffff80008514 <unicode_to_cp437+0x8f0>
ffffffff80008258:	52801500 	mov	w0, #0xa8                  	// #168
ffffffff8000825c:	140000ae 	b	ffffffff80008514 <unicode_to_cp437+0x8f0>
ffffffff80008260:	52801520 	mov	w0, #0xa9                  	// #169
ffffffff80008264:	140000ac 	b	ffffffff80008514 <unicode_to_cp437+0x8f0>
ffffffff80008268:	52801540 	mov	w0, #0xaa                  	// #170
ffffffff8000826c:	140000aa 	b	ffffffff80008514 <unicode_to_cp437+0x8f0>
ffffffff80008270:	52801560 	mov	w0, #0xab                  	// #171
ffffffff80008274:	140000a8 	b	ffffffff80008514 <unicode_to_cp437+0x8f0>
ffffffff80008278:	52801580 	mov	w0, #0xac                  	// #172
ffffffff8000827c:	140000a6 	b	ffffffff80008514 <unicode_to_cp437+0x8f0>
ffffffff80008280:	528015a0 	mov	w0, #0xad                  	// #173
ffffffff80008284:	140000a4 	b	ffffffff80008514 <unicode_to_cp437+0x8f0>
ffffffff80008288:	528015c0 	mov	w0, #0xae                  	// #174
ffffffff8000828c:	140000a2 	b	ffffffff80008514 <unicode_to_cp437+0x8f0>
ffffffff80008290:	528015e0 	mov	w0, #0xaf                  	// #175
ffffffff80008294:	140000a0 	b	ffffffff80008514 <unicode_to_cp437+0x8f0>
ffffffff80008298:	52801600 	mov	w0, #0xb0                  	// #176
ffffffff8000829c:	1400009e 	b	ffffffff80008514 <unicode_to_cp437+0x8f0>
ffffffff800082a0:	52801620 	mov	w0, #0xb1                  	// #177
ffffffff800082a4:	1400009c 	b	ffffffff80008514 <unicode_to_cp437+0x8f0>
ffffffff800082a8:	52801640 	mov	w0, #0xb2                  	// #178
ffffffff800082ac:	1400009a 	b	ffffffff80008514 <unicode_to_cp437+0x8f0>
ffffffff800082b0:	52801660 	mov	w0, #0xb3                  	// #179
ffffffff800082b4:	14000098 	b	ffffffff80008514 <unicode_to_cp437+0x8f0>
ffffffff800082b8:	52801680 	mov	w0, #0xb4                  	// #180
ffffffff800082bc:	14000096 	b	ffffffff80008514 <unicode_to_cp437+0x8f0>
ffffffff800082c0:	528016a0 	mov	w0, #0xb5                  	// #181
ffffffff800082c4:	14000094 	b	ffffffff80008514 <unicode_to_cp437+0x8f0>
ffffffff800082c8:	528016c0 	mov	w0, #0xb6                  	// #182
ffffffff800082cc:	14000092 	b	ffffffff80008514 <unicode_to_cp437+0x8f0>
ffffffff800082d0:	528016e0 	mov	w0, #0xb7                  	// #183
ffffffff800082d4:	14000090 	b	ffffffff80008514 <unicode_to_cp437+0x8f0>
ffffffff800082d8:	52801700 	mov	w0, #0xb8                  	// #184
ffffffff800082dc:	1400008e 	b	ffffffff80008514 <unicode_to_cp437+0x8f0>
ffffffff800082e0:	52801720 	mov	w0, #0xb9                  	// #185
ffffffff800082e4:	1400008c 	b	ffffffff80008514 <unicode_to_cp437+0x8f0>
ffffffff800082e8:	52801740 	mov	w0, #0xba                  	// #186
ffffffff800082ec:	1400008a 	b	ffffffff80008514 <unicode_to_cp437+0x8f0>
ffffffff800082f0:	52801760 	mov	w0, #0xbb                  	// #187
ffffffff800082f4:	14000088 	b	ffffffff80008514 <unicode_to_cp437+0x8f0>
ffffffff800082f8:	52801780 	mov	w0, #0xbc                  	// #188
ffffffff800082fc:	14000086 	b	ffffffff80008514 <unicode_to_cp437+0x8f0>
ffffffff80008300:	528017a0 	mov	w0, #0xbd                  	// #189
ffffffff80008304:	14000084 	b	ffffffff80008514 <unicode_to_cp437+0x8f0>
ffffffff80008308:	528017c0 	mov	w0, #0xbe                  	// #190
ffffffff8000830c:	14000082 	b	ffffffff80008514 <unicode_to_cp437+0x8f0>
ffffffff80008310:	528017e0 	mov	w0, #0xbf                  	// #191
ffffffff80008314:	14000080 	b	ffffffff80008514 <unicode_to_cp437+0x8f0>
ffffffff80008318:	52801800 	mov	w0, #0xc0                  	// #192
ffffffff8000831c:	1400007e 	b	ffffffff80008514 <unicode_to_cp437+0x8f0>
ffffffff80008320:	52801820 	mov	w0, #0xc1                  	// #193
ffffffff80008324:	1400007c 	b	ffffffff80008514 <unicode_to_cp437+0x8f0>
ffffffff80008328:	52801840 	mov	w0, #0xc2                  	// #194
ffffffff8000832c:	1400007a 	b	ffffffff80008514 <unicode_to_cp437+0x8f0>
ffffffff80008330:	52801860 	mov	w0, #0xc3                  	// #195
ffffffff80008334:	14000078 	b	ffffffff80008514 <unicode_to_cp437+0x8f0>
ffffffff80008338:	52801880 	mov	w0, #0xc4                  	// #196
ffffffff8000833c:	14000076 	b	ffffffff80008514 <unicode_to_cp437+0x8f0>
ffffffff80008340:	528018a0 	mov	w0, #0xc5                  	// #197
ffffffff80008344:	14000074 	b	ffffffff80008514 <unicode_to_cp437+0x8f0>
ffffffff80008348:	528018c0 	mov	w0, #0xc6                  	// #198
ffffffff8000834c:	14000072 	b	ffffffff80008514 <unicode_to_cp437+0x8f0>
ffffffff80008350:	528018e0 	mov	w0, #0xc7                  	// #199
ffffffff80008354:	14000070 	b	ffffffff80008514 <unicode_to_cp437+0x8f0>
ffffffff80008358:	52801900 	mov	w0, #0xc8                  	// #200
ffffffff8000835c:	1400006e 	b	ffffffff80008514 <unicode_to_cp437+0x8f0>
ffffffff80008360:	52801920 	mov	w0, #0xc9                  	// #201
ffffffff80008364:	1400006c 	b	ffffffff80008514 <unicode_to_cp437+0x8f0>
ffffffff80008368:	52801940 	mov	w0, #0xca                  	// #202
ffffffff8000836c:	1400006a 	b	ffffffff80008514 <unicode_to_cp437+0x8f0>
ffffffff80008370:	52801960 	mov	w0, #0xcb                  	// #203
ffffffff80008374:	14000068 	b	ffffffff80008514 <unicode_to_cp437+0x8f0>
ffffffff80008378:	52801980 	mov	w0, #0xcc                  	// #204
ffffffff8000837c:	14000066 	b	ffffffff80008514 <unicode_to_cp437+0x8f0>
ffffffff80008380:	528019a0 	mov	w0, #0xcd                  	// #205
ffffffff80008384:	14000064 	b	ffffffff80008514 <unicode_to_cp437+0x8f0>
ffffffff80008388:	528019c0 	mov	w0, #0xce                  	// #206
ffffffff8000838c:	14000062 	b	ffffffff80008514 <unicode_to_cp437+0x8f0>
ffffffff80008390:	528019e0 	mov	w0, #0xcf                  	// #207
ffffffff80008394:	14000060 	b	ffffffff80008514 <unicode_to_cp437+0x8f0>
ffffffff80008398:	52801a00 	mov	w0, #0xd0                  	// #208
ffffffff8000839c:	1400005e 	b	ffffffff80008514 <unicode_to_cp437+0x8f0>
ffffffff800083a0:	52801a20 	mov	w0, #0xd1                  	// #209
ffffffff800083a4:	1400005c 	b	ffffffff80008514 <unicode_to_cp437+0x8f0>
ffffffff800083a8:	52801a40 	mov	w0, #0xd2                  	// #210
ffffffff800083ac:	1400005a 	b	ffffffff80008514 <unicode_to_cp437+0x8f0>
ffffffff800083b0:	52801a60 	mov	w0, #0xd3                  	// #211
ffffffff800083b4:	14000058 	b	ffffffff80008514 <unicode_to_cp437+0x8f0>
ffffffff800083b8:	52801a80 	mov	w0, #0xd4                  	// #212
ffffffff800083bc:	14000056 	b	ffffffff80008514 <unicode_to_cp437+0x8f0>
ffffffff800083c0:	52801aa0 	mov	w0, #0xd5                  	// #213
ffffffff800083c4:	14000054 	b	ffffffff80008514 <unicode_to_cp437+0x8f0>
ffffffff800083c8:	52801ac0 	mov	w0, #0xd6                  	// #214
ffffffff800083cc:	14000052 	b	ffffffff80008514 <unicode_to_cp437+0x8f0>
ffffffff800083d0:	52801ae0 	mov	w0, #0xd7                  	// #215
ffffffff800083d4:	14000050 	b	ffffffff80008514 <unicode_to_cp437+0x8f0>
ffffffff800083d8:	52801b00 	mov	w0, #0xd8                  	// #216
ffffffff800083dc:	1400004e 	b	ffffffff80008514 <unicode_to_cp437+0x8f0>
ffffffff800083e0:	52801b20 	mov	w0, #0xd9                  	// #217
ffffffff800083e4:	1400004c 	b	ffffffff80008514 <unicode_to_cp437+0x8f0>
ffffffff800083e8:	52801b40 	mov	w0, #0xda                  	// #218
ffffffff800083ec:	1400004a 	b	ffffffff80008514 <unicode_to_cp437+0x8f0>
ffffffff800083f0:	52801b60 	mov	w0, #0xdb                  	// #219
ffffffff800083f4:	14000048 	b	ffffffff80008514 <unicode_to_cp437+0x8f0>
ffffffff800083f8:	52801b80 	mov	w0, #0xdc                  	// #220
ffffffff800083fc:	14000046 	b	ffffffff80008514 <unicode_to_cp437+0x8f0>
ffffffff80008400:	52801ba0 	mov	w0, #0xdd                  	// #221
ffffffff80008404:	14000044 	b	ffffffff80008514 <unicode_to_cp437+0x8f0>
ffffffff80008408:	52801bc0 	mov	w0, #0xde                  	// #222
ffffffff8000840c:	14000042 	b	ffffffff80008514 <unicode_to_cp437+0x8f0>
ffffffff80008410:	52801be0 	mov	w0, #0xdf                  	// #223
ffffffff80008414:	14000040 	b	ffffffff80008514 <unicode_to_cp437+0x8f0>
ffffffff80008418:	52801c00 	mov	w0, #0xe0                  	// #224
ffffffff8000841c:	1400003e 	b	ffffffff80008514 <unicode_to_cp437+0x8f0>
ffffffff80008420:	52801c20 	mov	w0, #0xe1                  	// #225
ffffffff80008424:	1400003c 	b	ffffffff80008514 <unicode_to_cp437+0x8f0>
ffffffff80008428:	52801c40 	mov	w0, #0xe2                  	// #226
ffffffff8000842c:	1400003a 	b	ffffffff80008514 <unicode_to_cp437+0x8f0>
ffffffff80008430:	52801c60 	mov	w0, #0xe3                  	// #227
ffffffff80008434:	14000038 	b	ffffffff80008514 <unicode_to_cp437+0x8f0>
ffffffff80008438:	52801c80 	mov	w0, #0xe4                  	// #228
ffffffff8000843c:	14000036 	b	ffffffff80008514 <unicode_to_cp437+0x8f0>
ffffffff80008440:	52801ca0 	mov	w0, #0xe5                  	// #229
ffffffff80008444:	14000034 	b	ffffffff80008514 <unicode_to_cp437+0x8f0>
ffffffff80008448:	52801cc0 	mov	w0, #0xe6                  	// #230
ffffffff8000844c:	14000032 	b	ffffffff80008514 <unicode_to_cp437+0x8f0>
ffffffff80008450:	52801ce0 	mov	w0, #0xe7                  	// #231
ffffffff80008454:	14000030 	b	ffffffff80008514 <unicode_to_cp437+0x8f0>
ffffffff80008458:	52801d00 	mov	w0, #0xe8                  	// #232
ffffffff8000845c:	1400002e 	b	ffffffff80008514 <unicode_to_cp437+0x8f0>
ffffffff80008460:	52801d20 	mov	w0, #0xe9                  	// #233
ffffffff80008464:	1400002c 	b	ffffffff80008514 <unicode_to_cp437+0x8f0>
ffffffff80008468:	52801d40 	mov	w0, #0xea                  	// #234
ffffffff8000846c:	1400002a 	b	ffffffff80008514 <unicode_to_cp437+0x8f0>
ffffffff80008470:	52801d60 	mov	w0, #0xeb                  	// #235
ffffffff80008474:	14000028 	b	ffffffff80008514 <unicode_to_cp437+0x8f0>
ffffffff80008478:	52801d80 	mov	w0, #0xec                  	// #236
ffffffff8000847c:	14000026 	b	ffffffff80008514 <unicode_to_cp437+0x8f0>
ffffffff80008480:	52801da0 	mov	w0, #0xed                  	// #237
ffffffff80008484:	14000024 	b	ffffffff80008514 <unicode_to_cp437+0x8f0>
ffffffff80008488:	52801dc0 	mov	w0, #0xee                  	// #238
ffffffff8000848c:	14000022 	b	ffffffff80008514 <unicode_to_cp437+0x8f0>
ffffffff80008490:	52801de0 	mov	w0, #0xef                  	// #239
ffffffff80008494:	14000020 	b	ffffffff80008514 <unicode_to_cp437+0x8f0>
ffffffff80008498:	52801e00 	mov	w0, #0xf0                  	// #240
ffffffff8000849c:	1400001e 	b	ffffffff80008514 <unicode_to_cp437+0x8f0>
ffffffff800084a0:	52801e20 	mov	w0, #0xf1                  	// #241
ffffffff800084a4:	1400001c 	b	ffffffff80008514 <unicode_to_cp437+0x8f0>
ffffffff800084a8:	52801e40 	mov	w0, #0xf2                  	// #242
ffffffff800084ac:	1400001a 	b	ffffffff80008514 <unicode_to_cp437+0x8f0>
ffffffff800084b0:	52801e60 	mov	w0, #0xf3                  	// #243
ffffffff800084b4:	14000018 	b	ffffffff80008514 <unicode_to_cp437+0x8f0>
ffffffff800084b8:	52801e80 	mov	w0, #0xf4                  	// #244
ffffffff800084bc:	14000016 	b	ffffffff80008514 <unicode_to_cp437+0x8f0>
ffffffff800084c0:	52801ea0 	mov	w0, #0xf5                  	// #245
ffffffff800084c4:	14000014 	b	ffffffff80008514 <unicode_to_cp437+0x8f0>
ffffffff800084c8:	52801ec0 	mov	w0, #0xf6                  	// #246
ffffffff800084cc:	14000012 	b	ffffffff80008514 <unicode_to_cp437+0x8f0>
ffffffff800084d0:	52801ee0 	mov	w0, #0xf7                  	// #247
ffffffff800084d4:	14000010 	b	ffffffff80008514 <unicode_to_cp437+0x8f0>
ffffffff800084d8:	52801f00 	mov	w0, #0xf8                  	// #248
ffffffff800084dc:	1400000e 	b	ffffffff80008514 <unicode_to_cp437+0x8f0>
ffffffff800084e0:	52801f20 	mov	w0, #0xf9                  	// #249
ffffffff800084e4:	1400000c 	b	ffffffff80008514 <unicode_to_cp437+0x8f0>
ffffffff800084e8:	52801f40 	mov	w0, #0xfa                  	// #250
ffffffff800084ec:	1400000a 	b	ffffffff80008514 <unicode_to_cp437+0x8f0>
ffffffff800084f0:	52801f60 	mov	w0, #0xfb                  	// #251
ffffffff800084f4:	14000008 	b	ffffffff80008514 <unicode_to_cp437+0x8f0>
ffffffff800084f8:	52801f80 	mov	w0, #0xfc                  	// #252
ffffffff800084fc:	14000006 	b	ffffffff80008514 <unicode_to_cp437+0x8f0>
ffffffff80008500:	52801fa0 	mov	w0, #0xfd                  	// #253
ffffffff80008504:	14000004 	b	ffffffff80008514 <unicode_to_cp437+0x8f0>
ffffffff80008508:	52801fc0 	mov	w0, #0xfe                  	// #254
ffffffff8000850c:	14000002 	b	ffffffff80008514 <unicode_to_cp437+0x8f0>
ffffffff80008510:	12800000 	mov	w0, #0xffffffff            	// #-1
ffffffff80008514:	910043ff 	add	sp, sp, #0x10
ffffffff80008518:	d65f03c0 	ret

ffffffff8000851c <flanterm_putchar>:
ffffffff8000851c:	a9bb7bfd 	stp	x29, x30, [sp, #-80]!
ffffffff80008520:	910003fd 	mov	x29, sp
ffffffff80008524:	f9000fe0 	str	x0, [sp, #24]
ffffffff80008528:	39005fe1 	strb	w1, [sp, #23]
ffffffff8000852c:	f9400fe0 	ldr	x0, [sp, #24]
ffffffff80008530:	39404400 	ldrb	w0, [x0, #17]
ffffffff80008534:	12000000 	and	w0, w0, #0x1
ffffffff80008538:	7100001f 	cmp	w0, #0x0
ffffffff8000853c:	540000e1 	b.ne	ffffffff80008558 <flanterm_putchar+0x3c>  // b.any
ffffffff80008540:	39405fe0 	ldrb	w0, [sp, #23]
ffffffff80008544:	7100601f 	cmp	w0, #0x18
ffffffff80008548:	54000080 	b.eq	ffffffff80008558 <flanterm_putchar+0x3c>  // b.none
ffffffff8000854c:	39405fe0 	ldrb	w0, [sp, #23]
ffffffff80008550:	7100681f 	cmp	w0, #0x1a
ffffffff80008554:	54000241 	b.ne	ffffffff8000859c <flanterm_putchar+0x80>  // b.any
ffffffff80008558:	f9400fe0 	ldr	x0, [sp, #24]
ffffffff8000855c:	3900441f 	strb	wzr, [x0, #17]
ffffffff80008560:	f9400fe0 	ldr	x0, [sp, #24]
ffffffff80008564:	3900341f 	strb	wzr, [x0, #13]
ffffffff80008568:	f9400fe0 	ldr	x0, [sp, #24]
ffffffff8000856c:	3900301f 	strb	wzr, [x0, #12]
ffffffff80008570:	f9400fe0 	ldr	x0, [sp, #24]
ffffffff80008574:	39002c1f 	strb	wzr, [x0, #11]
ffffffff80008578:	f9400fe0 	ldr	x0, [sp, #24]
ffffffff8000857c:	f900101f 	str	xzr, [x0, #32]
ffffffff80008580:	f9400fe0 	ldr	x0, [sp, #24]
ffffffff80008584:	3900381f 	strb	wzr, [x0, #14]
ffffffff80008588:	f9400fe0 	ldr	x0, [sp, #24]
ffffffff8000858c:	39003c1f 	strb	wzr, [x0, #15]
ffffffff80008590:	f9400fe0 	ldr	x0, [sp, #24]
ffffffff80008594:	3900a01f 	strb	wzr, [x0, #40]
ffffffff80008598:	140001a4 	b	ffffffff80008c28 <flanterm_putchar+0x70c>
ffffffff8000859c:	f9400fe0 	ldr	x0, [sp, #24]
ffffffff800085a0:	f9401000 	ldr	x0, [x0, #32]
ffffffff800085a4:	f100001f 	cmp	x0, #0x0
ffffffff800085a8:	54000980 	b.eq	ffffffff800086d8 <flanterm_putchar+0x1bc>  // b.none
ffffffff800085ac:	39405fe0 	ldrb	w0, [sp, #23]
ffffffff800085b0:	121a0400 	and	w0, w0, #0xc0
ffffffff800085b4:	7102001f 	cmp	w0, #0x80
ffffffff800085b8:	54000080 	b.eq	ffffffff800085c8 <flanterm_putchar+0xac>  // b.none
ffffffff800085bc:	f9400fe0 	ldr	x0, [sp, #24]
ffffffff800085c0:	f900101f 	str	xzr, [x0, #32]
ffffffff800085c4:	14000046 	b	ffffffff800086dc <flanterm_putchar+0x1c0>
ffffffff800085c8:	f9400fe0 	ldr	x0, [sp, #24]
ffffffff800085cc:	f9401000 	ldr	x0, [x0, #32]
ffffffff800085d0:	d1000401 	sub	x1, x0, #0x1
ffffffff800085d4:	f9400fe0 	ldr	x0, [sp, #24]
ffffffff800085d8:	f9001001 	str	x1, [x0, #32]
ffffffff800085dc:	f9400fe0 	ldr	x0, [sp, #24]
ffffffff800085e0:	f9400c01 	ldr	x1, [x0, #24]
ffffffff800085e4:	39405fe0 	ldrb	w0, [sp, #23]
ffffffff800085e8:	92401402 	and	x2, x0, #0x3f
ffffffff800085ec:	f9400fe0 	ldr	x0, [sp, #24]
ffffffff800085f0:	f9401000 	ldr	x0, [x0, #32]
ffffffff800085f4:	2a0003e3 	mov	w3, w0
ffffffff800085f8:	2a0303e0 	mov	w0, w3
ffffffff800085fc:	531f7800 	lsl	w0, w0, #1
ffffffff80008600:	0b030000 	add	w0, w0, w3
ffffffff80008604:	531f7800 	lsl	w0, w0, #1
ffffffff80008608:	9ac02040 	lsl	x0, x2, x0
ffffffff8000860c:	aa000021 	orr	x1, x1, x0
ffffffff80008610:	f9400fe0 	ldr	x0, [sp, #24]
ffffffff80008614:	f9000c01 	str	x1, [x0, #24]
ffffffff80008618:	f9400fe0 	ldr	x0, [sp, #24]
ffffffff8000861c:	f9401000 	ldr	x0, [x0, #32]
ffffffff80008620:	f100001f 	cmp	x0, #0x0
ffffffff80008624:	54002f01 	b.ne	ffffffff80008c04 <flanterm_putchar+0x6e8>  // b.any
ffffffff80008628:	f9400fe0 	ldr	x0, [sp, #24]
ffffffff8000862c:	f9400c00 	ldr	x0, [x0, #24]
ffffffff80008630:	97fffd7d 	bl	ffffffff80007c24 <unicode_to_cp437>
ffffffff80008634:	b9003fe0 	str	w0, [sp, #60]
ffffffff80008638:	b9403fe0 	ldr	w0, [sp, #60]
ffffffff8000863c:	3100041f 	cmn	w0, #0x1
ffffffff80008640:	540003c1 	b.ne	ffffffff800086b8 <flanterm_putchar+0x19c>  // b.any
ffffffff80008644:	f9400fe0 	ldr	x0, [sp, #24]
ffffffff80008648:	f9400c00 	ldr	x0, [x0, #24]
ffffffff8000864c:	97fffcf7 	bl	ffffffff80007a28 <mk_wcwidth>
ffffffff80008650:	93407c00 	sxtw	x0, w0
ffffffff80008654:	f9001be0 	str	x0, [sp, #48]
ffffffff80008658:	f9401be0 	ldr	x0, [sp, #48]
ffffffff8000865c:	f100001f 	cmp	x0, #0x0
ffffffff80008660:	540000c0 	b.eq	ffffffff80008678 <flanterm_putchar+0x15c>  // b.none
ffffffff80008664:	f9400fe0 	ldr	x0, [sp, #24]
ffffffff80008668:	f9407802 	ldr	x2, [x0, #240]
ffffffff8000866c:	12800021 	mov	w1, #0xfffffffe            	// #-2
ffffffff80008670:	f9400fe0 	ldr	x0, [sp, #24]
ffffffff80008674:	d63f0040 	blr	x2
ffffffff80008678:	d2800020 	mov	x0, #0x1                   	// #1
ffffffff8000867c:	f90027e0 	str	x0, [sp, #72]
ffffffff80008680:	14000009 	b	ffffffff800086a4 <flanterm_putchar+0x188>
ffffffff80008684:	f9400fe0 	ldr	x0, [sp, #24]
ffffffff80008688:	f9407802 	ldr	x2, [x0, #240]
ffffffff8000868c:	52800401 	mov	w1, #0x20                  	// #32
ffffffff80008690:	f9400fe0 	ldr	x0, [sp, #24]
ffffffff80008694:	d63f0040 	blr	x2
ffffffff80008698:	f94027e0 	ldr	x0, [sp, #72]
ffffffff8000869c:	91000400 	add	x0, x0, #0x1
ffffffff800086a0:	f90027e0 	str	x0, [sp, #72]
ffffffff800086a4:	f94027e1 	ldr	x1, [sp, #72]
ffffffff800086a8:	f9401be0 	ldr	x0, [sp, #48]
ffffffff800086ac:	eb00003f 	cmp	x1, x0
ffffffff800086b0:	54fffea3 	b.cc	ffffffff80008684 <flanterm_putchar+0x168>  // b.lo, b.ul, b.last
ffffffff800086b4:	1400015d 	b	ffffffff80008c28 <flanterm_putchar+0x70c>
ffffffff800086b8:	f9400fe0 	ldr	x0, [sp, #24]
ffffffff800086bc:	f9407802 	ldr	x2, [x0, #240]
ffffffff800086c0:	b9403fe0 	ldr	w0, [sp, #60]
ffffffff800086c4:	12001c00 	and	w0, w0, #0xff
ffffffff800086c8:	2a0003e1 	mov	w1, w0
ffffffff800086cc:	f9400fe0 	ldr	x0, [sp, #24]
ffffffff800086d0:	d63f0040 	blr	x2
ffffffff800086d4:	14000155 	b	ffffffff80008c28 <flanterm_putchar+0x70c>
ffffffff800086d8:	d503201f 	nop
ffffffff800086dc:	39405fe0 	ldrb	w0, [sp, #23]
ffffffff800086e0:	7102fc1f 	cmp	w0, #0xbf
ffffffff800086e4:	54000649 	b.ls	ffffffff800087ac <flanterm_putchar+0x290>  // b.plast
ffffffff800086e8:	39405fe0 	ldrb	w0, [sp, #23]
ffffffff800086ec:	7103dc1f 	cmp	w0, #0xf7
ffffffff800086f0:	540005e8 	b.hi	ffffffff800087ac <flanterm_putchar+0x290>  // b.pmore
ffffffff800086f4:	39405fe0 	ldrb	w0, [sp, #23]
ffffffff800086f8:	7102fc1f 	cmp	w0, #0xbf
ffffffff800086fc:	540001a9 	b.ls	ffffffff80008730 <flanterm_putchar+0x214>  // b.plast
ffffffff80008700:	39405fe0 	ldrb	w0, [sp, #23]
ffffffff80008704:	71037c1f 	cmp	w0, #0xdf
ffffffff80008708:	54000148 	b.hi	ffffffff80008730 <flanterm_putchar+0x214>  // b.pmore
ffffffff8000870c:	f9400fe0 	ldr	x0, [sp, #24]
ffffffff80008710:	d2800021 	mov	x1, #0x1                   	// #1
ffffffff80008714:	f9001001 	str	x1, [x0, #32]
ffffffff80008718:	39405fe0 	ldrb	w0, [sp, #23]
ffffffff8000871c:	d37ae400 	lsl	x0, x0, #6
ffffffff80008720:	927a1001 	and	x1, x0, #0x7c0
ffffffff80008724:	f9400fe0 	ldr	x0, [sp, #24]
ffffffff80008728:	f9000c01 	str	x1, [x0, #24]
ffffffff8000872c:	1400001f 	b	ffffffff800087a8 <flanterm_putchar+0x28c>
ffffffff80008730:	39405fe0 	ldrb	w0, [sp, #23]
ffffffff80008734:	71037c1f 	cmp	w0, #0xdf
ffffffff80008738:	540001a9 	b.ls	ffffffff8000876c <flanterm_putchar+0x250>  // b.plast
ffffffff8000873c:	39405fe0 	ldrb	w0, [sp, #23]
ffffffff80008740:	7103bc1f 	cmp	w0, #0xef
ffffffff80008744:	54000148 	b.hi	ffffffff8000876c <flanterm_putchar+0x250>  // b.pmore
ffffffff80008748:	f9400fe0 	ldr	x0, [sp, #24]
ffffffff8000874c:	d2800041 	mov	x1, #0x2                   	// #2
ffffffff80008750:	f9001001 	str	x1, [x0, #32]
ffffffff80008754:	39405fe0 	ldrb	w0, [sp, #23]
ffffffff80008758:	d374cc00 	lsl	x0, x0, #12
ffffffff8000875c:	92403c01 	and	x1, x0, #0xffff
ffffffff80008760:	f9400fe0 	ldr	x0, [sp, #24]
ffffffff80008764:	f9000c01 	str	x1, [x0, #24]
ffffffff80008768:	14000010 	b	ffffffff800087a8 <flanterm_putchar+0x28c>
ffffffff8000876c:	39405fe0 	ldrb	w0, [sp, #23]
ffffffff80008770:	7103bc1f 	cmp	w0, #0xef
ffffffff80008774:	540024c9 	b.ls	ffffffff80008c0c <flanterm_putchar+0x6f0>  // b.plast
ffffffff80008778:	39405fe0 	ldrb	w0, [sp, #23]
ffffffff8000877c:	7103dc1f 	cmp	w0, #0xf7
ffffffff80008780:	54002468 	b.hi	ffffffff80008c0c <flanterm_putchar+0x6f0>  // b.pmore
ffffffff80008784:	f9400fe0 	ldr	x0, [sp, #24]
ffffffff80008788:	d2800061 	mov	x1, #0x3                   	// #3
ffffffff8000878c:	f9001001 	str	x1, [x0, #32]
ffffffff80008790:	39405fe0 	ldrb	w0, [sp, #23]
ffffffff80008794:	d36eb400 	lsl	x0, x0, #18
ffffffff80008798:	926e0801 	and	x1, x0, #0x1c0000
ffffffff8000879c:	f9400fe0 	ldr	x0, [sp, #24]
ffffffff800087a0:	f9000c01 	str	x1, [x0, #24]
ffffffff800087a4:	1400011a 	b	ffffffff80008c0c <flanterm_putchar+0x6f0>
ffffffff800087a8:	14000119 	b	ffffffff80008c0c <flanterm_putchar+0x6f0>
ffffffff800087ac:	f9400fe0 	ldr	x0, [sp, #24]
ffffffff800087b0:	39403400 	ldrb	w0, [x0, #13]
ffffffff800087b4:	12000000 	and	w0, w0, #0x1
ffffffff800087b8:	7100001f 	cmp	w0, #0x0
ffffffff800087bc:	540000a0 	b.eq	ffffffff800087d0 <flanterm_putchar+0x2b4>  // b.none
ffffffff800087c0:	39405fe1 	ldrb	w1, [sp, #23]
ffffffff800087c4:	f9400fe0 	ldr	x0, [sp, #24]
ffffffff800087c8:	97fffaa0 	bl	ffffffff80007248 <escape_parse>
ffffffff800087cc:	14000117 	b	ffffffff80008c28 <flanterm_putchar+0x70c>
ffffffff800087d0:	f9400fe0 	ldr	x0, [sp, #24]
ffffffff800087d4:	3940a000 	ldrb	w0, [x0, #40]
ffffffff800087d8:	7100001f 	cmp	w0, #0x0
ffffffff800087dc:	540003c0 	b.eq	ffffffff80008854 <flanterm_putchar+0x338>  // b.none
ffffffff800087e0:	f9400fe0 	ldr	x0, [sp, #24]
ffffffff800087e4:	3940a000 	ldrb	w0, [x0, #40]
ffffffff800087e8:	51000400 	sub	w0, w0, #0x1
ffffffff800087ec:	12001c01 	and	w1, w0, #0xff
ffffffff800087f0:	f9400fe0 	ldr	x0, [sp, #24]
ffffffff800087f4:	3900a001 	strb	w1, [x0, #40]
ffffffff800087f8:	39405fe0 	ldrb	w0, [sp, #23]
ffffffff800087fc:	7100c01f 	cmp	w0, #0x30
ffffffff80008800:	54000140 	b.eq	ffffffff80008828 <flanterm_putchar+0x30c>  // b.none
ffffffff80008804:	7101081f 	cmp	w0, #0x42
ffffffff80008808:	54000201 	b.ne	ffffffff80008848 <flanterm_putchar+0x32c>  // b.any
ffffffff8000880c:	f9400fe0 	ldr	x0, [sp, #24]
ffffffff80008810:	3940a000 	ldrb	w0, [x0, #40]
ffffffff80008814:	f9400fe1 	ldr	x1, [sp, #24]
ffffffff80008818:	93407c00 	sxtw	x0, w0
ffffffff8000881c:	8b000020 	add	x0, x1, x0
ffffffff80008820:	3900a41f 	strb	wzr, [x0, #41]
ffffffff80008824:	14000009 	b	ffffffff80008848 <flanterm_putchar+0x32c>
ffffffff80008828:	f9400fe0 	ldr	x0, [sp, #24]
ffffffff8000882c:	3940a000 	ldrb	w0, [x0, #40]
ffffffff80008830:	f9400fe1 	ldr	x1, [sp, #24]
ffffffff80008834:	93407c00 	sxtw	x0, w0
ffffffff80008838:	8b000020 	add	x0, x1, x0
ffffffff8000883c:	52800021 	mov	w1, #0x1                   	// #1
ffffffff80008840:	3900a401 	strb	w1, [x0, #41]
ffffffff80008844:	d503201f 	nop
ffffffff80008848:	f9400fe0 	ldr	x0, [sp, #24]
ffffffff8000884c:	3900a01f 	strb	wzr, [x0, #40]
ffffffff80008850:	140000f6 	b	ffffffff80008c28 <flanterm_putchar+0x70c>
ffffffff80008854:	f9400fe0 	ldr	x0, [sp, #24]
ffffffff80008858:	f9408403 	ldr	x3, [x0, #264]
ffffffff8000885c:	910083e1 	add	x1, sp, #0x20
ffffffff80008860:	9100a3e0 	add	x0, sp, #0x28
ffffffff80008864:	aa0103e2 	mov	x2, x1
ffffffff80008868:	aa0003e1 	mov	x1, x0
ffffffff8000886c:	f9400fe0 	ldr	x0, [sp, #24]
ffffffff80008870:	d63f0060 	blr	x3
ffffffff80008874:	39405fe0 	ldrb	w0, [sp, #23]
ffffffff80008878:	71026c1f 	cmp	w0, #0x9b
ffffffff8000887c:	54000500 	b.eq	ffffffff8000891c <flanterm_putchar+0x400>  // b.none
ffffffff80008880:	71026c1f 	cmp	w0, #0x9b
ffffffff80008884:	5400148c 	b.gt	ffffffff80008b14 <flanterm_putchar+0x5f8>
ffffffff80008888:	7101fc1f 	cmp	w0, #0x7f
ffffffff8000888c:	54001c40 	b.eq	ffffffff80008c14 <flanterm_putchar+0x6f8>  // b.none
ffffffff80008890:	7101fc1f 	cmp	w0, #0x7f
ffffffff80008894:	5400140c 	b.gt	ffffffff80008b14 <flanterm_putchar+0x5f8>
ffffffff80008898:	71006c1f 	cmp	w0, #0x1b
ffffffff8000889c:	54000460 	b.eq	ffffffff80008928 <flanterm_putchar+0x40c>  // b.none
ffffffff800088a0:	71006c1f 	cmp	w0, #0x1b
ffffffff800088a4:	5400138c 	b.gt	ffffffff80008b14 <flanterm_putchar+0x5f8>
ffffffff800088a8:	71003c1f 	cmp	w0, #0xf
ffffffff800088ac:	540012e0 	b.eq	ffffffff80008b08 <flanterm_putchar+0x5ec>  // b.none
ffffffff800088b0:	71003c1f 	cmp	w0, #0xf
ffffffff800088b4:	5400130c 	b.gt	ffffffff80008b14 <flanterm_putchar+0x5f8>
ffffffff800088b8:	7100381f 	cmp	w0, #0xe
ffffffff800088bc:	540011e0 	b.eq	ffffffff80008af8 <flanterm_putchar+0x5dc>  // b.none
ffffffff800088c0:	7100381f 	cmp	w0, #0xe
ffffffff800088c4:	5400128c 	b.gt	ffffffff80008b14 <flanterm_putchar+0x5f8>
ffffffff800088c8:	7100341f 	cmp	w0, #0xd
ffffffff800088cc:	54000ec0 	b.eq	ffffffff80008aa4 <flanterm_putchar+0x588>  // b.none
ffffffff800088d0:	7100341f 	cmp	w0, #0xd
ffffffff800088d4:	5400120c 	b.gt	ffffffff80008b14 <flanterm_putchar+0x5f8>
ffffffff800088d8:	7100301f 	cmp	w0, #0xc
ffffffff800088dc:	540011cc 	b.gt	ffffffff80008b14 <flanterm_putchar+0x5f8>
ffffffff800088e0:	7100281f 	cmp	w0, #0xa
ffffffff800088e4:	5400076a 	b.ge	ffffffff800089d0 <flanterm_putchar+0x4b4>  // b.tcont
ffffffff800088e8:	7100241f 	cmp	w0, #0x9
ffffffff800088ec:	540002a0 	b.eq	ffffffff80008940 <flanterm_putchar+0x424>  // b.none
ffffffff800088f0:	7100241f 	cmp	w0, #0x9
ffffffff800088f4:	5400110c 	b.gt	ffffffff80008b14 <flanterm_putchar+0x5f8>
ffffffff800088f8:	7100201f 	cmp	w0, #0x8
ffffffff800088fc:	54000c00 	b.eq	ffffffff80008a7c <flanterm_putchar+0x560>  // b.none
ffffffff80008900:	7100201f 	cmp	w0, #0x8
ffffffff80008904:	5400108c 	b.gt	ffffffff80008b14 <flanterm_putchar+0x5f8>
ffffffff80008908:	7100001f 	cmp	w0, #0x0
ffffffff8000890c:	54001840 	b.eq	ffffffff80008c14 <flanterm_putchar+0x6f8>  // b.none
ffffffff80008910:	71001c1f 	cmp	w0, #0x7
ffffffff80008914:	54000d80 	b.eq	ffffffff80008ac4 <flanterm_putchar+0x5a8>  // b.none
ffffffff80008918:	1400007f 	b	ffffffff80008b14 <flanterm_putchar+0x5f8>
ffffffff8000891c:	f9400fe0 	ldr	x0, [sp, #24]
ffffffff80008920:	52800021 	mov	w1, #0x1                   	// #1
ffffffff80008924:	39003001 	strb	w1, [x0, #12]
ffffffff80008928:	f9400fe0 	ldr	x0, [sp, #24]
ffffffff8000892c:	f9001c1f 	str	xzr, [x0, #56]
ffffffff80008930:	f9400fe0 	ldr	x0, [sp, #24]
ffffffff80008934:	52800021 	mov	w1, #0x1                   	// #1
ffffffff80008938:	39003401 	strb	w1, [x0, #13]
ffffffff8000893c:	140000bb 	b	ffffffff80008c28 <flanterm_putchar+0x70c>
ffffffff80008940:	f94017e1 	ldr	x1, [sp, #40]
ffffffff80008944:	f9400fe0 	ldr	x0, [sp, #24]
ffffffff80008948:	f9400000 	ldr	x0, [x0]
ffffffff8000894c:	9ac00820 	udiv	x0, x1, x0
ffffffff80008950:	91000401 	add	x1, x0, #0x1
ffffffff80008954:	f9400fe0 	ldr	x0, [sp, #24]
ffffffff80008958:	f9407400 	ldr	x0, [x0, #232]
ffffffff8000895c:	eb00003f 	cmp	x1, x0
ffffffff80008960:	54000183 	b.cc	ffffffff80008990 <flanterm_putchar+0x474>  // b.lo, b.ul, b.last
ffffffff80008964:	f9400fe0 	ldr	x0, [sp, #24]
ffffffff80008968:	f9408003 	ldr	x3, [x0, #256]
ffffffff8000896c:	f9400fe0 	ldr	x0, [sp, #24]
ffffffff80008970:	f9407400 	ldr	x0, [x0, #232]
ffffffff80008974:	d1000400 	sub	x0, x0, #0x1
ffffffff80008978:	f94013e1 	ldr	x1, [sp, #32]
ffffffff8000897c:	aa0103e2 	mov	x2, x1
ffffffff80008980:	aa0003e1 	mov	x1, x0
ffffffff80008984:	f9400fe0 	ldr	x0, [sp, #24]
ffffffff80008988:	d63f0060 	blr	x3
ffffffff8000898c:	140000a7 	b	ffffffff80008c28 <flanterm_putchar+0x70c>
ffffffff80008990:	f9400fe0 	ldr	x0, [sp, #24]
ffffffff80008994:	f9408003 	ldr	x3, [x0, #256]
ffffffff80008998:	f94017e1 	ldr	x1, [sp, #40]
ffffffff8000899c:	f9400fe0 	ldr	x0, [sp, #24]
ffffffff800089a0:	f9400000 	ldr	x0, [x0]
ffffffff800089a4:	9ac00820 	udiv	x0, x1, x0
ffffffff800089a8:	91000401 	add	x1, x0, #0x1
ffffffff800089ac:	f9400fe0 	ldr	x0, [sp, #24]
ffffffff800089b0:	f9400000 	ldr	x0, [x0]
ffffffff800089b4:	9b007c20 	mul	x0, x1, x0
ffffffff800089b8:	f94013e1 	ldr	x1, [sp, #32]
ffffffff800089bc:	aa0103e2 	mov	x2, x1
ffffffff800089c0:	aa0003e1 	mov	x1, x0
ffffffff800089c4:	f9400fe0 	ldr	x0, [sp, #24]
ffffffff800089c8:	d63f0060 	blr	x3
ffffffff800089cc:	14000097 	b	ffffffff80008c28 <flanterm_putchar+0x70c>
ffffffff800089d0:	f9400fe0 	ldr	x0, [sp, #24]
ffffffff800089d4:	f9403800 	ldr	x0, [x0, #112]
ffffffff800089d8:	d1000401 	sub	x1, x0, #0x1
ffffffff800089dc:	f94013e0 	ldr	x0, [sp, #32]
ffffffff800089e0:	eb00003f 	cmp	x1, x0
ffffffff800089e4:	540002a1 	b.ne	ffffffff80008a38 <flanterm_putchar+0x51c>  // b.any
ffffffff800089e8:	f9400fe0 	ldr	x0, [sp, #24]
ffffffff800089ec:	f940b401 	ldr	x1, [x0, #360]
ffffffff800089f0:	f9400fe0 	ldr	x0, [sp, #24]
ffffffff800089f4:	d63f0020 	blr	x1
ffffffff800089f8:	f9400fe0 	ldr	x0, [sp, #24]
ffffffff800089fc:	f9408003 	ldr	x3, [x0, #256]
ffffffff80008a00:	f9400fe0 	ldr	x0, [sp, #24]
ffffffff80008a04:	f9405c00 	ldr	x0, [x0, #184]
ffffffff80008a08:	927c0000 	and	x0, x0, #0x10
ffffffff80008a0c:	f100001f 	cmp	x0, #0x0
ffffffff80008a10:	54000061 	b.ne	ffffffff80008a1c <flanterm_putchar+0x500>  // b.any
ffffffff80008a14:	f94017e0 	ldr	x0, [sp, #40]
ffffffff80008a18:	14000002 	b	ffffffff80008a20 <flanterm_putchar+0x504>
ffffffff80008a1c:	d2800000 	mov	x0, #0x0                   	// #0
ffffffff80008a20:	f94013e1 	ldr	x1, [sp, #32]
ffffffff80008a24:	aa0103e2 	mov	x2, x1
ffffffff80008a28:	aa0003e1 	mov	x1, x0
ffffffff80008a2c:	f9400fe0 	ldr	x0, [sp, #24]
ffffffff80008a30:	d63f0060 	blr	x3
ffffffff80008a34:	1400007d 	b	ffffffff80008c28 <flanterm_putchar+0x70c>
ffffffff80008a38:	f9400fe0 	ldr	x0, [sp, #24]
ffffffff80008a3c:	f9408003 	ldr	x3, [x0, #256]
ffffffff80008a40:	f9400fe0 	ldr	x0, [sp, #24]
ffffffff80008a44:	f9405c00 	ldr	x0, [x0, #184]
ffffffff80008a48:	927c0000 	and	x0, x0, #0x10
ffffffff80008a4c:	f100001f 	cmp	x0, #0x0
ffffffff80008a50:	54000061 	b.ne	ffffffff80008a5c <flanterm_putchar+0x540>  // b.any
ffffffff80008a54:	f94017e0 	ldr	x0, [sp, #40]
ffffffff80008a58:	14000002 	b	ffffffff80008a60 <flanterm_putchar+0x544>
ffffffff80008a5c:	d2800000 	mov	x0, #0x0                   	// #0
ffffffff80008a60:	f94013e1 	ldr	x1, [sp, #32]
ffffffff80008a64:	91000421 	add	x1, x1, #0x1
ffffffff80008a68:	aa0103e2 	mov	x2, x1
ffffffff80008a6c:	aa0003e1 	mov	x1, x0
ffffffff80008a70:	f9400fe0 	ldr	x0, [sp, #24]
ffffffff80008a74:	d63f0060 	blr	x3
ffffffff80008a78:	1400006c 	b	ffffffff80008c28 <flanterm_putchar+0x70c>
ffffffff80008a7c:	f9400fe0 	ldr	x0, [sp, #24]
ffffffff80008a80:	f9408003 	ldr	x3, [x0, #256]
ffffffff80008a84:	f94017e0 	ldr	x0, [sp, #40]
ffffffff80008a88:	d1000400 	sub	x0, x0, #0x1
ffffffff80008a8c:	f94013e1 	ldr	x1, [sp, #32]
ffffffff80008a90:	aa0103e2 	mov	x2, x1
ffffffff80008a94:	aa0003e1 	mov	x1, x0
ffffffff80008a98:	f9400fe0 	ldr	x0, [sp, #24]
ffffffff80008a9c:	d63f0060 	blr	x3
ffffffff80008aa0:	14000062 	b	ffffffff80008c28 <flanterm_putchar+0x70c>
ffffffff80008aa4:	f9400fe0 	ldr	x0, [sp, #24]
ffffffff80008aa8:	f9408003 	ldr	x3, [x0, #256]
ffffffff80008aac:	f94013e0 	ldr	x0, [sp, #32]
ffffffff80008ab0:	aa0003e2 	mov	x2, x0
ffffffff80008ab4:	d2800001 	mov	x1, #0x0                   	// #0
ffffffff80008ab8:	f9400fe0 	ldr	x0, [sp, #24]
ffffffff80008abc:	d63f0060 	blr	x3
ffffffff80008ac0:	1400005a 	b	ffffffff80008c28 <flanterm_putchar+0x70c>
ffffffff80008ac4:	f9400fe0 	ldr	x0, [sp, #24]
ffffffff80008ac8:	f940d400 	ldr	x0, [x0, #424]
ffffffff80008acc:	f100001f 	cmp	x0, #0x0
ffffffff80008ad0:	54000a60 	b.eq	ffffffff80008c1c <flanterm_putchar+0x700>  // b.none
ffffffff80008ad4:	f9400fe0 	ldr	x0, [sp, #24]
ffffffff80008ad8:	f940d405 	ldr	x5, [x0, #424]
ffffffff80008adc:	d2800004 	mov	x4, #0x0                   	// #0
ffffffff80008ae0:	d2800003 	mov	x3, #0x0                   	// #0
ffffffff80008ae4:	d2800002 	mov	x2, #0x0                   	// #0
ffffffff80008ae8:	d2800281 	mov	x1, #0x14                  	// #20
ffffffff80008aec:	f9400fe0 	ldr	x0, [sp, #24]
ffffffff80008af0:	d63f00a0 	blr	x5
ffffffff80008af4:	1400004a 	b	ffffffff80008c1c <flanterm_putchar+0x700>
ffffffff80008af8:	f9400fe0 	ldr	x0, [sp, #24]
ffffffff80008afc:	d2800021 	mov	x1, #0x1                   	// #1
ffffffff80008b00:	f9001801 	str	x1, [x0, #48]
ffffffff80008b04:	14000049 	b	ffffffff80008c28 <flanterm_putchar+0x70c>
ffffffff80008b08:	f9400fe0 	ldr	x0, [sp, #24]
ffffffff80008b0c:	f900181f 	str	xzr, [x0, #48]
ffffffff80008b10:	14000046 	b	ffffffff80008c28 <flanterm_putchar+0x70c>
ffffffff80008b14:	f9400fe0 	ldr	x0, [sp, #24]
ffffffff80008b18:	39405800 	ldrb	w0, [x0, #22]
ffffffff80008b1c:	12000000 	and	w0, w0, #0x1
ffffffff80008b20:	7100001f 	cmp	w0, #0x0
ffffffff80008b24:	54000340 	b.eq	ffffffff80008b8c <flanterm_putchar+0x670>  // b.none
ffffffff80008b28:	f9400fe0 	ldr	x0, [sp, #24]
ffffffff80008b2c:	f9407400 	ldr	x0, [x0, #232]
ffffffff80008b30:	d1000400 	sub	x0, x0, #0x1
ffffffff80008b34:	f90023e0 	str	x0, [sp, #64]
ffffffff80008b38:	f9400fe0 	ldr	x0, [sp, #24]
ffffffff80008b3c:	f940b005 	ldr	x5, [x0, #352]
ffffffff80008b40:	f94023e0 	ldr	x0, [sp, #64]
ffffffff80008b44:	91000400 	add	x0, x0, #0x1
ffffffff80008b48:	f94013e1 	ldr	x1, [sp, #32]
ffffffff80008b4c:	f94013e2 	ldr	x2, [sp, #32]
ffffffff80008b50:	aa0203e4 	mov	x4, x2
ffffffff80008b54:	f94023e3 	ldr	x3, [sp, #64]
ffffffff80008b58:	aa0103e2 	mov	x2, x1
ffffffff80008b5c:	aa0003e1 	mov	x1, x0
ffffffff80008b60:	f9400fe0 	ldr	x0, [sp, #24]
ffffffff80008b64:	d63f00a0 	blr	x5
ffffffff80008b68:	f94017e0 	ldr	x0, [sp, #40]
ffffffff80008b6c:	f94023e1 	ldr	x1, [sp, #64]
ffffffff80008b70:	eb00003f 	cmp	x1, x0
ffffffff80008b74:	540000a0 	b.eq	ffffffff80008b88 <flanterm_putchar+0x66c>  // b.none
ffffffff80008b78:	f94023e0 	ldr	x0, [sp, #64]
ffffffff80008b7c:	d1000400 	sub	x0, x0, #0x1
ffffffff80008b80:	f90023e0 	str	x0, [sp, #64]
ffffffff80008b84:	17ffffed 	b	ffffffff80008b38 <flanterm_putchar+0x61c>
ffffffff80008b88:	d503201f 	nop
ffffffff80008b8c:	f9400fe0 	ldr	x0, [sp, #24]
ffffffff80008b90:	f9401800 	ldr	x0, [x0, #48]
ffffffff80008b94:	f9400fe1 	ldr	x1, [sp, #24]
ffffffff80008b98:	8b000020 	add	x0, x1, x0
ffffffff80008b9c:	3940a400 	ldrb	w0, [x0, #41]
ffffffff80008ba0:	7100001f 	cmp	w0, #0x0
ffffffff80008ba4:	54000160 	b.eq	ffffffff80008bd0 <flanterm_putchar+0x6b4>  // b.none
ffffffff80008ba8:	7100041f 	cmp	w0, #0x1
ffffffff80008bac:	54000141 	b.ne	ffffffff80008bd4 <flanterm_putchar+0x6b8>  // b.any
ffffffff80008bb0:	39405fe1 	ldrb	w1, [sp, #23]
ffffffff80008bb4:	f9400fe0 	ldr	x0, [sp, #24]
ffffffff80008bb8:	97fffa8b 	bl	ffffffff800075e4 <dec_special_print>
ffffffff80008bbc:	12001c00 	and	w0, w0, #0xff
ffffffff80008bc0:	12000000 	and	w0, w0, #0x1
ffffffff80008bc4:	7100001f 	cmp	w0, #0x0
ffffffff80008bc8:	540002e1 	b.ne	ffffffff80008c24 <flanterm_putchar+0x708>  // b.any
ffffffff80008bcc:	14000002 	b	ffffffff80008bd4 <flanterm_putchar+0x6b8>
ffffffff80008bd0:	d503201f 	nop
ffffffff80008bd4:	39405fe0 	ldrb	w0, [sp, #23]
ffffffff80008bd8:	71007c1f 	cmp	w0, #0x1f
ffffffff80008bdc:	54000269 	b.ls	ffffffff80008c28 <flanterm_putchar+0x70c>  // b.plast
ffffffff80008be0:	39405fe0 	ldrb	w0, [sp, #23]
ffffffff80008be4:	7101f81f 	cmp	w0, #0x7e
ffffffff80008be8:	54000208 	b.hi	ffffffff80008c28 <flanterm_putchar+0x70c>  // b.pmore
ffffffff80008bec:	f9400fe0 	ldr	x0, [sp, #24]
ffffffff80008bf0:	f9407802 	ldr	x2, [x0, #240]
ffffffff80008bf4:	39405fe1 	ldrb	w1, [sp, #23]
ffffffff80008bf8:	f9400fe0 	ldr	x0, [sp, #24]
ffffffff80008bfc:	d63f0040 	blr	x2
ffffffff80008c00:	1400000a 	b	ffffffff80008c28 <flanterm_putchar+0x70c>
ffffffff80008c04:	d503201f 	nop
ffffffff80008c08:	14000008 	b	ffffffff80008c28 <flanterm_putchar+0x70c>
ffffffff80008c0c:	d503201f 	nop
ffffffff80008c10:	14000006 	b	ffffffff80008c28 <flanterm_putchar+0x70c>
ffffffff80008c14:	d503201f 	nop
ffffffff80008c18:	14000004 	b	ffffffff80008c28 <flanterm_putchar+0x70c>
ffffffff80008c1c:	d503201f 	nop
ffffffff80008c20:	14000002 	b	ffffffff80008c28 <flanterm_putchar+0x70c>
ffffffff80008c24:	d503201f 	nop
ffffffff80008c28:	a8c57bfd 	ldp	x29, x30, [sp], #80
ffffffff80008c2c:	d65f03c0 	ret

ffffffff80008c30 <zero_read>:
ffffffff80008c30:	a9bc7bfd 	stp	x29, x30, [sp, #-64]!
ffffffff80008c34:	910003fd 	mov	x29, sp
ffffffff80008c38:	f9001fe0 	str	x0, [sp, #56]
ffffffff80008c3c:	f9001be1 	str	x1, [sp, #48]
ffffffff80008c40:	f90017e2 	str	x2, [sp, #40]
ffffffff80008c44:	f90013e3 	str	x3, [sp, #32]
ffffffff80008c48:	f9000fe4 	str	x4, [sp, #24]
ffffffff80008c4c:	f9401fe0 	ldr	x0, [sp, #56]
ffffffff80008c50:	79440000 	ldrh	w0, [x0, #512]
ffffffff80008c54:	2a0003e5 	mov	w5, w0
ffffffff80008c58:	f9401be4 	ldr	x4, [sp, #48]
ffffffff80008c5c:	f9400fe3 	ldr	x3, [sp, #24]
ffffffff80008c60:	f94013e2 	ldr	x2, [sp, #32]
ffffffff80008c64:	f94017e1 	ldr	x1, [sp, #40]
ffffffff80008c68:	f0000080 	adrp	x0, ffffffff8001b000 <col256+0x720>
ffffffff80008c6c:	91360000 	add	x0, x0, #0xd80
ffffffff80008c70:	97ffdfd0 	bl	ffffffff80000bb0 <tprintf>
ffffffff80008c74:	d2800000 	mov	x0, #0x0                   	// #0
ffffffff80008c78:	a8c47bfd 	ldp	x29, x30, [sp], #64
ffffffff80008c7c:	d65f03c0 	ret

ffffffff80008c80 <zero_write>:
ffffffff80008c80:	a9bc7bfd 	stp	x29, x30, [sp, #-64]!
ffffffff80008c84:	910003fd 	mov	x29, sp
ffffffff80008c88:	f9001fe0 	str	x0, [sp, #56]
ffffffff80008c8c:	f9001be1 	str	x1, [sp, #48]
ffffffff80008c90:	f90017e2 	str	x2, [sp, #40]
ffffffff80008c94:	f90013e3 	str	x3, [sp, #32]
ffffffff80008c98:	f9000fe4 	str	x4, [sp, #24]
ffffffff80008c9c:	f9401fe0 	ldr	x0, [sp, #56]
ffffffff80008ca0:	79440000 	ldrh	w0, [x0, #512]
ffffffff80008ca4:	2a0003e5 	mov	w5, w0
ffffffff80008ca8:	f9401be4 	ldr	x4, [sp, #48]
ffffffff80008cac:	f9400fe3 	ldr	x3, [sp, #24]
ffffffff80008cb0:	f94013e2 	ldr	x2, [sp, #32]
ffffffff80008cb4:	f94017e1 	ldr	x1, [sp, #40]
ffffffff80008cb8:	f0000080 	adrp	x0, ffffffff8001b000 <col256+0x720>
ffffffff80008cbc:	91370000 	add	x0, x0, #0xdc0
ffffffff80008cc0:	97ffdfbc 	bl	ffffffff80000bb0 <tprintf>
ffffffff80008cc4:	f94013e0 	ldr	x0, [sp, #32]
ffffffff80008cc8:	a8c47bfd 	ldp	x29, x30, [sp], #64
ffffffff80008ccc:	d65f03c0 	ret

ffffffff80008cd0 <initialize_zerofs>:
ffffffff80008cd0:	a9be7bfd 	stp	x29, x30, [sp, #-32]!
ffffffff80008cd4:	910003fd 	mov	x29, sp
ffffffff80008cd8:	d2804900 	mov	x0, #0x248                 	// #584
ffffffff80008cdc:	97ffe402 	bl	ffffffff80001ce4 <kmalloc>
ffffffff80008ce0:	f9000fe0 	str	x0, [sp, #24]
ffffffff80008ce4:	f9400fe2 	ldr	x2, [sp, #24]
ffffffff80008ce8:	f0000080 	adrp	x0, ffffffff8001b000 <col256+0x720>
ffffffff80008cec:	91380001 	add	x1, x0, #0xe00
ffffffff80008cf0:	aa0203e0 	mov	x0, x2
ffffffff80008cf4:	97ffde55 	bl	ffffffff80000648 <strcpy>
ffffffff80008cf8:	f9400fe0 	ldr	x0, [sp, #24]
ffffffff80008cfc:	f901041f 	str	xzr, [x0, #520]
ffffffff80008d00:	f9400fe0 	ldr	x0, [sp, #24]
ffffffff80008d04:	90000001 	adrp	x1, ffffffff80008000 <unicode_to_cp437+0x3dc>
ffffffff80008d08:	9130c021 	add	x1, x1, #0xc30
ffffffff80008d0c:	f9010801 	str	x1, [x0, #528]
ffffffff80008d10:	f9400fe0 	ldr	x0, [sp, #24]
ffffffff80008d14:	90000001 	adrp	x1, ffffffff80008000 <unicode_to_cp437+0x3dc>
ffffffff80008d18:	91320021 	add	x1, x1, #0xc80
ffffffff80008d1c:	f9010c01 	str	x1, [x0, #536]
ffffffff80008d20:	f9400fe0 	ldr	x0, [sp, #24]
ffffffff80008d24:	f901101f 	str	xzr, [x0, #544]
ffffffff80008d28:	f9400fe0 	ldr	x0, [sp, #24]
ffffffff80008d2c:	f901141f 	str	xzr, [x0, #552]
ffffffff80008d30:	f9400fe0 	ldr	x0, [sp, #24]
ffffffff80008d34:	f901181f 	str	xzr, [x0, #560]
ffffffff80008d38:	f9400fe0 	ldr	x0, [sp, #24]
ffffffff80008d3c:	97ffe295 	bl	ffffffff80001790 <vfs_mount>
ffffffff80008d40:	d503201f 	nop
ffffffff80008d44:	a8c27bfd 	ldp	x29, x30, [sp], #32
ffffffff80008d48:	d65f03c0 	ret
	...

ffffffff80009000 <_exception_vector>:
ffffffff80009000:	17ffdc18 	b	ffffffff80000060 <kfault>
ffffffff80009004:	d503201f 	nop
ffffffff80009008:	d503201f 	nop
ffffffff8000900c:	d503201f 	nop
ffffffff80009010:	d503201f 	nop
ffffffff80009014:	d503201f 	nop
ffffffff80009018:	d503201f 	nop
ffffffff8000901c:	d503201f 	nop
ffffffff80009020:	d503201f 	nop
ffffffff80009024:	d503201f 	nop
ffffffff80009028:	d503201f 	nop
ffffffff8000902c:	d503201f 	nop
ffffffff80009030:	d503201f 	nop
ffffffff80009034:	d503201f 	nop
ffffffff80009038:	d503201f 	nop
ffffffff8000903c:	d503201f 	nop
ffffffff80009040:	d503201f 	nop
ffffffff80009044:	d503201f 	nop
ffffffff80009048:	d503201f 	nop
ffffffff8000904c:	d503201f 	nop
ffffffff80009050:	d503201f 	nop
ffffffff80009054:	d503201f 	nop
ffffffff80009058:	d503201f 	nop
ffffffff8000905c:	d503201f 	nop
ffffffff80009060:	d503201f 	nop
ffffffff80009064:	d503201f 	nop
ffffffff80009068:	d503201f 	nop
ffffffff8000906c:	d503201f 	nop
ffffffff80009070:	d503201f 	nop
ffffffff80009074:	d503201f 	nop
ffffffff80009078:	d503201f 	nop
ffffffff8000907c:	d503201f 	nop

ffffffff80009080 <_exc_sp0_irq>:
ffffffff80009080:	17ffdbf8 	b	ffffffff80000060 <kfault>
ffffffff80009084:	d503201f 	nop
ffffffff80009088:	d503201f 	nop
ffffffff8000908c:	d503201f 	nop
ffffffff80009090:	d503201f 	nop
ffffffff80009094:	d503201f 	nop
ffffffff80009098:	d503201f 	nop
ffffffff8000909c:	d503201f 	nop
ffffffff800090a0:	d503201f 	nop
ffffffff800090a4:	d503201f 	nop
ffffffff800090a8:	d503201f 	nop
ffffffff800090ac:	d503201f 	nop
ffffffff800090b0:	d503201f 	nop
ffffffff800090b4:	d503201f 	nop
ffffffff800090b8:	d503201f 	nop
ffffffff800090bc:	d503201f 	nop
ffffffff800090c0:	d503201f 	nop
ffffffff800090c4:	d503201f 	nop
ffffffff800090c8:	d503201f 	nop
ffffffff800090cc:	d503201f 	nop
ffffffff800090d0:	d503201f 	nop
ffffffff800090d4:	d503201f 	nop
ffffffff800090d8:	d503201f 	nop
ffffffff800090dc:	d503201f 	nop
ffffffff800090e0:	d503201f 	nop
ffffffff800090e4:	d503201f 	nop
ffffffff800090e8:	d503201f 	nop
ffffffff800090ec:	d503201f 	nop
ffffffff800090f0:	d503201f 	nop
ffffffff800090f4:	d503201f 	nop
ffffffff800090f8:	d503201f 	nop
ffffffff800090fc:	d503201f 	nop

ffffffff80009100 <_exc_sp0_fiq>:
ffffffff80009100:	17ffdbd8 	b	ffffffff80000060 <kfault>
ffffffff80009104:	d503201f 	nop
ffffffff80009108:	d503201f 	nop
ffffffff8000910c:	d503201f 	nop
ffffffff80009110:	d503201f 	nop
ffffffff80009114:	d503201f 	nop
ffffffff80009118:	d503201f 	nop
ffffffff8000911c:	d503201f 	nop
ffffffff80009120:	d503201f 	nop
ffffffff80009124:	d503201f 	nop
ffffffff80009128:	d503201f 	nop
ffffffff8000912c:	d503201f 	nop
ffffffff80009130:	d503201f 	nop
ffffffff80009134:	d503201f 	nop
ffffffff80009138:	d503201f 	nop
ffffffff8000913c:	d503201f 	nop
ffffffff80009140:	d503201f 	nop
ffffffff80009144:	d503201f 	nop
ffffffff80009148:	d503201f 	nop
ffffffff8000914c:	d503201f 	nop
ffffffff80009150:	d503201f 	nop
ffffffff80009154:	d503201f 	nop
ffffffff80009158:	d503201f 	nop
ffffffff8000915c:	d503201f 	nop
ffffffff80009160:	d503201f 	nop
ffffffff80009164:	d503201f 	nop
ffffffff80009168:	d503201f 	nop
ffffffff8000916c:	d503201f 	nop
ffffffff80009170:	d503201f 	nop
ffffffff80009174:	d503201f 	nop
ffffffff80009178:	d503201f 	nop
ffffffff8000917c:	d503201f 	nop

ffffffff80009180 <_exc_sp0_serror>:
ffffffff80009180:	17ffdbb8 	b	ffffffff80000060 <kfault>
ffffffff80009184:	d503201f 	nop
ffffffff80009188:	d503201f 	nop
ffffffff8000918c:	d503201f 	nop
ffffffff80009190:	d503201f 	nop
ffffffff80009194:	d503201f 	nop
ffffffff80009198:	d503201f 	nop
ffffffff8000919c:	d503201f 	nop
ffffffff800091a0:	d503201f 	nop
ffffffff800091a4:	d503201f 	nop
ffffffff800091a8:	d503201f 	nop
ffffffff800091ac:	d503201f 	nop
ffffffff800091b0:	d503201f 	nop
ffffffff800091b4:	d503201f 	nop
ffffffff800091b8:	d503201f 	nop
ffffffff800091bc:	d503201f 	nop
ffffffff800091c0:	d503201f 	nop
ffffffff800091c4:	d503201f 	nop
ffffffff800091c8:	d503201f 	nop
ffffffff800091cc:	d503201f 	nop
ffffffff800091d0:	d503201f 	nop
ffffffff800091d4:	d503201f 	nop
ffffffff800091d8:	d503201f 	nop
ffffffff800091dc:	d503201f 	nop
ffffffff800091e0:	d503201f 	nop
ffffffff800091e4:	d503201f 	nop
ffffffff800091e8:	d503201f 	nop
ffffffff800091ec:	d503201f 	nop
ffffffff800091f0:	d503201f 	nop
ffffffff800091f4:	d503201f 	nop
ffffffff800091f8:	d503201f 	nop
ffffffff800091fc:	d503201f 	nop

ffffffff80009200 <_exc_spx_sync>:
ffffffff80009200:	17ffdb98 	b	ffffffff80000060 <kfault>
ffffffff80009204:	d503201f 	nop
ffffffff80009208:	d503201f 	nop
ffffffff8000920c:	d503201f 	nop
ffffffff80009210:	d503201f 	nop
ffffffff80009214:	d503201f 	nop
ffffffff80009218:	d503201f 	nop
ffffffff8000921c:	d503201f 	nop
ffffffff80009220:	d503201f 	nop
ffffffff80009224:	d503201f 	nop
ffffffff80009228:	d503201f 	nop
ffffffff8000922c:	d503201f 	nop
ffffffff80009230:	d503201f 	nop
ffffffff80009234:	d503201f 	nop
ffffffff80009238:	d503201f 	nop
ffffffff8000923c:	d503201f 	nop
ffffffff80009240:	d503201f 	nop
ffffffff80009244:	d503201f 	nop
ffffffff80009248:	d503201f 	nop
ffffffff8000924c:	d503201f 	nop
ffffffff80009250:	d503201f 	nop
ffffffff80009254:	d503201f 	nop
ffffffff80009258:	d503201f 	nop
ffffffff8000925c:	d503201f 	nop
ffffffff80009260:	d503201f 	nop
ffffffff80009264:	d503201f 	nop
ffffffff80009268:	d503201f 	nop
ffffffff8000926c:	d503201f 	nop
ffffffff80009270:	d503201f 	nop
ffffffff80009274:	d503201f 	nop
ffffffff80009278:	d503201f 	nop
ffffffff8000927c:	d503201f 	nop

ffffffff80009280 <_exc_spx_irq>:
ffffffff80009280:	17ffdb78 	b	ffffffff80000060 <kfault>
ffffffff80009284:	d503201f 	nop
ffffffff80009288:	d503201f 	nop
ffffffff8000928c:	d503201f 	nop
ffffffff80009290:	d503201f 	nop
ffffffff80009294:	d503201f 	nop
ffffffff80009298:	d503201f 	nop
ffffffff8000929c:	d503201f 	nop
ffffffff800092a0:	d503201f 	nop
ffffffff800092a4:	d503201f 	nop
ffffffff800092a8:	d503201f 	nop
ffffffff800092ac:	d503201f 	nop
ffffffff800092b0:	d503201f 	nop
ffffffff800092b4:	d503201f 	nop
ffffffff800092b8:	d503201f 	nop
ffffffff800092bc:	d503201f 	nop
ffffffff800092c0:	d503201f 	nop
ffffffff800092c4:	d503201f 	nop
ffffffff800092c8:	d503201f 	nop
ffffffff800092cc:	d503201f 	nop
ffffffff800092d0:	d503201f 	nop
ffffffff800092d4:	d503201f 	nop
ffffffff800092d8:	d503201f 	nop
ffffffff800092dc:	d503201f 	nop
ffffffff800092e0:	d503201f 	nop
ffffffff800092e4:	d503201f 	nop
ffffffff800092e8:	d503201f 	nop
ffffffff800092ec:	d503201f 	nop
ffffffff800092f0:	d503201f 	nop
ffffffff800092f4:	d503201f 	nop
ffffffff800092f8:	d503201f 	nop
ffffffff800092fc:	d503201f 	nop

ffffffff80009300 <_exc_spx_fiq>:
ffffffff80009300:	17ffdb58 	b	ffffffff80000060 <kfault>
ffffffff80009304:	d503201f 	nop
ffffffff80009308:	d503201f 	nop
ffffffff8000930c:	d503201f 	nop
ffffffff80009310:	d503201f 	nop
ffffffff80009314:	d503201f 	nop
ffffffff80009318:	d503201f 	nop
ffffffff8000931c:	d503201f 	nop
ffffffff80009320:	d503201f 	nop
ffffffff80009324:	d503201f 	nop
ffffffff80009328:	d503201f 	nop
ffffffff8000932c:	d503201f 	nop
ffffffff80009330:	d503201f 	nop
ffffffff80009334:	d503201f 	nop
ffffffff80009338:	d503201f 	nop
ffffffff8000933c:	d503201f 	nop
ffffffff80009340:	d503201f 	nop
ffffffff80009344:	d503201f 	nop
ffffffff80009348:	d503201f 	nop
ffffffff8000934c:	d503201f 	nop
ffffffff80009350:	d503201f 	nop
ffffffff80009354:	d503201f 	nop
ffffffff80009358:	d503201f 	nop
ffffffff8000935c:	d503201f 	nop
ffffffff80009360:	d503201f 	nop
ffffffff80009364:	d503201f 	nop
ffffffff80009368:	d503201f 	nop
ffffffff8000936c:	d503201f 	nop
ffffffff80009370:	d503201f 	nop
ffffffff80009374:	d503201f 	nop
ffffffff80009378:	d503201f 	nop
ffffffff8000937c:	d503201f 	nop

ffffffff80009380 <_exc_spx_serror>:
ffffffff80009380:	17ffdb38 	b	ffffffff80000060 <kfault>
ffffffff80009384:	d503201f 	nop
ffffffff80009388:	d503201f 	nop
ffffffff8000938c:	d503201f 	nop
ffffffff80009390:	d503201f 	nop
ffffffff80009394:	d503201f 	nop
ffffffff80009398:	d503201f 	nop
ffffffff8000939c:	d503201f 	nop
ffffffff800093a0:	d503201f 	nop
ffffffff800093a4:	d503201f 	nop
ffffffff800093a8:	d503201f 	nop
ffffffff800093ac:	d503201f 	nop
ffffffff800093b0:	d503201f 	nop
ffffffff800093b4:	d503201f 	nop
ffffffff800093b8:	d503201f 	nop
ffffffff800093bc:	d503201f 	nop
ffffffff800093c0:	d503201f 	nop
ffffffff800093c4:	d503201f 	nop
ffffffff800093c8:	d503201f 	nop
ffffffff800093cc:	d503201f 	nop
ffffffff800093d0:	d503201f 	nop
ffffffff800093d4:	d503201f 	nop
ffffffff800093d8:	d503201f 	nop
ffffffff800093dc:	d503201f 	nop
ffffffff800093e0:	d503201f 	nop
ffffffff800093e4:	d503201f 	nop
ffffffff800093e8:	d503201f 	nop
ffffffff800093ec:	d503201f 	nop
ffffffff800093f0:	d503201f 	nop
ffffffff800093f4:	d503201f 	nop
ffffffff800093f8:	d503201f 	nop
ffffffff800093fc:	d503201f 	nop

ffffffff80009400 <_exc_lower_sync>:
ffffffff80009400:	17ffdb18 	b	ffffffff80000060 <kfault>
ffffffff80009404:	d503201f 	nop
ffffffff80009408:	d503201f 	nop
ffffffff8000940c:	d503201f 	nop
ffffffff80009410:	d503201f 	nop
ffffffff80009414:	d503201f 	nop
ffffffff80009418:	d503201f 	nop
ffffffff8000941c:	d503201f 	nop
ffffffff80009420:	d503201f 	nop
ffffffff80009424:	d503201f 	nop
ffffffff80009428:	d503201f 	nop
ffffffff8000942c:	d503201f 	nop
ffffffff80009430:	d503201f 	nop
ffffffff80009434:	d503201f 	nop
ffffffff80009438:	d503201f 	nop
ffffffff8000943c:	d503201f 	nop
ffffffff80009440:	d503201f 	nop
ffffffff80009444:	d503201f 	nop
ffffffff80009448:	d503201f 	nop
ffffffff8000944c:	d503201f 	nop
ffffffff80009450:	d503201f 	nop
ffffffff80009454:	d503201f 	nop
ffffffff80009458:	d503201f 	nop
ffffffff8000945c:	d503201f 	nop
ffffffff80009460:	d503201f 	nop
ffffffff80009464:	d503201f 	nop
ffffffff80009468:	d503201f 	nop
ffffffff8000946c:	d503201f 	nop
ffffffff80009470:	d503201f 	nop
ffffffff80009474:	d503201f 	nop
ffffffff80009478:	d503201f 	nop
ffffffff8000947c:	d503201f 	nop

ffffffff80009480 <_exc_lower_irq>:
ffffffff80009480:	17ffdaf8 	b	ffffffff80000060 <kfault>
ffffffff80009484:	d503201f 	nop
ffffffff80009488:	d503201f 	nop
ffffffff8000948c:	d503201f 	nop
ffffffff80009490:	d503201f 	nop
ffffffff80009494:	d503201f 	nop
ffffffff80009498:	d503201f 	nop
ffffffff8000949c:	d503201f 	nop
ffffffff800094a0:	d503201f 	nop
ffffffff800094a4:	d503201f 	nop
ffffffff800094a8:	d503201f 	nop
ffffffff800094ac:	d503201f 	nop
ffffffff800094b0:	d503201f 	nop
ffffffff800094b4:	d503201f 	nop
ffffffff800094b8:	d503201f 	nop
ffffffff800094bc:	d503201f 	nop
ffffffff800094c0:	d503201f 	nop
ffffffff800094c4:	d503201f 	nop
ffffffff800094c8:	d503201f 	nop
ffffffff800094cc:	d503201f 	nop
ffffffff800094d0:	d503201f 	nop
ffffffff800094d4:	d503201f 	nop
ffffffff800094d8:	d503201f 	nop
ffffffff800094dc:	d503201f 	nop
ffffffff800094e0:	d503201f 	nop
ffffffff800094e4:	d503201f 	nop
ffffffff800094e8:	d503201f 	nop
ffffffff800094ec:	d503201f 	nop
ffffffff800094f0:	d503201f 	nop
ffffffff800094f4:	d503201f 	nop
ffffffff800094f8:	d503201f 	nop
ffffffff800094fc:	d503201f 	nop

ffffffff80009500 <_exc_lower_fiq>:
ffffffff80009500:	17ffdad8 	b	ffffffff80000060 <kfault>
ffffffff80009504:	d503201f 	nop
ffffffff80009508:	d503201f 	nop
ffffffff8000950c:	d503201f 	nop
ffffffff80009510:	d503201f 	nop
ffffffff80009514:	d503201f 	nop
ffffffff80009518:	d503201f 	nop
ffffffff8000951c:	d503201f 	nop
ffffffff80009520:	d503201f 	nop
ffffffff80009524:	d503201f 	nop
ffffffff80009528:	d503201f 	nop
ffffffff8000952c:	d503201f 	nop
ffffffff80009530:	d503201f 	nop
ffffffff80009534:	d503201f 	nop
ffffffff80009538:	d503201f 	nop
ffffffff8000953c:	d503201f 	nop
ffffffff80009540:	d503201f 	nop
ffffffff80009544:	d503201f 	nop
ffffffff80009548:	d503201f 	nop
ffffffff8000954c:	d503201f 	nop
ffffffff80009550:	d503201f 	nop
ffffffff80009554:	d503201f 	nop
ffffffff80009558:	d503201f 	nop
ffffffff8000955c:	d503201f 	nop
ffffffff80009560:	d503201f 	nop
ffffffff80009564:	d503201f 	nop
ffffffff80009568:	d503201f 	nop
ffffffff8000956c:	d503201f 	nop
ffffffff80009570:	d503201f 	nop
ffffffff80009574:	d503201f 	nop
ffffffff80009578:	d503201f 	nop
ffffffff8000957c:	d503201f 	nop

ffffffff80009580 <_exc_lower_serror>:
ffffffff80009580:	17ffdab8 	b	ffffffff80000060 <kfault>
ffffffff80009584:	d503201f 	nop
ffffffff80009588:	d503201f 	nop
ffffffff8000958c:	d503201f 	nop
ffffffff80009590:	d503201f 	nop
ffffffff80009594:	d503201f 	nop
ffffffff80009598:	d503201f 	nop
ffffffff8000959c:	d503201f 	nop
ffffffff800095a0:	d503201f 	nop
ffffffff800095a4:	d503201f 	nop
ffffffff800095a8:	d503201f 	nop
ffffffff800095ac:	d503201f 	nop
ffffffff800095b0:	d503201f 	nop
ffffffff800095b4:	d503201f 	nop
ffffffff800095b8:	d503201f 	nop
ffffffff800095bc:	d503201f 	nop
ffffffff800095c0:	d503201f 	nop
ffffffff800095c4:	d503201f 	nop
ffffffff800095c8:	d503201f 	nop
ffffffff800095cc:	d503201f 	nop
ffffffff800095d0:	d503201f 	nop
ffffffff800095d4:	d503201f 	nop
ffffffff800095d8:	d503201f 	nop
ffffffff800095dc:	d503201f 	nop
ffffffff800095e0:	d503201f 	nop
ffffffff800095e4:	d503201f 	nop
ffffffff800095e8:	d503201f 	nop
ffffffff800095ec:	d503201f 	nop
ffffffff800095f0:	d503201f 	nop
ffffffff800095f4:	d503201f 	nop
ffffffff800095f8:	d503201f 	nop
ffffffff800095fc:	d503201f 	nop

ffffffff80009600 <_exc_lower_32_sync>:
ffffffff80009600:	17ffda98 	b	ffffffff80000060 <kfault>
ffffffff80009604:	d503201f 	nop
ffffffff80009608:	d503201f 	nop
ffffffff8000960c:	d503201f 	nop
ffffffff80009610:	d503201f 	nop
ffffffff80009614:	d503201f 	nop
ffffffff80009618:	d503201f 	nop
ffffffff8000961c:	d503201f 	nop
ffffffff80009620:	d503201f 	nop
ffffffff80009624:	d503201f 	nop
ffffffff80009628:	d503201f 	nop
ffffffff8000962c:	d503201f 	nop
ffffffff80009630:	d503201f 	nop
ffffffff80009634:	d503201f 	nop
ffffffff80009638:	d503201f 	nop
ffffffff8000963c:	d503201f 	nop
ffffffff80009640:	d503201f 	nop
ffffffff80009644:	d503201f 	nop
ffffffff80009648:	d503201f 	nop
ffffffff8000964c:	d503201f 	nop
ffffffff80009650:	d503201f 	nop
ffffffff80009654:	d503201f 	nop
ffffffff80009658:	d503201f 	nop
ffffffff8000965c:	d503201f 	nop
ffffffff80009660:	d503201f 	nop
ffffffff80009664:	d503201f 	nop
ffffffff80009668:	d503201f 	nop
ffffffff8000966c:	d503201f 	nop
ffffffff80009670:	d503201f 	nop
ffffffff80009674:	d503201f 	nop
ffffffff80009678:	d503201f 	nop
ffffffff8000967c:	d503201f 	nop

ffffffff80009680 <_exc_lower_32_irq>:
ffffffff80009680:	17ffda78 	b	ffffffff80000060 <kfault>
ffffffff80009684:	d503201f 	nop
ffffffff80009688:	d503201f 	nop
ffffffff8000968c:	d503201f 	nop
ffffffff80009690:	d503201f 	nop
ffffffff80009694:	d503201f 	nop
ffffffff80009698:	d503201f 	nop
ffffffff8000969c:	d503201f 	nop
ffffffff800096a0:	d503201f 	nop
ffffffff800096a4:	d503201f 	nop
ffffffff800096a8:	d503201f 	nop
ffffffff800096ac:	d503201f 	nop
ffffffff800096b0:	d503201f 	nop
ffffffff800096b4:	d503201f 	nop
ffffffff800096b8:	d503201f 	nop
ffffffff800096bc:	d503201f 	nop
ffffffff800096c0:	d503201f 	nop
ffffffff800096c4:	d503201f 	nop
ffffffff800096c8:	d503201f 	nop
ffffffff800096cc:	d503201f 	nop
ffffffff800096d0:	d503201f 	nop
ffffffff800096d4:	d503201f 	nop
ffffffff800096d8:	d503201f 	nop
ffffffff800096dc:	d503201f 	nop
ffffffff800096e0:	d503201f 	nop
ffffffff800096e4:	d503201f 	nop
ffffffff800096e8:	d503201f 	nop
ffffffff800096ec:	d503201f 	nop
ffffffff800096f0:	d503201f 	nop
ffffffff800096f4:	d503201f 	nop
ffffffff800096f8:	d503201f 	nop
ffffffff800096fc:	d503201f 	nop

ffffffff80009700 <_exc_lower_32_fiq>:
ffffffff80009700:	17ffda58 	b	ffffffff80000060 <kfault>
ffffffff80009704:	d503201f 	nop
ffffffff80009708:	d503201f 	nop
ffffffff8000970c:	d503201f 	nop
ffffffff80009710:	d503201f 	nop
ffffffff80009714:	d503201f 	nop
ffffffff80009718:	d503201f 	nop
ffffffff8000971c:	d503201f 	nop
ffffffff80009720:	d503201f 	nop
ffffffff80009724:	d503201f 	nop
ffffffff80009728:	d503201f 	nop
ffffffff8000972c:	d503201f 	nop
ffffffff80009730:	d503201f 	nop
ffffffff80009734:	d503201f 	nop
ffffffff80009738:	d503201f 	nop
ffffffff8000973c:	d503201f 	nop
ffffffff80009740:	d503201f 	nop
ffffffff80009744:	d503201f 	nop
ffffffff80009748:	d503201f 	nop
ffffffff8000974c:	d503201f 	nop
ffffffff80009750:	d503201f 	nop
ffffffff80009754:	d503201f 	nop
ffffffff80009758:	d503201f 	nop
ffffffff8000975c:	d503201f 	nop
ffffffff80009760:	d503201f 	nop
ffffffff80009764:	d503201f 	nop
ffffffff80009768:	d503201f 	nop
ffffffff8000976c:	d503201f 	nop
ffffffff80009770:	d503201f 	nop
ffffffff80009774:	d503201f 	nop
ffffffff80009778:	d503201f 	nop
ffffffff8000977c:	d503201f 	nop

ffffffff80009780 <_exc_lower_32_serror>:
ffffffff80009780:	17ffda38 	b	ffffffff80000060 <kfault>
